ARM GAS  C:\Users\raytr\AppData\Local\Temp\ccu8NuaS.s 			page 1


   1              		.syntax unified
   2              		.cpu cortex-m3
   3              		.fpu softvfp
   4              		.eabi_attribute 20, 1
   5              		.eabi_attribute 21, 1
   6              		.eabi_attribute 23, 3
   7              		.eabi_attribute 24, 1
   8              		.eabi_attribute 25, 1
   9              		.eabi_attribute 26, 1
  10              		.eabi_attribute 30, 1
  11              		.eabi_attribute 34, 1
  12              		.eabi_attribute 18, 4
  13              		.thumb
  14              		.file	"cpu.c"
  15              		.text
  16              	.Ltext0:
  17              		.cfi_sections	.debug_frame
  18              		.section	.text.increment_pc,"ax",%progbits
  19              		.align	2
  20              		.thumb
  21              		.thumb_func
  22              		.type	increment_pc, %function
  23              	increment_pc:
  24              	.LFB2:
  25              		.file 1 ".\\cpu.c"
   1:.\cpu.c       **** #include "memory.h"
   2:.\cpu.c       **** #include "rom.h"
   3:.\cpu.c       **** #include "registers.h"
   4:.\cpu.c       **** #include "cpu.h"
   5:.\cpu.c       **** 
   6:.\cpu.c       **** int8_t safe_convert(uint8_t x) {
   7:.\cpu.c       ****     return x < 128 ? x : x - 256;
   8:.\cpu.c       **** }
   9:.\cpu.c       **** 
  10:.\cpu.c       **** void reset_cpu(Cpu* cpu) {
  11:.\cpu.c       ****     cpu->inBios = true;
  12:.\cpu.c       ****     reset_memory(&cpu->mem);
  13:.\cpu.c       ****     reset_registers(&cpu->reg);
  14:.\cpu.c       **** }
  15:.\cpu.c       **** 
  16:.\cpu.c       **** static void increment_pc(Cpu* cpu){
  26              		.loc 1 16 0
  27              		.cfi_startproc
  28              		@ args = 0, pretend = 0, frame = 0
  29              		@ frame_needed = 0, uses_anonymous_args = 0
  30              		@ link register save eliminated.
  31              	.LVL0:
  17:.\cpu.c       ****     cpu->reg.pc++;
  32              		.loc 1 17 0
  33 0000 0389     		ldrh	r3, [r0, #8]
  34 0002 0133     		adds	r3, r3, #1
  35 0004 9BB2     		uxth	r3, r3
  36 0006 0381     		strh	r3, [r0, #8]	@ movhi
  18:.\cpu.c       ****     if (cpu->reg.pc == BIOS_SIZE && cpu->inBios) {
  37              		.loc 1 18 0
  38 0008 B3F5807F 		cmp	r3, #256
  39 000c 07D1     		bne	.L1
ARM GAS  C:\Users\raytr\AppData\Local\Temp\ccu8NuaS.s 			page 2


  40              		.loc 1 18 0 is_stmt 0 discriminator 1
  41 000e 44F20C03 		movw	r3, #16396
  42 0012 C35C     		ldrb	r3, [r0, r3]	@ zero_extendqisi2
  43 0014 1BB1     		cbz	r3, .L1
  19:.\cpu.c       ****         cpu->inBios = false;
  44              		.loc 1 19 0 is_stmt 1
  45 0016 0022     		movs	r2, #0
  46 0018 44F20C03 		movw	r3, #16396
  47 001c C254     		strb	r2, [r0, r3]
  48              	.L1:
  49 001e 7047     		bx	lr
  50              		.cfi_endproc
  51              	.LFE2:
  52              		.size	increment_pc, .-increment_pc
  53              		.section	.text.add_to_pc,"ax",%progbits
  54              		.align	2
  55              		.thumb
  56              		.thumb_func
  57              		.type	add_to_pc, %function
  58              	add_to_pc:
  59              	.LFB3:
  20:.\cpu.c       ****     }
  21:.\cpu.c       **** }
  22:.\cpu.c       **** 
  23:.\cpu.c       **** static void add_to_pc(Cpu* cpu, int8_t offset){
  60              		.loc 1 23 0
  61              		.cfi_startproc
  62              		@ args = 0, pretend = 0, frame = 0
  63              		@ frame_needed = 0, uses_anonymous_args = 0
  64              		@ link register save eliminated.
  65              	.LVL1:
  24:.\cpu.c       ****     if (offset < 0){
  66              		.loc 1 24 0
  67 0000 0029     		cmp	r1, #0
  68              	.LVL2:
  69 0002 03DA     		bge	.L4
  25:.\cpu.c       ****         cpu->reg.pc -= -offset;
  70              		.loc 1 25 0
  71 0004 0389     		ldrh	r3, [r0, #8]
  72 0006 1944     		add	r1, r1, r3
  73 0008 0181     		strh	r1, [r0, #8]	@ movhi
  74 000a 7047     		bx	lr
  75              	.L4:
  26:.\cpu.c       ****     }else{
  27:.\cpu.c       ****         cpu->reg.pc += offset;
  76              		.loc 1 27 0
  77 000c 0389     		ldrh	r3, [r0, #8]
  78 000e 1944     		add	r1, r1, r3
  79 0010 0181     		strh	r1, [r0, #8]	@ movhi
  80 0012 7047     		bx	lr
  81              		.cfi_endproc
  82              	.LFE3:
  83              		.size	add_to_pc, .-add_to_pc
  84              		.section	.text.fetch_and_increment_pc,"ax",%progbits
  85              		.align	2
  86              		.thumb
  87              		.thumb_func
ARM GAS  C:\Users\raytr\AppData\Local\Temp\ccu8NuaS.s 			page 3


  88              		.type	fetch_and_increment_pc, %function
  89              	fetch_and_increment_pc:
  90              	.LFB4:
  28:.\cpu.c       ****     }
  29:.\cpu.c       **** }
  30:.\cpu.c       **** 
  31:.\cpu.c       **** static uint8_t fetch_and_increment_pc(Cpu* cpu){
  91              		.loc 1 31 0
  92              		.cfi_startproc
  93              		@ args = 0, pretend = 0, frame = 0
  94              		@ frame_needed = 0, uses_anonymous_args = 0
  95              	.LVL3:
  96 0000 38B5     		push	{r3, r4, r5, lr}
  97              		.cfi_def_cfa_offset 16
  98              		.cfi_offset 3, -16
  99              		.cfi_offset 4, -12
 100              		.cfi_offset 5, -8
 101              		.cfi_offset 14, -4
 102 0002 0446     		mov	r4, r0
  32:.\cpu.c       ****     uint8_t data = fetch(&cpu->mem, cpu->reg.pc, cpu->inBios);
 103              		.loc 1 32 0
 104 0004 0C30     		adds	r0, r0, #12
 105              	.LVL4:
 106 0006 2189     		ldrh	r1, [r4, #8]
 107 0008 44F20C03 		movw	r3, #16396
 108 000c E25C     		ldrb	r2, [r4, r3]	@ zero_extendqisi2
 109 000e FFF7FEFF 		bl	fetch
 110              	.LVL5:
 111 0012 0546     		mov	r5, r0
 112              	.LVL6:
  33:.\cpu.c       ****     increment_pc(cpu);
 113              		.loc 1 33 0
 114 0014 2046     		mov	r0, r4
 115 0016 FFF7FEFF 		bl	increment_pc
 116              	.LVL7:
  34:.\cpu.c       ****     return data;
  35:.\cpu.c       **** }
 117              		.loc 1 35 0
 118 001a 2846     		mov	r0, r5
 119 001c 38BD     		pop	{r3, r4, r5, pc}
 120              		.cfi_endproc
 121              	.LFE4:
 122              		.size	fetch_and_increment_pc, .-fetch_and_increment_pc
 123 001e 00BF     		.section	.text.fetch_and_increment_pc_twice,"ax",%progbits
 124              		.align	2
 125              		.thumb
 126              		.thumb_func
 127              		.type	fetch_and_increment_pc_twice, %function
 128              	fetch_and_increment_pc_twice:
 129              	.LFB5:
  36:.\cpu.c       **** 
  37:.\cpu.c       **** static uint16_t fetch_and_increment_pc_twice(Cpu* cpu){
 130              		.loc 1 37 0
 131              		.cfi_startproc
 132              		@ args = 0, pretend = 0, frame = 0
 133              		@ frame_needed = 0, uses_anonymous_args = 0
 134              	.LVL8:
ARM GAS  C:\Users\raytr\AppData\Local\Temp\ccu8NuaS.s 			page 4


 135 0000 38B5     		push	{r3, r4, r5, lr}
 136              		.cfi_def_cfa_offset 16
 137              		.cfi_offset 3, -16
 138              		.cfi_offset 4, -12
 139              		.cfi_offset 5, -8
 140              		.cfi_offset 14, -4
 141 0002 0546     		mov	r5, r0
  38:.\cpu.c       ****     uint8_t lower = fetch_and_increment_pc(cpu);
 142              		.loc 1 38 0
 143 0004 FFF7FEFF 		bl	fetch_and_increment_pc
 144              	.LVL9:
 145 0008 0446     		mov	r4, r0
 146              	.LVL10:
  39:.\cpu.c       ****     uint8_t upper = fetch_and_increment_pc(cpu);
 147              		.loc 1 39 0
 148 000a 2846     		mov	r0, r5
 149 000c FFF7FEFF 		bl	fetch_and_increment_pc
 150              	.LVL11:
  40:.\cpu.c       ****     return (upper << 8) ^ lower;
 151              		.loc 1 40 0
 152 0010 84EA0020 		eor	r0, r4, r0, lsl #8
 153              	.LVL12:
  41:.\cpu.c       **** }
 154              		.loc 1 41 0
 155 0014 80B2     		uxth	r0, r0
 156 0016 38BD     		pop	{r3, r4, r5, pc}
 157              		.cfi_endproc
 158              	.LFE5:
 159              		.size	fetch_and_increment_pc_twice, .-fetch_and_increment_pc_twice
 160              		.section	.text.safe_convert,"ax",%progbits
 161              		.align	2
 162              		.global	safe_convert
 163              		.thumb
 164              		.thumb_func
 165              		.type	safe_convert, %function
 166              	safe_convert:
 167              	.LFB0:
   6:.\cpu.c       ****     return x < 128 ? x : x - 256;
 168              		.loc 1 6 0
 169              		.cfi_startproc
 170              		@ args = 0, pretend = 0, frame = 0
 171              		@ frame_needed = 0, uses_anonymous_args = 0
 172              		@ link register save eliminated.
 173              	.LVL13:
   8:.\cpu.c       **** 
 174              		.loc 1 8 0
 175 0000 40B2     		sxtb	r0, r0
 176 0002 7047     		bx	lr
 177              		.cfi_endproc
 178              	.LFE0:
 179              		.size	safe_convert, .-safe_convert
 180              		.section	.text.reset_cpu,"ax",%progbits
 181              		.align	2
 182              		.global	reset_cpu
 183              		.thumb
 184              		.thumb_func
 185              		.type	reset_cpu, %function
ARM GAS  C:\Users\raytr\AppData\Local\Temp\ccu8NuaS.s 			page 5


 186              	reset_cpu:
 187              	.LFB1:
  10:.\cpu.c       ****     cpu->inBios = true;
 188              		.loc 1 10 0
 189              		.cfi_startproc
 190              		@ args = 0, pretend = 0, frame = 0
 191              		@ frame_needed = 0, uses_anonymous_args = 0
 192              	.LVL14:
 193 0000 10B5     		push	{r4, lr}
 194              		.cfi_def_cfa_offset 8
 195              		.cfi_offset 4, -8
 196              		.cfi_offset 14, -4
 197 0002 0446     		mov	r4, r0
  11:.\cpu.c       ****     reset_memory(&cpu->mem);
 198              		.loc 1 11 0
 199 0004 0122     		movs	r2, #1
 200 0006 44F20C03 		movw	r3, #16396
 201 000a C254     		strb	r2, [r0, r3]
  12:.\cpu.c       ****     reset_registers(&cpu->reg);
 202              		.loc 1 12 0
 203 000c 0C30     		adds	r0, r0, #12
 204              	.LVL15:
 205 000e FFF7FEFF 		bl	reset_memory
 206              	.LVL16:
  13:.\cpu.c       **** }
 207              		.loc 1 13 0
 208 0012 2046     		mov	r0, r4
 209 0014 FFF7FEFF 		bl	reset_registers
 210              	.LVL17:
 211 0018 10BD     		pop	{r4, pc}
 212              		.cfi_endproc
 213              	.LFE1:
 214              		.size	reset_cpu, .-reset_cpu
 215 001a 00BF     		.section	.text.execute_normal,"ax",%progbits
 216              		.align	2
 217              		.global	execute_normal
 218              		.thumb
 219              		.thumb_func
 220              		.type	execute_normal, %function
 221              	execute_normal:
 222              	.LFB16:
  42:.\cpu.c       **** 
  43:.\cpu.c       **** // Returns the incremented value, adjusting flags if applicable
  44:.\cpu.c       **** static inline uint8_t inc_8t(Cpu* cpu, uint8_t value){
  45:.\cpu.c       ****     return value++;
  46:.\cpu.c       **** }
  47:.\cpu.c       **** static inline uint8_t dec_8t(Cpu* cpu, uint8_t value){
  48:.\cpu.c       ****     return value--;
  49:.\cpu.c       **** }
  50:.\cpu.c       **** 
  51:.\cpu.c       **** static inline uint8_t add_8t(Cpu* cpu, uint8_t a, uint8_t b){
  52:.\cpu.c       ****     return a+b;
  53:.\cpu.c       **** }
  54:.\cpu.c       **** 
  55:.\cpu.c       **** static inline uint8_t add_8t_with_carry(Cpu* cpu, uint8_t a, uint8_t b){
  56:.\cpu.c       ****     return a + b;
  57:.\cpu.c       **** }
ARM GAS  C:\Users\raytr\AppData\Local\Temp\ccu8NuaS.s 			page 6


  58:.\cpu.c       **** 
  59:.\cpu.c       **** static inline uint8_t sub_8t(Cpu* cpu, uint8_t a, uint8_t b){
  60:.\cpu.c       ****     return a-b;
  61:.\cpu.c       **** }
  62:.\cpu.c       **** 
  63:.\cpu.c       **** static inline uint8_t sub_8t_with_carry(Cpu* cpu, uint8_t a, uint8_t b){
  64:.\cpu.c       ****     return a - b;
  65:.\cpu.c       **** }
  66:.\cpu.c       **** 
  67:.\cpu.c       **** static inline uint8_t and_8t(Cpu* cpu, uint8_t a, uint8_t b){
  68:.\cpu.c       ****     return a & b;
  69:.\cpu.c       **** }
  70:.\cpu.c       **** 
  71:.\cpu.c       **** static inline uint8_t xor_8t(Cpu* cpu, uint8_t a, uint8_t b){
  72:.\cpu.c       ****     return a ^ b;
  73:.\cpu.c       **** }
  74:.\cpu.c       **** 
  75:.\cpu.c       **** static inline uint8_t or_8t(Cpu* cpu, uint8_t a, uint8_t b){
  76:.\cpu.c       ****     return a | b;
  77:.\cpu.c       **** }
  78:.\cpu.c       **** 
  79:.\cpu.c       **** static inline uint16_t add_16t(Cpu* cpu, uint16_t a, uint16_t b){
  80:.\cpu.c       ****     return a + b;
  81:.\cpu.c       **** }
  82:.\cpu.c       **** 
  83:.\cpu.c       **** // Assumes that the pc is already incremented to point to the next instr
  84:.\cpu.c       **** int execute_normal(Cpu* cpu, uint8_t instruction){
 223              		.loc 1 84 0
 224              		.cfi_startproc
 225              		@ args = 0, pretend = 0, frame = 0
 226              		@ frame_needed = 0, uses_anonymous_args = 0
 227              	.LVL18:
 228 0000 70B5     		push	{r4, r5, r6, lr}
 229              		.cfi_def_cfa_offset 16
 230              		.cfi_offset 4, -16
 231              		.cfi_offset 5, -12
 232              		.cfi_offset 6, -8
 233              		.cfi_offset 14, -4
 234 0002 0446     		mov	r4, r0
 235              	.LVL19:
  85:.\cpu.c       ****     int machine_cycles_taken = 0;
  86:.\cpu.c       ****     switch (instruction){
 236              		.loc 1 86 0
 237 0004 0139     		subs	r1, r1, #1
 238              	.LVL20:
 239 0006 FE29     		cmp	r1, #254
 240 0008 00F2C385 		bhi	.L214
 241 000c DFE811F0 		tbh	[pc, r1, lsl #1]
 242              	.L16:
 243 0010 0101     		.2byte	(.L15-.L16)/2
 244 0012 0A01     		.2byte	(.L17-.L16)/2
 245 0014 1101     		.2byte	(.L18-.L16)/2
 246 0016 C105     		.2byte	(.L214-.L16)/2
 247 0018 C105     		.2byte	(.L214-.L16)/2
 248 001a 1601     		.2byte	(.L19-.L16)/2
 249 001c FF00     		.2byte	(.L20-.L16)/2
 250 001e 1B01     		.2byte	(.L21-.L16)/2
ARM GAS  C:\Users\raytr\AppData\Local\Temp\ccu8NuaS.s 			page 7


 251 0020 2D01     		.2byte	(.L22-.L16)/2
 252 0022 3301     		.2byte	(.L23-.L16)/2
 253 0024 3D01     		.2byte	(.L24-.L16)/2
 254 0026 C105     		.2byte	(.L214-.L16)/2
 255 0028 C105     		.2byte	(.L214-.L16)/2
 256 002a 4201     		.2byte	(.L25-.L16)/2
 257 002c FF00     		.2byte	(.L20-.L16)/2
 258 002e C105     		.2byte	(.L214-.L16)/2
 259 0030 4701     		.2byte	(.L26-.L16)/2
 260 0032 5001     		.2byte	(.L27-.L16)/2
 261 0034 5701     		.2byte	(.L28-.L16)/2
 262 0036 C105     		.2byte	(.L214-.L16)/2
 263 0038 C105     		.2byte	(.L214-.L16)/2
 264 003a 5C01     		.2byte	(.L29-.L16)/2
 265 003c FF00     		.2byte	(.L20-.L16)/2
 266 003e 6101     		.2byte	(.L30-.L16)/2
 267 0040 6B01     		.2byte	(.L31-.L16)/2
 268 0042 7101     		.2byte	(.L32-.L16)/2
 269 0044 7B01     		.2byte	(.L33-.L16)/2
 270 0046 C105     		.2byte	(.L214-.L16)/2
 271 0048 C105     		.2byte	(.L214-.L16)/2
 272 004a 8001     		.2byte	(.L34-.L16)/2
 273 004c FF00     		.2byte	(.L20-.L16)/2
 274 004e 8501     		.2byte	(.L35-.L16)/2
 275 0050 9601     		.2byte	(.L36-.L16)/2
 276 0052 9F01     		.2byte	(.L37-.L16)/2
 277 0054 A901     		.2byte	(.L38-.L16)/2
 278 0056 C105     		.2byte	(.L214-.L16)/2
 279 0058 C105     		.2byte	(.L214-.L16)/2
 280 005a AE01     		.2byte	(.L39-.L16)/2
 281 005c FF00     		.2byte	(.L20-.L16)/2
 282 005e B301     		.2byte	(.L40-.L16)/2
 283 0060 C401     		.2byte	(.L41-.L16)/2
 284 0062 C901     		.2byte	(.L42-.L16)/2
 285 0064 D601     		.2byte	(.L43-.L16)/2
 286 0066 C105     		.2byte	(.L214-.L16)/2
 287 0068 C105     		.2byte	(.L214-.L16)/2
 288 006a DB01     		.2byte	(.L44-.L16)/2
 289 006c FF00     		.2byte	(.L20-.L16)/2
 290 006e E001     		.2byte	(.L45-.L16)/2
 291 0070 F101     		.2byte	(.L46-.L16)/2
 292 0072 F601     		.2byte	(.L47-.L16)/2
 293 0074 0002     		.2byte	(.L48-.L16)/2
 294 0076 FF00     		.2byte	(.L20-.L16)/2
 295 0078 FF00     		.2byte	(.L20-.L16)/2
 296 007a 0502     		.2byte	(.L49-.L16)/2
 297 007c FF00     		.2byte	(.L20-.L16)/2
 298 007e 1002     		.2byte	(.L50-.L16)/2
 299 0080 2102     		.2byte	(.L51-.L16)/2
 300 0082 2702     		.2byte	(.L52-.L16)/2
 301 0084 3402     		.2byte	(.L53-.L16)/2
 302 0086 C105     		.2byte	(.L214-.L16)/2
 303 0088 C105     		.2byte	(.L214-.L16)/2
 304 008a 3902     		.2byte	(.L54-.L16)/2
 305 008c FF00     		.2byte	(.L20-.L16)/2
 306 008e C105     		.2byte	(.L214-.L16)/2
 307 0090 3E02     		.2byte	(.L55-.L16)/2
ARM GAS  C:\Users\raytr\AppData\Local\Temp\ccu8NuaS.s 			page 8


 308 0092 4202     		.2byte	(.L56-.L16)/2
 309 0094 4602     		.2byte	(.L57-.L16)/2
 310 0096 4A02     		.2byte	(.L58-.L16)/2
 311 0098 4E02     		.2byte	(.L59-.L16)/2
 312 009a 5202     		.2byte	(.L60-.L16)/2
 313 009c 5C02     		.2byte	(.L61-.L16)/2
 314 009e 6002     		.2byte	(.L62-.L16)/2
 315 00a0 C105     		.2byte	(.L214-.L16)/2
 316 00a2 6402     		.2byte	(.L63-.L16)/2
 317 00a4 6802     		.2byte	(.L64-.L16)/2
 318 00a6 6C02     		.2byte	(.L65-.L16)/2
 319 00a8 7002     		.2byte	(.L66-.L16)/2
 320 00aa 7402     		.2byte	(.L67-.L16)/2
 321 00ac 7E02     		.2byte	(.L68-.L16)/2
 322 00ae 8202     		.2byte	(.L69-.L16)/2
 323 00b0 8602     		.2byte	(.L70-.L16)/2
 324 00b2 C105     		.2byte	(.L214-.L16)/2
 325 00b4 8A02     		.2byte	(.L71-.L16)/2
 326 00b6 8E02     		.2byte	(.L72-.L16)/2
 327 00b8 9202     		.2byte	(.L73-.L16)/2
 328 00ba 9602     		.2byte	(.L74-.L16)/2
 329 00bc A002     		.2byte	(.L75-.L16)/2
 330 00be A402     		.2byte	(.L76-.L16)/2
 331 00c0 A802     		.2byte	(.L77-.L16)/2
 332 00c2 AC02     		.2byte	(.L78-.L16)/2
 333 00c4 C105     		.2byte	(.L214-.L16)/2
 334 00c6 B002     		.2byte	(.L79-.L16)/2
 335 00c8 B402     		.2byte	(.L80-.L16)/2
 336 00ca B802     		.2byte	(.L81-.L16)/2
 337 00cc C202     		.2byte	(.L82-.L16)/2
 338 00ce C602     		.2byte	(.L83-.L16)/2
 339 00d0 CA02     		.2byte	(.L84-.L16)/2
 340 00d2 CE02     		.2byte	(.L85-.L16)/2
 341 00d4 D202     		.2byte	(.L86-.L16)/2
 342 00d6 C105     		.2byte	(.L214-.L16)/2
 343 00d8 D602     		.2byte	(.L87-.L16)/2
 344 00da DA02     		.2byte	(.L88-.L16)/2
 345 00dc E402     		.2byte	(.L89-.L16)/2
 346 00de E802     		.2byte	(.L90-.L16)/2
 347 00e0 EC02     		.2byte	(.L91-.L16)/2
 348 00e2 F002     		.2byte	(.L92-.L16)/2
 349 00e4 F402     		.2byte	(.L93-.L16)/2
 350 00e6 F802     		.2byte	(.L94-.L16)/2
 351 00e8 C105     		.2byte	(.L214-.L16)/2
 352 00ea FC02     		.2byte	(.L95-.L16)/2
 353 00ec 0603     		.2byte	(.L96-.L16)/2
 354 00ee 0A03     		.2byte	(.L97-.L16)/2
 355 00f0 1103     		.2byte	(.L98-.L16)/2
 356 00f2 1803     		.2byte	(.L99-.L16)/2
 357 00f4 1F03     		.2byte	(.L100-.L16)/2
 358 00f6 2603     		.2byte	(.L101-.L16)/2
 359 00f8 2D03     		.2byte	(.L102-.L16)/2
 360 00fa FF00     		.2byte	(.L20-.L16)/2
 361 00fc 3403     		.2byte	(.L103-.L16)/2
 362 00fe 3B03     		.2byte	(.L104-.L16)/2
 363 0100 3F03     		.2byte	(.L105-.L16)/2
 364 0102 4303     		.2byte	(.L106-.L16)/2
ARM GAS  C:\Users\raytr\AppData\Local\Temp\ccu8NuaS.s 			page 9


 365 0104 4703     		.2byte	(.L107-.L16)/2
 366 0106 4B03     		.2byte	(.L108-.L16)/2
 367 0108 4F03     		.2byte	(.L109-.L16)/2
 368 010a 5303     		.2byte	(.L110-.L16)/2
 369 010c C105     		.2byte	(.L214-.L16)/2
 370 010e 5D03     		.2byte	(.L111-.L16)/2
 371 0110 6303     		.2byte	(.L112-.L16)/2
 372 0112 6903     		.2byte	(.L113-.L16)/2
 373 0114 6F03     		.2byte	(.L114-.L16)/2
 374 0116 7503     		.2byte	(.L115-.L16)/2
 375 0118 7B03     		.2byte	(.L116-.L16)/2
 376 011a 8103     		.2byte	(.L117-.L16)/2
 377 011c 8D03     		.2byte	(.L118-.L16)/2
 378 011e 9203     		.2byte	(.L119-.L16)/2
 379 0120 9803     		.2byte	(.L120-.L16)/2
 380 0122 9E03     		.2byte	(.L121-.L16)/2
 381 0124 A403     		.2byte	(.L122-.L16)/2
 382 0126 AA03     		.2byte	(.L123-.L16)/2
 383 0128 B003     		.2byte	(.L124-.L16)/2
 384 012a B603     		.2byte	(.L125-.L16)/2
 385 012c C203     		.2byte	(.L126-.L16)/2
 386 012e C703     		.2byte	(.L127-.L16)/2
 387 0130 CD03     		.2byte	(.L128-.L16)/2
 388 0132 D303     		.2byte	(.L129-.L16)/2
 389 0134 D903     		.2byte	(.L130-.L16)/2
 390 0136 DF03     		.2byte	(.L131-.L16)/2
 391 0138 E503     		.2byte	(.L132-.L16)/2
 392 013a EB03     		.2byte	(.L133-.L16)/2
 393 013c F703     		.2byte	(.L134-.L16)/2
 394 013e FB03     		.2byte	(.L135-.L16)/2
 395 0140 0104     		.2byte	(.L136-.L16)/2
 396 0142 0704     		.2byte	(.L137-.L16)/2
 397 0144 0D04     		.2byte	(.L138-.L16)/2
 398 0146 1304     		.2byte	(.L139-.L16)/2
 399 0148 1904     		.2byte	(.L140-.L16)/2
 400 014a 1F04     		.2byte	(.L141-.L16)/2
 401 014c 2B04     		.2byte	(.L142-.L16)/2
 402 014e 2F04     		.2byte	(.L143-.L16)/2
 403 0150 3504     		.2byte	(.L144-.L16)/2
 404 0152 3B04     		.2byte	(.L145-.L16)/2
 405 0154 4104     		.2byte	(.L146-.L16)/2
 406 0156 4704     		.2byte	(.L147-.L16)/2
 407 0158 4D04     		.2byte	(.L148-.L16)/2
 408 015a 5304     		.2byte	(.L149-.L16)/2
 409 015c C105     		.2byte	(.L214-.L16)/2
 410 015e 5F04     		.2byte	(.L150-.L16)/2
 411 0160 6504     		.2byte	(.L151-.L16)/2
 412 0162 6B04     		.2byte	(.L152-.L16)/2
 413 0164 7104     		.2byte	(.L153-.L16)/2
 414 0166 7704     		.2byte	(.L154-.L16)/2
 415 0168 7D04     		.2byte	(.L155-.L16)/2
 416 016a 8304     		.2byte	(.L156-.L16)/2
 417 016c 8F04     		.2byte	(.L157-.L16)/2
 418 016e 9304     		.2byte	(.L158-.L16)/2
 419 0170 9904     		.2byte	(.L159-.L16)/2
 420 0172 9F04     		.2byte	(.L160-.L16)/2
 421 0174 A504     		.2byte	(.L161-.L16)/2
ARM GAS  C:\Users\raytr\AppData\Local\Temp\ccu8NuaS.s 			page 10


 422 0176 AB04     		.2byte	(.L162-.L16)/2
 423 0178 B104     		.2byte	(.L163-.L16)/2
 424 017a B704     		.2byte	(.L164-.L16)/2
 425 017c C105     		.2byte	(.L214-.L16)/2
 426 017e C105     		.2byte	(.L214-.L16)/2
 427 0180 C105     		.2byte	(.L214-.L16)/2
 428 0182 C105     		.2byte	(.L214-.L16)/2
 429 0184 C105     		.2byte	(.L214-.L16)/2
 430 0186 C105     		.2byte	(.L214-.L16)/2
 431 0188 C105     		.2byte	(.L214-.L16)/2
 432 018a C304     		.2byte	(.L165-.L16)/2
 433 018c C105     		.2byte	(.L214-.L16)/2
 434 018e CC04     		.2byte	(.L166-.L16)/2
 435 0190 CE04     		.2byte	(.L167-.L16)/2
 436 0192 D004     		.2byte	(.L168-.L16)/2
 437 0194 DC04     		.2byte	(.L169-.L16)/2
 438 0196 E104     		.2byte	(.L170-.L16)/2
 439 0198 E804     		.2byte	(.L171-.L16)/2
 440 019a EA04     		.2byte	(.L172-.L16)/2
 441 019c F104     		.2byte	(.L173-.L16)/2
 442 019e F304     		.2byte	(.L174-.L16)/2
 443 01a0 FF00     		.2byte	(.L20-.L16)/2
 444 01a2 F504     		.2byte	(.L175-.L16)/2
 445 01a4 C105     		.2byte	(.L214-.L16)/2
 446 01a6 F704     		.2byte	(.L176-.L16)/2
 447 01a8 F904     		.2byte	(.L177-.L16)/2
 448 01aa FB04     		.2byte	(.L178-.L16)/2
 449 01ac FD04     		.2byte	(.L179-.L16)/2
 450 01ae FF04     		.2byte	(.L180-.L16)/2
 451 01b0 0105     		.2byte	(.L181-.L16)/2
 452 01b2 0305     		.2byte	(.L182-.L16)/2
 453 01b4 C105     		.2byte	(.L214-.L16)/2
 454 01b6 0F05     		.2byte	(.L183-.L16)/2
 455 01b8 1105     		.2byte	(.L184-.L16)/2
 456 01ba 1305     		.2byte	(.L185-.L16)/2
 457 01bc 1A05     		.2byte	(.L186-.L16)/2
 458 01be 1C05     		.2byte	(.L187-.L16)/2
 459 01c0 1E05     		.2byte	(.L188-.L16)/2
 460 01c2 2005     		.2byte	(.L189-.L16)/2
 461 01c4 C105     		.2byte	(.L214-.L16)/2
 462 01c6 2C05     		.2byte	(.L190-.L16)/2
 463 01c8 C105     		.2byte	(.L214-.L16)/2
 464 01ca 2E05     		.2byte	(.L191-.L16)/2
 465 01cc 3505     		.2byte	(.L192-.L16)/2
 466 01ce 3705     		.2byte	(.L193-.L16)/2
 467 01d0 4305     		.2byte	(.L194-.L16)/2
 468 01d2 4505     		.2byte	(.L195-.L16)/2
 469 01d4 C105     		.2byte	(.L214-.L16)/2
 470 01d6 C105     		.2byte	(.L214-.L16)/2
 471 01d8 4F05     		.2byte	(.L196-.L16)/2
 472 01da 5105     		.2byte	(.L197-.L16)/2
 473 01dc 5805     		.2byte	(.L198-.L16)/2
 474 01de 5A05     		.2byte	(.L199-.L16)/2
 475 01e0 C105     		.2byte	(.L214-.L16)/2
 476 01e2 6405     		.2byte	(.L200-.L16)/2
 477 01e4 C105     		.2byte	(.L214-.L16)/2
 478 01e6 C105     		.2byte	(.L214-.L16)/2
ARM GAS  C:\Users\raytr\AppData\Local\Temp\ccu8NuaS.s 			page 11


 479 01e8 C105     		.2byte	(.L214-.L16)/2
 480 01ea 6E05     		.2byte	(.L201-.L16)/2
 481 01ec 7505     		.2byte	(.L202-.L16)/2
 482 01ee 7705     		.2byte	(.L203-.L16)/2
 483 01f0 8605     		.2byte	(.L204-.L16)/2
 484 01f2 8805     		.2byte	(.L205-.L16)/2
 485 01f4 C105     		.2byte	(.L214-.L16)/2
 486 01f6 C105     		.2byte	(.L214-.L16)/2
 487 01f8 9505     		.2byte	(.L206-.L16)/2
 488 01fa 9705     		.2byte	(.L207-.L16)/2
 489 01fc 9E05     		.2byte	(.L208-.L16)/2
 490 01fe A005     		.2byte	(.L209-.L16)/2
 491 0200 AA05     		.2byte	(.L210-.L16)/2
 492 0202 AE05     		.2byte	(.L211-.L16)/2
 493 0204 C105     		.2byte	(.L214-.L16)/2
 494 0206 C105     		.2byte	(.L214-.L16)/2
 495 0208 C105     		.2byte	(.L214-.L16)/2
 496 020a BB05     		.2byte	(.L212-.L16)/2
 497 020c BF05     		.2byte	(.L213-.L16)/2
 498              		.p2align 1
 499              	.L20:
  85:.\cpu.c       ****     int machine_cycles_taken = 0;
 500              		.loc 1 85 0
 501 020e 0020     		movs	r0, #0
 502              	.LVL21:
 503 0210 70BD     		pop	{r4, r5, r6, pc}
 504              	.LVL22:
 505              	.L15:
 506              	.LBB181:
  87:.\cpu.c       ****         case 0x00:  // NOP
  88:.\cpu.c       ****         machine_cycles_taken = 1;
  89:.\cpu.c       ****         break;
  90:.\cpu.c       ****         case 0x01:  // LD BC,u16
  91:.\cpu.c       ****         machine_cycles_taken = 3;
  92:.\cpu.c       ****         cpu->reg.c = fetch_and_increment_pc(cpu);
 507              		.loc 1 92 0
 508 0212 FFF7FEFF 		bl	fetch_and_increment_pc
 509              	.LVL23:
 510 0216 A070     		strb	r0, [r4, #2]
  93:.\cpu.c       ****         cpu->reg.b = fetch_and_increment_pc(cpu);
 511              		.loc 1 93 0
 512 0218 2046     		mov	r0, r4
 513 021a FFF7FEFF 		bl	fetch_and_increment_pc
 514              	.LVL24:
 515 021e E070     		strb	r0, [r4, #3]
  91:.\cpu.c       ****         cpu->reg.c = fetch_and_increment_pc(cpu);
 516              		.loc 1 91 0
 517 0220 0320     		movs	r0, #3
  94:.\cpu.c       ****         break;
 518              		.loc 1 94 0
 519 0222 70BD     		pop	{r4, r5, r6, pc}
 520              	.LVL25:
 521              	.L17:
  95:.\cpu.c       ****         case 0x02:  // LD (BC),A 
  96:.\cpu.c       ****         machine_cycles_taken = 2;
  97:.\cpu.c       ****         write_mem(&cpu->mem, cpu->reg.bc, cpu->reg.a);
 522              		.loc 1 97 0
ARM GAS  C:\Users\raytr\AppData\Local\Temp\ccu8NuaS.s 			page 12


 523 0224 0C30     		adds	r0, r0, #12
 524              	.LVL26:
 525 0226 6188     		ldrh	r1, [r4, #2]
 526 0228 6278     		ldrb	r2, [r4, #1]	@ zero_extendqisi2
 527 022a FFF7FEFF 		bl	write_mem
 528              	.LVL27:
  96:.\cpu.c       ****         write_mem(&cpu->mem, cpu->reg.bc, cpu->reg.a);
 529              		.loc 1 96 0
 530 022e 0220     		movs	r0, #2
  98:.\cpu.c       ****         break;
 531              		.loc 1 98 0
 532 0230 70BD     		pop	{r4, r5, r6, pc}
 533              	.LVL28:
 534              	.L18:
  99:.\cpu.c       ****         case 0x03:  // INC BC
 100:.\cpu.c       ****         machine_cycles_taken = 2;
 101:.\cpu.c       ****         cpu->reg.bc++;  // note this inc does not set flags
 535              		.loc 1 101 0
 536 0232 4388     		ldrh	r3, [r0, #2]
 537 0234 0133     		adds	r3, r3, #1
 538 0236 4380     		strh	r3, [r0, #2]	@ movhi
 100:.\cpu.c       ****         cpu->reg.bc++;  // note this inc does not set flags
 539              		.loc 1 100 0
 540 0238 0220     		movs	r0, #2
 541              	.LVL29:
 102:.\cpu.c       ****         break;
 542              		.loc 1 102 0
 543 023a 70BD     		pop	{r4, r5, r6, pc}
 544              	.LVL30:
 545              	.L19:
 103:.\cpu.c       ****         case 0x04:  // INC B
 104:.\cpu.c       ****         machine_cycles_taken = 1;
 105:.\cpu.c       ****         cpu->reg.b = inc_8t(cpu, cpu->reg.b);
 106:.\cpu.c       ****         break;
 107:.\cpu.c       ****         case 0x05:  // DEC B
 108:.\cpu.c       ****         machine_cycles_taken = 1;
 109:.\cpu.c       ****         cpu->reg.b = dec_8t(cpu, cpu->reg.b);
 110:.\cpu.c       ****         break;
 111:.\cpu.c       ****         case 0x06:  // LD B,u8
 112:.\cpu.c       ****         machine_cycles_taken = 2;
 113:.\cpu.c       ****         cpu->reg.b = fetch_and_increment_pc(cpu);
 546              		.loc 1 113 0
 547 023c FFF7FEFF 		bl	fetch_and_increment_pc
 548              	.LVL31:
 549 0240 E070     		strb	r0, [r4, #3]
 112:.\cpu.c       ****         cpu->reg.b = fetch_and_increment_pc(cpu);
 550              		.loc 1 112 0
 551 0242 0220     		movs	r0, #2
 114:.\cpu.c       ****         break;
 552              		.loc 1 114 0
 553 0244 70BD     		pop	{r4, r5, r6, pc}
 554              	.LVL32:
 555              	.L21:
 115:.\cpu.c       ****         case 0x07:  // RLCA - 0x07
 116:.\cpu.c       ****         //@@@@@@@@@@@@@@@@@@@@@@@@@@@@@@@@@@@@@@@@@@@@@@@@@@@@@@@ TODO
 117:.\cpu.c       ****         break;
 118:.\cpu.c       ****         case 0x08:  // LD (u16),SP
ARM GAS  C:\Users\raytr\AppData\Local\Temp\ccu8NuaS.s 			page 13


 119:.\cpu.c       ****         machine_cycles_taken = 5;
 120:.\cpu.c       ****         uint16_t ldu16sp_addr = fetch_and_increment_pc_twice(cpu);
 556              		.loc 1 120 0
 557 0246 FFF7FEFF 		bl	fetch_and_increment_pc_twice
 558              	.LVL33:
 559 024a 0546     		mov	r5, r0
 560              	.LVL34:
 121:.\cpu.c       ****         write_mem(&cpu->mem, ldu16sp_addr, cpu->reg.sp & 0x00FF);
 561              		.loc 1 121 0
 562 024c 04F10C06 		add	r6, r4, #12
 563 0250 3046     		mov	r0, r6
 564 0252 2946     		mov	r1, r5
 565 0254 A27A     		ldrb	r2, [r4, #10]	@ zero_extendqisi2
 566 0256 FFF7FEFF 		bl	write_mem
 567              	.LVL35:
 122:.\cpu.c       ****         write_mem(&cpu->mem, ldu16sp_addr + 1, cpu->reg.sp & 0xFF00);
 568              		.loc 1 122 0
 569 025a 691C     		adds	r1, r5, #1
 570 025c 3046     		mov	r0, r6
 571 025e 89B2     		uxth	r1, r1
 572 0260 0022     		movs	r2, #0
 573 0262 FFF7FEFF 		bl	write_mem
 574              	.LVL36:
 119:.\cpu.c       ****         uint16_t ldu16sp_addr = fetch_and_increment_pc_twice(cpu);
 575              		.loc 1 119 0
 576 0266 0520     		movs	r0, #5
 123:.\cpu.c       ****         break;
 577              		.loc 1 123 0
 578 0268 70BD     		pop	{r4, r5, r6, pc}
 579              	.LVL37:
 580              	.L22:
 124:.\cpu.c       ****         case 0x09: // ADD HL,BC
 125:.\cpu.c       ****         machine_cycles_taken = 2;
 126:.\cpu.c       ****         cpu->reg.hl = add_16t(cpu, cpu->reg.hl, cpu->reg.bc);
 581              		.loc 1 126 0
 582 026a C288     		ldrh	r2, [r0, #6]
 583 026c 4388     		ldrh	r3, [r0, #2]
 584              	.LVL38:
 585              	.LBB182:
 586              	.LBB183:
  80:.\cpu.c       **** }
 587              		.loc 1 80 0
 588 026e 1344     		add	r3, r3, r2
 589              	.LVL39:
 590              	.LBE183:
 591              	.LBE182:
 592              		.loc 1 126 0
 593 0270 C380     		strh	r3, [r0, #6]	@ movhi
 125:.\cpu.c       ****         cpu->reg.hl = add_16t(cpu, cpu->reg.hl, cpu->reg.bc);
 594              		.loc 1 125 0
 595 0272 0220     		movs	r0, #2
 596              	.LVL40:
 127:.\cpu.c       ****         break;
 597              		.loc 1 127 0
 598 0274 70BD     		pop	{r4, r5, r6, pc}
 599              	.LVL41:
 600              	.L23:
ARM GAS  C:\Users\raytr\AppData\Local\Temp\ccu8NuaS.s 			page 14


 128:.\cpu.c       ****         case 0x0A: // LD A,(BC)
 129:.\cpu.c       ****         machine_cycles_taken = 2;
 130:.\cpu.c       ****         cpu->reg.a = fetch(&cpu->mem, cpu->reg.bc, cpu->inBios);
 601              		.loc 1 130 0
 602 0276 0C30     		adds	r0, r0, #12
 603              	.LVL42:
 604 0278 6188     		ldrh	r1, [r4, #2]
 605 027a 44F20C03 		movw	r3, #16396
 606 027e E25C     		ldrb	r2, [r4, r3]	@ zero_extendqisi2
 607 0280 FFF7FEFF 		bl	fetch
 608              	.LVL43:
 609 0284 6070     		strb	r0, [r4, #1]
 129:.\cpu.c       ****         cpu->reg.a = fetch(&cpu->mem, cpu->reg.bc, cpu->inBios);
 610              		.loc 1 129 0
 611 0286 0220     		movs	r0, #2
 131:.\cpu.c       ****         break;     
 612              		.loc 1 131 0
 613 0288 70BD     		pop	{r4, r5, r6, pc}
 614              	.LVL44:
 615              	.L24:
 132:.\cpu.c       ****         case 0x0B: // DEC BC
 133:.\cpu.c       ****         machine_cycles_taken = 2;
 134:.\cpu.c       ****         cpu->reg.bc--;  
 616              		.loc 1 134 0
 617 028a 4388     		ldrh	r3, [r0, #2]
 618 028c 013B     		subs	r3, r3, #1
 619 028e 4380     		strh	r3, [r0, #2]	@ movhi
 133:.\cpu.c       ****         cpu->reg.bc--;  
 620              		.loc 1 133 0
 621 0290 0220     		movs	r0, #2
 622              	.LVL45:
 135:.\cpu.c       ****         break;
 623              		.loc 1 135 0
 624 0292 70BD     		pop	{r4, r5, r6, pc}
 625              	.LVL46:
 626              	.L25:
 136:.\cpu.c       ****         case 0x0C: // INC C
 137:.\cpu.c       ****         machine_cycles_taken = 1;
 138:.\cpu.c       ****         cpu->reg.c = inc_8t(cpu, cpu->reg.c);
 139:.\cpu.c       ****         break;
 140:.\cpu.c       ****         case 0x0D: // DEC C
 141:.\cpu.c       ****         machine_cycles_taken = 1;
 142:.\cpu.c       ****         cpu->reg.c = dec_8t(cpu, cpu->reg.c);
 143:.\cpu.c       ****         break;
 144:.\cpu.c       ****         case 0x0E: // LD C,u8
 145:.\cpu.c       ****         machine_cycles_taken = 2;
 146:.\cpu.c       ****         cpu->reg.c = fetch_and_increment_pc(cpu);
 627              		.loc 1 146 0
 628 0294 FFF7FEFF 		bl	fetch_and_increment_pc
 629              	.LVL47:
 630 0298 A070     		strb	r0, [r4, #2]
 145:.\cpu.c       ****         cpu->reg.c = fetch_and_increment_pc(cpu);
 631              		.loc 1 145 0
 632 029a 0220     		movs	r0, #2
 147:.\cpu.c       ****         break;
 633              		.loc 1 147 0
 634 029c 70BD     		pop	{r4, r5, r6, pc}
ARM GAS  C:\Users\raytr\AppData\Local\Temp\ccu8NuaS.s 			page 15


 635              	.LVL48:
 636              	.L26:
 148:.\cpu.c       ****         case 0x0F: //RRCA 
 149:.\cpu.c       ****         //@@@@@@@@@@@@@@@@@@@@@@@@@@@@@@@@@@@@@@@@@@@@@@@@@@@@@@@@@@@@@@@@@@@@
 150:.\cpu.c       ****         break;   
 151:.\cpu.c       ****         case 0x10: //STOP
 152:.\cpu.c       ****         machine_cycles_taken = 1;
 153:.\cpu.c       ****         //don't actually stop..
 154:.\cpu.c       ****         break;
 155:.\cpu.c       ****         case 0x11: //LD DE,u16
 156:.\cpu.c       ****         machine_cycles_taken = 3;
 157:.\cpu.c       ****         cpu->reg.e = fetch_and_increment_pc(cpu);
 637              		.loc 1 157 0
 638 029e FFF7FEFF 		bl	fetch_and_increment_pc
 639              	.LVL49:
 640 02a2 2071     		strb	r0, [r4, #4]
 158:.\cpu.c       ****         cpu->reg.d = fetch_and_increment_pc(cpu); 
 641              		.loc 1 158 0
 642 02a4 2046     		mov	r0, r4
 643 02a6 FFF7FEFF 		bl	fetch_and_increment_pc
 644              	.LVL50:
 645 02aa 6071     		strb	r0, [r4, #5]
 156:.\cpu.c       ****         cpu->reg.e = fetch_and_increment_pc(cpu);
 646              		.loc 1 156 0
 647 02ac 0320     		movs	r0, #3
 159:.\cpu.c       ****         break;
 648              		.loc 1 159 0
 649 02ae 70BD     		pop	{r4, r5, r6, pc}
 650              	.LVL51:
 651              	.L27:
 160:.\cpu.c       ****         case 0x12:  //LD (DE),A
 161:.\cpu.c       ****         machine_cycles_taken = 2;
 162:.\cpu.c       ****         write_mem(&cpu->mem, cpu->reg.de, cpu->reg.a);
 652              		.loc 1 162 0
 653 02b0 0C30     		adds	r0, r0, #12
 654              	.LVL52:
 655 02b2 A188     		ldrh	r1, [r4, #4]
 656 02b4 6278     		ldrb	r2, [r4, #1]	@ zero_extendqisi2
 657 02b6 FFF7FEFF 		bl	write_mem
 658              	.LVL53:
 161:.\cpu.c       ****         write_mem(&cpu->mem, cpu->reg.de, cpu->reg.a);
 659              		.loc 1 161 0
 660 02ba 0220     		movs	r0, #2
 163:.\cpu.c       ****         break;
 661              		.loc 1 163 0
 662 02bc 70BD     		pop	{r4, r5, r6, pc}
 663              	.LVL54:
 664              	.L28:
 164:.\cpu.c       ****         case 0x13:  //INC DE
 165:.\cpu.c       ****         machine_cycles_taken = 2;
 166:.\cpu.c       ****         cpu->reg.de++;
 665              		.loc 1 166 0
 666 02be 8388     		ldrh	r3, [r0, #4]
 667 02c0 0133     		adds	r3, r3, #1
 668 02c2 8380     		strh	r3, [r0, #4]	@ movhi
 165:.\cpu.c       ****         cpu->reg.de++;
 669              		.loc 1 165 0
ARM GAS  C:\Users\raytr\AppData\Local\Temp\ccu8NuaS.s 			page 16


 670 02c4 0220     		movs	r0, #2
 671              	.LVL55:
 167:.\cpu.c       ****         break;
 672              		.loc 1 167 0
 673 02c6 70BD     		pop	{r4, r5, r6, pc}
 674              	.LVL56:
 675              	.L29:
 168:.\cpu.c       ****         case 0x14:  //INC D
 169:.\cpu.c       ****         machine_cycles_taken = 1;
 170:.\cpu.c       ****         cpu->reg.d = inc_8t(cpu, cpu->reg.d);
 171:.\cpu.c       ****         break;
 172:.\cpu.c       ****         case 0x15:  //DEC D
 173:.\cpu.c       ****         machine_cycles_taken = 1;
 174:.\cpu.c       ****         cpu->reg.d = dec_8t(cpu, cpu->reg.d);
 175:.\cpu.c       ****         break;
 176:.\cpu.c       ****         case 0x16:  //LD D, u8
 177:.\cpu.c       ****         machine_cycles_taken = 2;
 178:.\cpu.c       ****         cpu->reg.d = fetch_and_increment_pc(cpu);
 676              		.loc 1 178 0
 677 02c8 FFF7FEFF 		bl	fetch_and_increment_pc
 678              	.LVL57:
 679 02cc 6071     		strb	r0, [r4, #5]
 177:.\cpu.c       ****         cpu->reg.d = fetch_and_increment_pc(cpu);
 680              		.loc 1 177 0
 681 02ce 0220     		movs	r0, #2
 179:.\cpu.c       ****         break;
 682              		.loc 1 179 0
 683 02d0 70BD     		pop	{r4, r5, r6, pc}
 684              	.LVL58:
 685              	.L30:
 180:.\cpu.c       ****         case 0x17:  //RLA 
 181:.\cpu.c       ****         //@@@@@@@@@@@@@@@@@@@@@@@@@@@@@@@@@@@@@@@@@@@@@@@@@@@@@@@@
 182:.\cpu.c       ****         break;
 183:.\cpu.c       ****         case 0x18:  //JR i8
 184:.\cpu.c       ****         machine_cycles_taken = 3;
 185:.\cpu.c       ****         int8_t jri8_offset = safe_convert(fetch_and_increment_pc(cpu));
 686              		.loc 1 185 0
 687 02d2 FFF7FEFF 		bl	fetch_and_increment_pc
 688              	.LVL59:
 689 02d6 FFF7FEFF 		bl	safe_convert
 690              	.LVL60:
 691 02da 0146     		mov	r1, r0
 692              	.LVL61:
 186:.\cpu.c       ****         add_to_pc(cpu, jri8_offset);
 693              		.loc 1 186 0
 694 02dc 2046     		mov	r0, r4
 695 02de FFF7FEFF 		bl	add_to_pc
 696              	.LVL62:
 184:.\cpu.c       ****         int8_t jri8_offset = safe_convert(fetch_and_increment_pc(cpu));
 697              		.loc 1 184 0
 698 02e2 0320     		movs	r0, #3
 187:.\cpu.c       ****         break;
 699              		.loc 1 187 0
 700 02e4 70BD     		pop	{r4, r5, r6, pc}
 701              	.LVL63:
 702              	.L31:
 188:.\cpu.c       ****         case 0x19:  //ADD HL,DE
ARM GAS  C:\Users\raytr\AppData\Local\Temp\ccu8NuaS.s 			page 17


 189:.\cpu.c       ****         machine_cycles_taken = 2;
 190:.\cpu.c       ****         cpu->reg.hl = add_16t(cpu, cpu->reg.hl, cpu->reg.de);
 703              		.loc 1 190 0
 704 02e6 C288     		ldrh	r2, [r0, #6]
 705 02e8 8388     		ldrh	r3, [r0, #4]
 706              	.LVL64:
 707              	.LBB184:
 708              	.LBB185:
  80:.\cpu.c       **** }
 709              		.loc 1 80 0
 710 02ea 1344     		add	r3, r3, r2
 711              	.LVL65:
 712              	.LBE185:
 713              	.LBE184:
 714              		.loc 1 190 0
 715 02ec C380     		strh	r3, [r0, #6]	@ movhi
 189:.\cpu.c       ****         cpu->reg.hl = add_16t(cpu, cpu->reg.hl, cpu->reg.de);
 716              		.loc 1 189 0
 717 02ee 0220     		movs	r0, #2
 718              	.LVL66:
 191:.\cpu.c       ****         break;
 719              		.loc 1 191 0
 720 02f0 70BD     		pop	{r4, r5, r6, pc}
 721              	.LVL67:
 722              	.L32:
 192:.\cpu.c       ****         case 0x1A:  //LD A,(DE)
 193:.\cpu.c       ****         machine_cycles_taken = 2;
 194:.\cpu.c       ****         cpu->reg.a = fetch(&cpu->mem, cpu->reg.de, cpu->inBios);
 723              		.loc 1 194 0
 724 02f2 0C30     		adds	r0, r0, #12
 725              	.LVL68:
 726 02f4 A188     		ldrh	r1, [r4, #4]
 727 02f6 44F20C03 		movw	r3, #16396
 728 02fa E25C     		ldrb	r2, [r4, r3]	@ zero_extendqisi2
 729 02fc FFF7FEFF 		bl	fetch
 730              	.LVL69:
 731 0300 6070     		strb	r0, [r4, #1]
 193:.\cpu.c       ****         cpu->reg.a = fetch(&cpu->mem, cpu->reg.de, cpu->inBios);
 732              		.loc 1 193 0
 733 0302 0220     		movs	r0, #2
 195:.\cpu.c       ****         break;
 734              		.loc 1 195 0
 735 0304 70BD     		pop	{r4, r5, r6, pc}
 736              	.LVL70:
 737              	.L33:
 196:.\cpu.c       ****         case 0x1B:  //DEC DE
 197:.\cpu.c       ****         machine_cycles_taken = 2;
 198:.\cpu.c       ****         cpu->reg.de--;
 738              		.loc 1 198 0
 739 0306 8388     		ldrh	r3, [r0, #4]
 740 0308 013B     		subs	r3, r3, #1
 741 030a 8380     		strh	r3, [r0, #4]	@ movhi
 197:.\cpu.c       ****         cpu->reg.de--;
 742              		.loc 1 197 0
 743 030c 0220     		movs	r0, #2
 744              	.LVL71:
 199:.\cpu.c       ****         break;
ARM GAS  C:\Users\raytr\AppData\Local\Temp\ccu8NuaS.s 			page 18


 745              		.loc 1 199 0
 746 030e 70BD     		pop	{r4, r5, r6, pc}
 747              	.LVL72:
 748              	.L34:
 200:.\cpu.c       ****         case 0x1C:  //INC E
 201:.\cpu.c       ****         machine_cycles_taken = 1;
 202:.\cpu.c       ****         cpu->reg.e = inc_8t(cpu, cpu->reg.e);
 203:.\cpu.c       ****         break;
 204:.\cpu.c       ****         case 0x1D:  //DEC E
 205:.\cpu.c       ****         machine_cycles_taken = 1;
 206:.\cpu.c       ****         cpu->reg.e = dec_8t(cpu, cpu->reg.e);
 207:.\cpu.c       ****         break;
 208:.\cpu.c       ****         case 0x1E:  //LD E,u8
 209:.\cpu.c       ****         machine_cycles_taken = 2;
 210:.\cpu.c       ****         cpu->reg.e = fetch_and_increment_pc(cpu);
 749              		.loc 1 210 0
 750 0310 FFF7FEFF 		bl	fetch_and_increment_pc
 751              	.LVL73:
 752 0314 2071     		strb	r0, [r4, #4]
 209:.\cpu.c       ****         cpu->reg.e = fetch_and_increment_pc(cpu);
 753              		.loc 1 209 0
 754 0316 0220     		movs	r0, #2
 211:.\cpu.c       ****         break;
 755              		.loc 1 211 0
 756 0318 70BD     		pop	{r4, r5, r6, pc}
 757              	.LVL74:
 758              	.L35:
 212:.\cpu.c       ****         case 0x1F:  //RRA
 213:.\cpu.c       ****         //@@@@@@@@@@@@@@@@@@@@@@@@@@@@@@@@@@@@@@@@@@@@@@@@@@@@@@@@@@@@@@@@@@
 214:.\cpu.c       ****         break;
 215:.\cpu.c       ****         case 0x20:  //JR NZ,i8
 216:.\cpu.c       ****         machine_cycles_taken = 2;
 217:.\cpu.c       ****         int8_t jrnz_offset = safe_convert(fetch_and_increment_pc(cpu));
 759              		.loc 1 217 0
 760 031a FFF7FEFF 		bl	fetch_and_increment_pc
 761              	.LVL75:
 762 031e FFF7FEFF 		bl	safe_convert
 763              	.LVL76:
 764 0322 0546     		mov	r5, r0
 765              	.LVL77:
 218:.\cpu.c       ****         if (get_zero_flag(&cpu->reg)){
 766              		.loc 1 218 0
 767 0324 2046     		mov	r0, r4
 768 0326 FFF7FEFF 		bl	get_zero_flag
 769              	.LVL78:
 770 032a 0028     		cmp	r0, #0
 771 032c 00F03384 		beq	.L215
 772              	.LVL79:
 219:.\cpu.c       ****             machine_cycles_taken = 3;
 220:.\cpu.c       ****             add_to_pc(cpu, jrnz_offset);
 773              		.loc 1 220 0
 774 0330 2046     		mov	r0, r4
 775 0332 2946     		mov	r1, r5
 776 0334 FFF7FEFF 		bl	add_to_pc
 777              	.LVL80:
 219:.\cpu.c       ****             machine_cycles_taken = 3;
 778              		.loc 1 219 0
ARM GAS  C:\Users\raytr\AppData\Local\Temp\ccu8NuaS.s 			page 19


 779 0338 0320     		movs	r0, #3
 780 033a 70BD     		pop	{r4, r5, r6, pc}
 781              	.LVL81:
 782              	.L36:
 221:.\cpu.c       ****         }
 222:.\cpu.c       ****         break;
 223:.\cpu.c       ****         case 0x21:  //LD HL,u16
 224:.\cpu.c       ****         machine_cycles_taken = 3;
 225:.\cpu.c       ****         cpu->reg.l = fetch_and_increment_pc(cpu);
 783              		.loc 1 225 0
 784 033c FFF7FEFF 		bl	fetch_and_increment_pc
 785              	.LVL82:
 786 0340 A071     		strb	r0, [r4, #6]
 226:.\cpu.c       ****         cpu->reg.h = fetch_and_increment_pc(cpu);
 787              		.loc 1 226 0
 788 0342 2046     		mov	r0, r4
 789 0344 FFF7FEFF 		bl	fetch_and_increment_pc
 790              	.LVL83:
 791 0348 E071     		strb	r0, [r4, #7]
 224:.\cpu.c       ****         cpu->reg.l = fetch_and_increment_pc(cpu);
 792              		.loc 1 224 0
 793 034a 0320     		movs	r0, #3
 227:.\cpu.c       ****         break;
 794              		.loc 1 227 0
 795 034c 70BD     		pop	{r4, r5, r6, pc}
 796              	.LVL84:
 797              	.L37:
 228:.\cpu.c       ****         case 0x22:  //LD (HL+),A
 229:.\cpu.c       ****         machine_cycles_taken = 2;
 230:.\cpu.c       ****         write_mem(&cpu->mem, cpu->reg.hl, cpu->reg.a);
 798              		.loc 1 230 0
 799 034e 0C30     		adds	r0, r0, #12
 800              	.LVL85:
 801 0350 E188     		ldrh	r1, [r4, #6]
 802 0352 6278     		ldrb	r2, [r4, #1]	@ zero_extendqisi2
 803 0354 FFF7FEFF 		bl	write_mem
 804              	.LVL86:
 231:.\cpu.c       ****         cpu->reg.hl++;
 805              		.loc 1 231 0
 806 0358 E388     		ldrh	r3, [r4, #6]
 807 035a 0133     		adds	r3, r3, #1
 808 035c E380     		strh	r3, [r4, #6]	@ movhi
 229:.\cpu.c       ****         write_mem(&cpu->mem, cpu->reg.hl, cpu->reg.a);
 809              		.loc 1 229 0
 810 035e 0220     		movs	r0, #2
 232:.\cpu.c       ****         break;
 811              		.loc 1 232 0
 812 0360 70BD     		pop	{r4, r5, r6, pc}
 813              	.LVL87:
 814              	.L38:
 233:.\cpu.c       ****         case 0x23:  //INC HL
 234:.\cpu.c       ****         machine_cycles_taken = 2;
 235:.\cpu.c       ****         cpu->reg.hl++;
 815              		.loc 1 235 0
 816 0362 C388     		ldrh	r3, [r0, #6]
 817 0364 0133     		adds	r3, r3, #1
 818 0366 C380     		strh	r3, [r0, #6]	@ movhi
ARM GAS  C:\Users\raytr\AppData\Local\Temp\ccu8NuaS.s 			page 20


 234:.\cpu.c       ****         cpu->reg.hl++;
 819              		.loc 1 234 0
 820 0368 0220     		movs	r0, #2
 821              	.LVL88:
 236:.\cpu.c       ****         break;
 822              		.loc 1 236 0
 823 036a 70BD     		pop	{r4, r5, r6, pc}
 824              	.LVL89:
 825              	.L39:
 237:.\cpu.c       ****         case 0x24:  //INC H
 238:.\cpu.c       ****         machine_cycles_taken = 1;
 239:.\cpu.c       ****         cpu->reg.h = inc_8t(cpu, cpu->reg.h);
 240:.\cpu.c       ****         break;
 241:.\cpu.c       ****         case 0x25:  //DEC H
 242:.\cpu.c       ****         machine_cycles_taken = 1;
 243:.\cpu.c       ****         cpu->reg.h = dec_8t(cpu, cpu->reg.h);
 244:.\cpu.c       ****         break;
 245:.\cpu.c       ****         case 0x26:  //LD H,u8
 246:.\cpu.c       ****         machine_cycles_taken = 2;
 247:.\cpu.c       ****         cpu->reg.h = fetch_and_increment_pc(cpu);
 826              		.loc 1 247 0
 827 036c FFF7FEFF 		bl	fetch_and_increment_pc
 828              	.LVL90:
 829 0370 E071     		strb	r0, [r4, #7]
 246:.\cpu.c       ****         cpu->reg.h = fetch_and_increment_pc(cpu);
 830              		.loc 1 246 0
 831 0372 0220     		movs	r0, #2
 248:.\cpu.c       ****         break;
 832              		.loc 1 248 0
 833 0374 70BD     		pop	{r4, r5, r6, pc}
 834              	.LVL91:
 835              	.L40:
 249:.\cpu.c       ****         case 0x27:  //DAA
 250:.\cpu.c       ****         //@@@@@@@@@@@@@@@@@@@@@@@@@@@@@@@@@@@@@@@@@@@@@@@@@@@@@@@@@@@@
 251:.\cpu.c       ****         break;
 252:.\cpu.c       ****         case 0x28:  //JR Z,i8
 253:.\cpu.c       ****         machine_cycles_taken = 2;
 254:.\cpu.c       ****         int8_t jrzi8_offset = safe_convert(fetch_and_increment_pc(cpu));
 836              		.loc 1 254 0
 837 0376 FFF7FEFF 		bl	fetch_and_increment_pc
 838              	.LVL92:
 839 037a FFF7FEFF 		bl	safe_convert
 840              	.LVL93:
 841 037e 0546     		mov	r5, r0
 842              	.LVL94:
 255:.\cpu.c       ****         if (get_zero_flag(&cpu->reg)){
 843              		.loc 1 255 0
 844 0380 2046     		mov	r0, r4
 845 0382 FFF7FEFF 		bl	get_zero_flag
 846              	.LVL95:
 847 0386 0028     		cmp	r0, #0
 848 0388 00F00784 		beq	.L216
 849              	.LVL96:
 256:.\cpu.c       ****             machine_cycles_taken = 3;
 257:.\cpu.c       ****             add_to_pc(cpu, jrzi8_offset);
 850              		.loc 1 257 0
 851 038c 2046     		mov	r0, r4
ARM GAS  C:\Users\raytr\AppData\Local\Temp\ccu8NuaS.s 			page 21


 852 038e 2946     		mov	r1, r5
 853 0390 FFF7FEFF 		bl	add_to_pc
 854              	.LVL97:
 256:.\cpu.c       ****             machine_cycles_taken = 3;
 855              		.loc 1 256 0
 856 0394 0320     		movs	r0, #3
 857 0396 70BD     		pop	{r4, r5, r6, pc}
 858              	.LVL98:
 859              	.L41:
 258:.\cpu.c       ****         }
 259:.\cpu.c       ****         break;
 260:.\cpu.c       ****         case 0x29:  //ADD HL,HL 
 261:.\cpu.c       ****         machine_cycles_taken = 2;
 262:.\cpu.c       ****         cpu->reg.hl = add_16t(cpu, cpu->reg.hl, cpu->reg.hl);
 860              		.loc 1 262 0
 861 0398 C388     		ldrh	r3, [r0, #6]
 862              	.LVL99:
 863              	.LBB186:
 864              	.LBB187:
  80:.\cpu.c       **** }
 865              		.loc 1 80 0
 866 039a 5B00     		lsls	r3, r3, #1
 867              	.LVL100:
 868              	.LBE187:
 869              	.LBE186:
 870              		.loc 1 262 0
 871 039c C380     		strh	r3, [r0, #6]	@ movhi
 872              	.LVL101:
 261:.\cpu.c       ****         cpu->reg.hl = add_16t(cpu, cpu->reg.hl, cpu->reg.hl);
 873              		.loc 1 261 0
 874 039e 0220     		movs	r0, #2
 875              	.LVL102:
 263:.\cpu.c       ****         break;
 876              		.loc 1 263 0
 877 03a0 70BD     		pop	{r4, r5, r6, pc}
 878              	.LVL103:
 879              	.L42:
 264:.\cpu.c       ****         case 0x2A:  //LD A,(HL+)
 265:.\cpu.c       ****         machine_cycles_taken = 2;
 266:.\cpu.c       ****         cpu->reg.a = fetch(&cpu->mem, cpu->reg.hl, cpu->inBios);
 880              		.loc 1 266 0
 881 03a2 0C30     		adds	r0, r0, #12
 882              	.LVL104:
 883 03a4 E188     		ldrh	r1, [r4, #6]
 884 03a6 44F20C03 		movw	r3, #16396
 885 03aa E25C     		ldrb	r2, [r4, r3]	@ zero_extendqisi2
 886 03ac FFF7FEFF 		bl	fetch
 887              	.LVL105:
 888 03b0 6070     		strb	r0, [r4, #1]
 267:.\cpu.c       ****         cpu->reg.hl++;
 889              		.loc 1 267 0
 890 03b2 E388     		ldrh	r3, [r4, #6]
 891 03b4 0133     		adds	r3, r3, #1
 892 03b6 E380     		strh	r3, [r4, #6]	@ movhi
 265:.\cpu.c       ****         cpu->reg.a = fetch(&cpu->mem, cpu->reg.hl, cpu->inBios);
 893              		.loc 1 265 0
 894 03b8 0220     		movs	r0, #2
ARM GAS  C:\Users\raytr\AppData\Local\Temp\ccu8NuaS.s 			page 22


 268:.\cpu.c       ****         break;
 895              		.loc 1 268 0
 896 03ba 70BD     		pop	{r4, r5, r6, pc}
 897              	.LVL106:
 898              	.L43:
 269:.\cpu.c       ****         case 0x2B:  //DEC HL
 270:.\cpu.c       ****         machine_cycles_taken = 2;
 271:.\cpu.c       ****         cpu->reg.hl--;
 899              		.loc 1 271 0
 900 03bc C388     		ldrh	r3, [r0, #6]
 901 03be 013B     		subs	r3, r3, #1
 902 03c0 C380     		strh	r3, [r0, #6]	@ movhi
 270:.\cpu.c       ****         cpu->reg.hl--;
 903              		.loc 1 270 0
 904 03c2 0220     		movs	r0, #2
 905              	.LVL107:
 272:.\cpu.c       ****         break;
 906              		.loc 1 272 0
 907 03c4 70BD     		pop	{r4, r5, r6, pc}
 908              	.LVL108:
 909              	.L44:
 273:.\cpu.c       ****         case 0x2C:  //INC L
 274:.\cpu.c       ****         machine_cycles_taken = 1;
 275:.\cpu.c       ****         cpu->reg.l = inc_8t(cpu, cpu->reg.l);
 276:.\cpu.c       ****         break;
 277:.\cpu.c       ****         case 0x2D:  //DEC L
 278:.\cpu.c       ****         machine_cycles_taken = 1;
 279:.\cpu.c       ****         cpu->reg.l = dec_8t(cpu, cpu->reg.l);
 280:.\cpu.c       ****         break;
 281:.\cpu.c       ****         case 0x2E:  //LD L,u8
 282:.\cpu.c       ****         machine_cycles_taken = 2;
 283:.\cpu.c       ****         cpu->reg.l = fetch_and_increment_pc(cpu);
 910              		.loc 1 283 0
 911 03c6 FFF7FEFF 		bl	fetch_and_increment_pc
 912              	.LVL109:
 913 03ca A071     		strb	r0, [r4, #6]
 282:.\cpu.c       ****         cpu->reg.l = fetch_and_increment_pc(cpu);
 914              		.loc 1 282 0
 915 03cc 0220     		movs	r0, #2
 284:.\cpu.c       ****         break;
 916              		.loc 1 284 0
 917 03ce 70BD     		pop	{r4, r5, r6, pc}
 918              	.LVL110:
 919              	.L45:
 285:.\cpu.c       ****         case 0x2F:  //CPL 
 286:.\cpu.c       ****         ///@@@@@@@@@@@@@@@@@@@@@@@@@@@@@@@@@@@@@@@@@@@@@@@@@@@@@@@@@@@@@
 287:.\cpu.c       ****         break;
 288:.\cpu.c       ****         case 0x30:  //JR NC,i8
 289:.\cpu.c       ****         machine_cycles_taken = 2;
 290:.\cpu.c       ****         int8_t jrnci8_offset = safe_convert(fetch_and_increment_pc(cpu));
 920              		.loc 1 290 0
 921 03d0 FFF7FEFF 		bl	fetch_and_increment_pc
 922              	.LVL111:
 923 03d4 FFF7FEFF 		bl	safe_convert
 924              	.LVL112:
 925 03d8 0546     		mov	r5, r0
 926              	.LVL113:
ARM GAS  C:\Users\raytr\AppData\Local\Temp\ccu8NuaS.s 			page 23


 291:.\cpu.c       ****         if (get_zero_flag(&cpu->reg)){
 927              		.loc 1 291 0
 928 03da 2046     		mov	r0, r4
 929 03dc FFF7FEFF 		bl	get_zero_flag
 930              	.LVL114:
 931 03e0 0028     		cmp	r0, #0
 932 03e2 00F0DC83 		beq	.L217
 933              	.LVL115:
 292:.\cpu.c       ****             machine_cycles_taken = 3;
 293:.\cpu.c       ****             add_to_pc(cpu, jrnci8_offset);
 934              		.loc 1 293 0
 935 03e6 2046     		mov	r0, r4
 936 03e8 2946     		mov	r1, r5
 937 03ea FFF7FEFF 		bl	add_to_pc
 938              	.LVL116:
 292:.\cpu.c       ****             machine_cycles_taken = 3;
 939              		.loc 1 292 0
 940 03ee 0320     		movs	r0, #3
 941 03f0 70BD     		pop	{r4, r5, r6, pc}
 942              	.LVL117:
 943              	.L46:
 294:.\cpu.c       ****         }
 295:.\cpu.c       ****         break;
 296:.\cpu.c       ****         case 0x31:  // LD SP,u16 
 297:.\cpu.c       ****         machine_cycles_taken = 3;
 298:.\cpu.c       ****         cpu->reg.sp = fetch_and_increment_pc_twice(cpu);
 944              		.loc 1 298 0
 945 03f2 FFF7FEFF 		bl	fetch_and_increment_pc_twice
 946              	.LVL118:
 947 03f6 6081     		strh	r0, [r4, #10]	@ movhi
 297:.\cpu.c       ****         cpu->reg.sp = fetch_and_increment_pc_twice(cpu);
 948              		.loc 1 297 0
 949 03f8 0320     		movs	r0, #3
 299:.\cpu.c       ****         break;
 950              		.loc 1 299 0
 951 03fa 70BD     		pop	{r4, r5, r6, pc}
 952              	.LVL119:
 953              	.L47:
 300:.\cpu.c       ****         case 0x32:  //LD (HL-),A
 301:.\cpu.c       ****         machine_cycles_taken = 2;
 302:.\cpu.c       ****         write_mem(&cpu->mem, cpu->reg.hl, cpu->reg.a);
 954              		.loc 1 302 0
 955 03fc 0C30     		adds	r0, r0, #12
 956              	.LVL120:
 957 03fe E188     		ldrh	r1, [r4, #6]
 958 0400 6278     		ldrb	r2, [r4, #1]	@ zero_extendqisi2
 959 0402 FFF7FEFF 		bl	write_mem
 960              	.LVL121:
 303:.\cpu.c       ****         cpu->reg.hl--;
 961              		.loc 1 303 0
 962 0406 E388     		ldrh	r3, [r4, #6]
 963 0408 013B     		subs	r3, r3, #1
 964 040a E380     		strh	r3, [r4, #6]	@ movhi
 301:.\cpu.c       ****         write_mem(&cpu->mem, cpu->reg.hl, cpu->reg.a);
 965              		.loc 1 301 0
 966 040c 0220     		movs	r0, #2
 304:.\cpu.c       ****         break;
ARM GAS  C:\Users\raytr\AppData\Local\Temp\ccu8NuaS.s 			page 24


 967              		.loc 1 304 0
 968 040e 70BD     		pop	{r4, r5, r6, pc}
 969              	.LVL122:
 970              	.L48:
 305:.\cpu.c       ****         case 0x33:  //INC SP
 306:.\cpu.c       ****         machine_cycles_taken = 2;
 307:.\cpu.c       ****         cpu->reg.sp++;
 971              		.loc 1 307 0
 972 0410 4389     		ldrh	r3, [r0, #10]
 973 0412 0133     		adds	r3, r3, #1
 974 0414 4381     		strh	r3, [r0, #10]	@ movhi
 306:.\cpu.c       ****         cpu->reg.sp++;
 975              		.loc 1 306 0
 976 0416 0220     		movs	r0, #2
 977              	.LVL123:
 308:.\cpu.c       ****         break;
 978              		.loc 1 308 0
 979 0418 70BD     		pop	{r4, r5, r6, pc}
 980              	.LVL124:
 981              	.L49:
 309:.\cpu.c       ****         case 0x34:  //INC (HL)
 310:.\cpu.c       ****         //@@@@@@@@@@@@@@@@@@@@@@@@@@@@@@@@@@@@@@@@@@@@@@@@@@@@@@@@@@
 311:.\cpu.c       ****         break;
 312:.\cpu.c       ****         case 0x35:  //DEC (HL)
 313:.\cpu.c       ****         //@@@@@@@@@@@@@@@@@@@@@@@@@@@@@@@@@@@@@@@@@@@@@@@@@@@@@@@@
 314:.\cpu.c       ****         break;
 315:.\cpu.c       ****         case 0x36:  //LD (HL),u8
 316:.\cpu.c       ****         machine_cycles_taken = 3;
 317:.\cpu.c       ****         write_mem(&cpu->mem, cpu->reg.hl, fetch_and_increment_pc(cpu));
 982              		.loc 1 317 0
 983 041a C588     		ldrh	r5, [r0, #6]
 984 041c FFF7FEFF 		bl	fetch_and_increment_pc
 985              	.LVL125:
 986 0420 0246     		mov	r2, r0
 987 0422 04F10C00 		add	r0, r4, #12
 988 0426 2946     		mov	r1, r5
 989 0428 FFF7FEFF 		bl	write_mem
 990              	.LVL126:
 316:.\cpu.c       ****         write_mem(&cpu->mem, cpu->reg.hl, fetch_and_increment_pc(cpu));
 991              		.loc 1 316 0
 992 042c 0320     		movs	r0, #3
 318:.\cpu.c       ****         break;
 993              		.loc 1 318 0
 994 042e 70BD     		pop	{r4, r5, r6, pc}
 995              	.LVL127:
 996              	.L50:
 319:.\cpu.c       ****         case 0x37:  //SCF 
 320:.\cpu.c       ****         //@@@@@@@@@@@@@@@@@@@@@@@@@@@@@@@@@@@@@@@@@@@@@@@@@@@@@@@@@@@@
 321:.\cpu.c       ****         break;
 322:.\cpu.c       ****         case 0x38:  //JR C,i8
 323:.\cpu.c       ****         machine_cycles_taken = 2;
 324:.\cpu.c       ****         int8_t jrci8_offset = safe_convert(fetch_and_increment_pc(cpu));
 997              		.loc 1 324 0
 998 0430 FFF7FEFF 		bl	fetch_and_increment_pc
 999              	.LVL128:
 1000 0434 FFF7FEFF 		bl	safe_convert
 1001              	.LVL129:
ARM GAS  C:\Users\raytr\AppData\Local\Temp\ccu8NuaS.s 			page 25


 1002 0438 0546     		mov	r5, r0
 1003              	.LVL130:
 325:.\cpu.c       ****         if (get_carry_flag(&cpu->reg)){
 1004              		.loc 1 325 0
 1005 043a 2046     		mov	r0, r4
 1006 043c FFF7FEFF 		bl	get_carry_flag
 1007              	.LVL131:
 1008 0440 0028     		cmp	r0, #0
 1009 0442 00F0AE83 		beq	.L218
 1010              	.LVL132:
 326:.\cpu.c       ****             machine_cycles_taken = 3;
 327:.\cpu.c       ****             add_to_pc(cpu, jrci8_offset);
 1011              		.loc 1 327 0
 1012 0446 2046     		mov	r0, r4
 1013 0448 2946     		mov	r1, r5
 1014 044a FFF7FEFF 		bl	add_to_pc
 1015              	.LVL133:
 326:.\cpu.c       ****             machine_cycles_taken = 3;
 1016              		.loc 1 326 0
 1017 044e 0320     		movs	r0, #3
 1018 0450 70BD     		pop	{r4, r5, r6, pc}
 1019              	.LVL134:
 1020              	.L51:
 328:.\cpu.c       ****         }
 329:.\cpu.c       ****         break;
 330:.\cpu.c       ****         case 0x39:  //ADD HL,SP
 331:.\cpu.c       ****         machine_cycles_taken = 2;
 332:.\cpu.c       ****         cpu->reg.hl = add_16t(cpu, cpu->reg.hl, cpu->reg.sp);
 1021              		.loc 1 332 0
 1022 0452 C288     		ldrh	r2, [r0, #6]
 1023 0454 4389     		ldrh	r3, [r0, #10]
 1024              	.LVL135:
 1025              	.LBB188:
 1026              	.LBB189:
  80:.\cpu.c       **** }
 1027              		.loc 1 80 0
 1028 0456 1344     		add	r3, r3, r2
 1029              	.LVL136:
 1030              	.LBE189:
 1031              	.LBE188:
 1032              		.loc 1 332 0
 1033 0458 C380     		strh	r3, [r0, #6]	@ movhi
 331:.\cpu.c       ****         cpu->reg.hl = add_16t(cpu, cpu->reg.hl, cpu->reg.sp);
 1034              		.loc 1 331 0
 1035 045a 0220     		movs	r0, #2
 1036              	.LVL137:
 333:.\cpu.c       ****         break;
 1037              		.loc 1 333 0
 1038 045c 70BD     		pop	{r4, r5, r6, pc}
 1039              	.LVL138:
 1040              	.L52:
 334:.\cpu.c       ****         case 0x3A:  //LD A,(HL-)
 335:.\cpu.c       ****         machine_cycles_taken = 2;
 336:.\cpu.c       ****         cpu->reg.a = fetch(&cpu->mem, cpu->reg.hl, cpu->inBios);
 1041              		.loc 1 336 0
 1042 045e 0C30     		adds	r0, r0, #12
 1043              	.LVL139:
ARM GAS  C:\Users\raytr\AppData\Local\Temp\ccu8NuaS.s 			page 26


 1044 0460 E188     		ldrh	r1, [r4, #6]
 1045 0462 44F20C03 		movw	r3, #16396
 1046 0466 E25C     		ldrb	r2, [r4, r3]	@ zero_extendqisi2
 1047 0468 FFF7FEFF 		bl	fetch
 1048              	.LVL140:
 1049 046c 6070     		strb	r0, [r4, #1]
 337:.\cpu.c       ****         cpu->reg.hl--;
 1050              		.loc 1 337 0
 1051 046e E388     		ldrh	r3, [r4, #6]
 1052 0470 013B     		subs	r3, r3, #1
 1053 0472 E380     		strh	r3, [r4, #6]	@ movhi
 335:.\cpu.c       ****         cpu->reg.a = fetch(&cpu->mem, cpu->reg.hl, cpu->inBios);
 1054              		.loc 1 335 0
 1055 0474 0220     		movs	r0, #2
 338:.\cpu.c       ****         break;
 1056              		.loc 1 338 0
 1057 0476 70BD     		pop	{r4, r5, r6, pc}
 1058              	.LVL141:
 1059              	.L53:
 339:.\cpu.c       ****         case 0x3B:  //DEC SP
 340:.\cpu.c       ****         machine_cycles_taken = 2;
 341:.\cpu.c       ****         cpu->reg.sp--;
 1060              		.loc 1 341 0
 1061 0478 4389     		ldrh	r3, [r0, #10]
 1062 047a 013B     		subs	r3, r3, #1
 1063 047c 4381     		strh	r3, [r0, #10]	@ movhi
 340:.\cpu.c       ****         cpu->reg.sp--;
 1064              		.loc 1 340 0
 1065 047e 0220     		movs	r0, #2
 1066              	.LVL142:
 342:.\cpu.c       ****         break;
 1067              		.loc 1 342 0
 1068 0480 70BD     		pop	{r4, r5, r6, pc}
 1069              	.LVL143:
 1070              	.L54:
 343:.\cpu.c       ****         case 0x3C:  //INC A
 344:.\cpu.c       ****         machine_cycles_taken = 1;
 345:.\cpu.c       ****         cpu->reg.a = inc_8t(cpu, cpu->reg.a);
 346:.\cpu.c       ****         break;
 347:.\cpu.c       ****         case 0x3D:  //DEC A
 348:.\cpu.c       ****         machine_cycles_taken = 1;
 349:.\cpu.c       ****         cpu->reg.a = dec_8t(cpu, cpu->reg.a);
 350:.\cpu.c       ****         break;
 351:.\cpu.c       ****         case 0x3E:  //LD A,u8
 352:.\cpu.c       ****         machine_cycles_taken = 2;
 353:.\cpu.c       ****         cpu->reg.a = fetch_and_increment_pc(cpu);
 1071              		.loc 1 353 0
 1072 0482 FFF7FEFF 		bl	fetch_and_increment_pc
 1073              	.LVL144:
 1074 0486 6070     		strb	r0, [r4, #1]
 352:.\cpu.c       ****         cpu->reg.a = fetch_and_increment_pc(cpu);
 1075              		.loc 1 352 0
 1076 0488 0220     		movs	r0, #2
 354:.\cpu.c       ****         break;
 1077              		.loc 1 354 0
 1078 048a 70BD     		pop	{r4, r5, r6, pc}
 1079              	.LVL145:
ARM GAS  C:\Users\raytr\AppData\Local\Temp\ccu8NuaS.s 			page 27


 1080              	.L55:
 355:.\cpu.c       ****         case 0x3F:  //CCF
 356:.\cpu.c       ****         ///@@@@@@@@@@@@@@@@@@@@@@@@@@@@@@@@@@@@@@@@@@@@@@@@@@@@@
 357:.\cpu.c       ****         break;
 358:.\cpu.c       ****         case 0x40:  //LD B,B
 359:.\cpu.c       ****         machine_cycles_taken = 1;
 360:.\cpu.c       ****         break;
 361:.\cpu.c       ****         case 0x41:  //LD B,C
 362:.\cpu.c       ****         machine_cycles_taken = 1;
 363:.\cpu.c       ****         cpu->reg.b = cpu->reg.c;
 1081              		.loc 1 363 0
 1082 048c 8378     		ldrb	r3, [r0, #2]	@ zero_extendqisi2
 1083 048e C370     		strb	r3, [r0, #3]
 362:.\cpu.c       ****         cpu->reg.b = cpu->reg.c;
 1084              		.loc 1 362 0
 1085 0490 0120     		movs	r0, #1
 1086              	.LVL146:
 364:.\cpu.c       ****         break;
 1087              		.loc 1 364 0
 1088 0492 70BD     		pop	{r4, r5, r6, pc}
 1089              	.LVL147:
 1090              	.L56:
 365:.\cpu.c       ****         case 0x42:  //LD B,D 
 366:.\cpu.c       ****         machine_cycles_taken = 1;
 367:.\cpu.c       ****         cpu->reg.b = cpu->reg.d;
 1091              		.loc 1 367 0
 1092 0494 4379     		ldrb	r3, [r0, #5]	@ zero_extendqisi2
 1093 0496 C370     		strb	r3, [r0, #3]
 366:.\cpu.c       ****         cpu->reg.b = cpu->reg.d;
 1094              		.loc 1 366 0
 1095 0498 0120     		movs	r0, #1
 1096              	.LVL148:
 368:.\cpu.c       ****         break;
 1097              		.loc 1 368 0
 1098 049a 70BD     		pop	{r4, r5, r6, pc}
 1099              	.LVL149:
 1100              	.L57:
 369:.\cpu.c       ****         case 0x43:  //LD B,E
 370:.\cpu.c       ****         machine_cycles_taken = 1;
 371:.\cpu.c       ****         cpu->reg.b = cpu->reg.e;
 1101              		.loc 1 371 0
 1102 049c 0379     		ldrb	r3, [r0, #4]	@ zero_extendqisi2
 1103 049e C370     		strb	r3, [r0, #3]
 370:.\cpu.c       ****         cpu->reg.b = cpu->reg.e;
 1104              		.loc 1 370 0
 1105 04a0 0120     		movs	r0, #1
 1106              	.LVL150:
 372:.\cpu.c       ****         break;
 1107              		.loc 1 372 0
 1108 04a2 70BD     		pop	{r4, r5, r6, pc}
 1109              	.LVL151:
 1110              	.L58:
 373:.\cpu.c       ****         case 0x44:  //LD B,H
 374:.\cpu.c       ****         machine_cycles_taken = 1;
 375:.\cpu.c       ****         cpu->reg.b = cpu->reg.h;
 1111              		.loc 1 375 0
 1112 04a4 C379     		ldrb	r3, [r0, #7]	@ zero_extendqisi2
ARM GAS  C:\Users\raytr\AppData\Local\Temp\ccu8NuaS.s 			page 28


 1113 04a6 C370     		strb	r3, [r0, #3]
 374:.\cpu.c       ****         cpu->reg.b = cpu->reg.h;
 1114              		.loc 1 374 0
 1115 04a8 0120     		movs	r0, #1
 1116              	.LVL152:
 376:.\cpu.c       ****         break;
 1117              		.loc 1 376 0
 1118 04aa 70BD     		pop	{r4, r5, r6, pc}
 1119              	.LVL153:
 1120              	.L59:
 377:.\cpu.c       ****         case 0x45:  //LD B,L
 378:.\cpu.c       ****         machine_cycles_taken = 1;
 379:.\cpu.c       ****         cpu->reg.b = cpu->reg.l;
 1121              		.loc 1 379 0
 1122 04ac 8379     		ldrb	r3, [r0, #6]	@ zero_extendqisi2
 1123 04ae C370     		strb	r3, [r0, #3]
 378:.\cpu.c       ****         cpu->reg.b = cpu->reg.l;
 1124              		.loc 1 378 0
 1125 04b0 0120     		movs	r0, #1
 1126              	.LVL154:
 380:.\cpu.c       ****         break;
 1127              		.loc 1 380 0
 1128 04b2 70BD     		pop	{r4, r5, r6, pc}
 1129              	.LVL155:
 1130              	.L60:
 381:.\cpu.c       ****         case 0x46:  //LD B,(HL)
 382:.\cpu.c       ****         machine_cycles_taken = 2;
 383:.\cpu.c       ****         cpu->reg.b = fetch(&cpu->mem, cpu->reg.hl, cpu->inBios);
 1131              		.loc 1 383 0
 1132 04b4 0C30     		adds	r0, r0, #12
 1133              	.LVL156:
 1134 04b6 E188     		ldrh	r1, [r4, #6]
 1135 04b8 44F20C03 		movw	r3, #16396
 1136 04bc E25C     		ldrb	r2, [r4, r3]	@ zero_extendqisi2
 1137 04be FFF7FEFF 		bl	fetch
 1138              	.LVL157:
 1139 04c2 E070     		strb	r0, [r4, #3]
 382:.\cpu.c       ****         cpu->reg.b = fetch(&cpu->mem, cpu->reg.hl, cpu->inBios);
 1140              		.loc 1 382 0
 1141 04c4 0220     		movs	r0, #2
 384:.\cpu.c       ****         break;
 1142              		.loc 1 384 0
 1143 04c6 70BD     		pop	{r4, r5, r6, pc}
 1144              	.LVL158:
 1145              	.L61:
 385:.\cpu.c       ****         case 0x47:  //LD B,A
 386:.\cpu.c       ****         machine_cycles_taken = 1;
 387:.\cpu.c       ****         cpu->reg.b = cpu->reg.a;
 1146              		.loc 1 387 0
 1147 04c8 4378     		ldrb	r3, [r0, #1]	@ zero_extendqisi2
 1148 04ca C370     		strb	r3, [r0, #3]
 386:.\cpu.c       ****         cpu->reg.b = cpu->reg.a;
 1149              		.loc 1 386 0
 1150 04cc 0120     		movs	r0, #1
 1151              	.LVL159:
 388:.\cpu.c       ****         break;
 1152              		.loc 1 388 0
ARM GAS  C:\Users\raytr\AppData\Local\Temp\ccu8NuaS.s 			page 29


 1153 04ce 70BD     		pop	{r4, r5, r6, pc}
 1154              	.LVL160:
 1155              	.L62:
 389:.\cpu.c       ****         case 0x48:  //LD C,B
 390:.\cpu.c       ****         machine_cycles_taken = 1;
 391:.\cpu.c       ****         cpu->reg.c = cpu->reg.b;
 1156              		.loc 1 391 0
 1157 04d0 C378     		ldrb	r3, [r0, #3]	@ zero_extendqisi2
 1158 04d2 8370     		strb	r3, [r0, #2]
 390:.\cpu.c       ****         cpu->reg.c = cpu->reg.b;
 1159              		.loc 1 390 0
 1160 04d4 0120     		movs	r0, #1
 1161              	.LVL161:
 392:.\cpu.c       ****         break;
 1162              		.loc 1 392 0
 1163 04d6 70BD     		pop	{r4, r5, r6, pc}
 1164              	.LVL162:
 1165              	.L63:
 393:.\cpu.c       ****         case 0x49:  //LD C,C 
 394:.\cpu.c       ****         machine_cycles_taken = 1;
 395:.\cpu.c       ****         break;
 396:.\cpu.c       ****         case 0x4A:  //LD C,D
 397:.\cpu.c       ****         machine_cycles_taken = 1;
 398:.\cpu.c       ****         cpu->reg.c = cpu->reg.d;
 1166              		.loc 1 398 0
 1167 04d8 4379     		ldrb	r3, [r0, #5]	@ zero_extendqisi2
 1168 04da 8370     		strb	r3, [r0, #2]
 397:.\cpu.c       ****         cpu->reg.c = cpu->reg.d;
 1169              		.loc 1 397 0
 1170 04dc 0120     		movs	r0, #1
 1171              	.LVL163:
 399:.\cpu.c       ****         break;
 1172              		.loc 1 399 0
 1173 04de 70BD     		pop	{r4, r5, r6, pc}
 1174              	.LVL164:
 1175              	.L64:
 400:.\cpu.c       ****         case 0x4B:  //LD C,E
 401:.\cpu.c       ****         machine_cycles_taken = 1;
 402:.\cpu.c       ****         cpu->reg.c = cpu->reg.e;
 1176              		.loc 1 402 0
 1177 04e0 0379     		ldrb	r3, [r0, #4]	@ zero_extendqisi2
 1178 04e2 8370     		strb	r3, [r0, #2]
 401:.\cpu.c       ****         cpu->reg.c = cpu->reg.e;
 1179              		.loc 1 401 0
 1180 04e4 0120     		movs	r0, #1
 1181              	.LVL165:
 403:.\cpu.c       ****         break;
 1182              		.loc 1 403 0
 1183 04e6 70BD     		pop	{r4, r5, r6, pc}
 1184              	.LVL166:
 1185              	.L65:
 404:.\cpu.c       ****         case 0x4C:  //LD C,H 
 405:.\cpu.c       ****         machine_cycles_taken = 1;
 406:.\cpu.c       ****         cpu->reg.c = cpu->reg.h;
 1186              		.loc 1 406 0
 1187 04e8 C379     		ldrb	r3, [r0, #7]	@ zero_extendqisi2
 1188 04ea 8370     		strb	r3, [r0, #2]
ARM GAS  C:\Users\raytr\AppData\Local\Temp\ccu8NuaS.s 			page 30


 405:.\cpu.c       ****         cpu->reg.c = cpu->reg.h;
 1189              		.loc 1 405 0
 1190 04ec 0120     		movs	r0, #1
 1191              	.LVL167:
 407:.\cpu.c       ****         break;
 1192              		.loc 1 407 0
 1193 04ee 70BD     		pop	{r4, r5, r6, pc}
 1194              	.LVL168:
 1195              	.L66:
 408:.\cpu.c       ****         case 0x4D:  //LD C,L
 409:.\cpu.c       ****         machine_cycles_taken = 1;
 410:.\cpu.c       ****         cpu->reg.c = cpu->reg.l;
 1196              		.loc 1 410 0
 1197 04f0 8379     		ldrb	r3, [r0, #6]	@ zero_extendqisi2
 1198 04f2 8370     		strb	r3, [r0, #2]
 409:.\cpu.c       ****         cpu->reg.c = cpu->reg.l;
 1199              		.loc 1 409 0
 1200 04f4 0120     		movs	r0, #1
 1201              	.LVL169:
 411:.\cpu.c       ****         break;
 1202              		.loc 1 411 0
 1203 04f6 70BD     		pop	{r4, r5, r6, pc}
 1204              	.LVL170:
 1205              	.L67:
 412:.\cpu.c       ****         case 0x4E:  //LD C,(HL)
 413:.\cpu.c       ****         machine_cycles_taken = 2;
 414:.\cpu.c       ****         cpu->reg.c = fetch(&cpu->mem, cpu->reg.hl, cpu->inBios);
 1206              		.loc 1 414 0
 1207 04f8 0C30     		adds	r0, r0, #12
 1208              	.LVL171:
 1209 04fa E188     		ldrh	r1, [r4, #6]
 1210 04fc 44F20C03 		movw	r3, #16396
 1211 0500 E25C     		ldrb	r2, [r4, r3]	@ zero_extendqisi2
 1212 0502 FFF7FEFF 		bl	fetch
 1213              	.LVL172:
 1214 0506 A070     		strb	r0, [r4, #2]
 413:.\cpu.c       ****         cpu->reg.c = fetch(&cpu->mem, cpu->reg.hl, cpu->inBios);
 1215              		.loc 1 413 0
 1216 0508 0220     		movs	r0, #2
 415:.\cpu.c       ****         break;
 1217              		.loc 1 415 0
 1218 050a 70BD     		pop	{r4, r5, r6, pc}
 1219              	.LVL173:
 1220              	.L68:
 416:.\cpu.c       ****         case 0x4F:  //LD C,A
 417:.\cpu.c       ****         machine_cycles_taken = 1;
 418:.\cpu.c       ****         cpu->reg.c = cpu->reg.a;
 1221              		.loc 1 418 0
 1222 050c 4378     		ldrb	r3, [r0, #1]	@ zero_extendqisi2
 1223 050e 8370     		strb	r3, [r0, #2]
 417:.\cpu.c       ****         cpu->reg.c = cpu->reg.a;
 1224              		.loc 1 417 0
 1225 0510 0120     		movs	r0, #1
 1226              	.LVL174:
 419:.\cpu.c       ****         break;
 1227              		.loc 1 419 0
 1228 0512 70BD     		pop	{r4, r5, r6, pc}
ARM GAS  C:\Users\raytr\AppData\Local\Temp\ccu8NuaS.s 			page 31


 1229              	.LVL175:
 1230              	.L69:
 420:.\cpu.c       ****         case 0x50:  //LD D,B
 421:.\cpu.c       ****         machine_cycles_taken = 1;
 422:.\cpu.c       ****         cpu->reg.d = cpu->reg.b;
 1231              		.loc 1 422 0
 1232 0514 C378     		ldrb	r3, [r0, #3]	@ zero_extendqisi2
 1233 0516 4371     		strb	r3, [r0, #5]
 421:.\cpu.c       ****         cpu->reg.d = cpu->reg.b;
 1234              		.loc 1 421 0
 1235 0518 0120     		movs	r0, #1
 1236              	.LVL176:
 423:.\cpu.c       ****         break;
 1237              		.loc 1 423 0
 1238 051a 70BD     		pop	{r4, r5, r6, pc}
 1239              	.LVL177:
 1240              	.L70:
 424:.\cpu.c       ****         case 0x51:  //LD D,C
 425:.\cpu.c       ****         machine_cycles_taken = 1;
 426:.\cpu.c       ****         cpu->reg.d = cpu->reg.c;
 1241              		.loc 1 426 0
 1242 051c 8378     		ldrb	r3, [r0, #2]	@ zero_extendqisi2
 1243 051e 4371     		strb	r3, [r0, #5]
 425:.\cpu.c       ****         cpu->reg.d = cpu->reg.c;
 1244              		.loc 1 425 0
 1245 0520 0120     		movs	r0, #1
 1246              	.LVL178:
 427:.\cpu.c       ****         break;
 1247              		.loc 1 427 0
 1248 0522 70BD     		pop	{r4, r5, r6, pc}
 1249              	.LVL179:
 1250              	.L71:
 428:.\cpu.c       ****         case 0x52:  //LD D,D
 429:.\cpu.c       ****         machine_cycles_taken = 1;
 430:.\cpu.c       ****         break;
 431:.\cpu.c       ****         case 0x53:  //LD D,E
 432:.\cpu.c       ****         machine_cycles_taken = 1;
 433:.\cpu.c       ****         cpu->reg.d = cpu->reg.e;
 1251              		.loc 1 433 0
 1252 0524 0379     		ldrb	r3, [r0, #4]	@ zero_extendqisi2
 1253 0526 4371     		strb	r3, [r0, #5]
 432:.\cpu.c       ****         cpu->reg.d = cpu->reg.e;
 1254              		.loc 1 432 0
 1255 0528 0120     		movs	r0, #1
 1256              	.LVL180:
 434:.\cpu.c       ****         break;
 1257              		.loc 1 434 0
 1258 052a 70BD     		pop	{r4, r5, r6, pc}
 1259              	.LVL181:
 1260              	.L72:
 435:.\cpu.c       ****         case 0x54:  //LD D,H
 436:.\cpu.c       ****         machine_cycles_taken = 1;
 437:.\cpu.c       ****         cpu->reg.d = cpu->reg.h;
 1261              		.loc 1 437 0
 1262 052c C379     		ldrb	r3, [r0, #7]	@ zero_extendqisi2
 1263 052e 4371     		strb	r3, [r0, #5]
 436:.\cpu.c       ****         cpu->reg.d = cpu->reg.h;
ARM GAS  C:\Users\raytr\AppData\Local\Temp\ccu8NuaS.s 			page 32


 1264              		.loc 1 436 0
 1265 0530 0120     		movs	r0, #1
 1266              	.LVL182:
 438:.\cpu.c       ****         break;
 1267              		.loc 1 438 0
 1268 0532 70BD     		pop	{r4, r5, r6, pc}
 1269              	.LVL183:
 1270              	.L73:
 439:.\cpu.c       ****         case 0x55:  //LD D,L
 440:.\cpu.c       ****         machine_cycles_taken = 1;
 441:.\cpu.c       ****         cpu->reg.d = cpu->reg.l;
 1271              		.loc 1 441 0
 1272 0534 8379     		ldrb	r3, [r0, #6]	@ zero_extendqisi2
 1273 0536 4371     		strb	r3, [r0, #5]
 440:.\cpu.c       ****         cpu->reg.d = cpu->reg.l;
 1274              		.loc 1 440 0
 1275 0538 0120     		movs	r0, #1
 1276              	.LVL184:
 442:.\cpu.c       ****         break;
 1277              		.loc 1 442 0
 1278 053a 70BD     		pop	{r4, r5, r6, pc}
 1279              	.LVL185:
 1280              	.L74:
 443:.\cpu.c       ****         case 0x56:  //LD D,(HL) 
 444:.\cpu.c       ****         machine_cycles_taken = 2;
 445:.\cpu.c       ****         cpu->reg.d = fetch(&cpu->mem, cpu->reg.hl, cpu->inBios);
 1281              		.loc 1 445 0
 1282 053c 0C30     		adds	r0, r0, #12
 1283              	.LVL186:
 1284 053e E188     		ldrh	r1, [r4, #6]
 1285 0540 44F20C03 		movw	r3, #16396
 1286 0544 E25C     		ldrb	r2, [r4, r3]	@ zero_extendqisi2
 1287 0546 FFF7FEFF 		bl	fetch
 1288              	.LVL187:
 1289 054a 6071     		strb	r0, [r4, #5]
 444:.\cpu.c       ****         cpu->reg.d = fetch(&cpu->mem, cpu->reg.hl, cpu->inBios);
 1290              		.loc 1 444 0
 1291 054c 0220     		movs	r0, #2
 446:.\cpu.c       ****         break;
 1292              		.loc 1 446 0
 1293 054e 70BD     		pop	{r4, r5, r6, pc}
 1294              	.LVL188:
 1295              	.L75:
 447:.\cpu.c       ****         case 0x57:  //LD D,A
 448:.\cpu.c       ****         machine_cycles_taken = 1;
 449:.\cpu.c       ****         cpu->reg.d = cpu->reg.a;
 1296              		.loc 1 449 0
 1297 0550 4378     		ldrb	r3, [r0, #1]	@ zero_extendqisi2
 1298 0552 4371     		strb	r3, [r0, #5]
 448:.\cpu.c       ****         cpu->reg.d = cpu->reg.a;
 1299              		.loc 1 448 0
 1300 0554 0120     		movs	r0, #1
 1301              	.LVL189:
 450:.\cpu.c       ****         break;
 1302              		.loc 1 450 0
 1303 0556 70BD     		pop	{r4, r5, r6, pc}
 1304              	.LVL190:
ARM GAS  C:\Users\raytr\AppData\Local\Temp\ccu8NuaS.s 			page 33


 1305              	.L76:
 451:.\cpu.c       ****         case 0x58:  //LD E,B
 452:.\cpu.c       ****         machine_cycles_taken = 1;
 453:.\cpu.c       ****         cpu->reg.e = cpu->reg.b;
 1306              		.loc 1 453 0
 1307 0558 C378     		ldrb	r3, [r0, #3]	@ zero_extendqisi2
 1308 055a 0371     		strb	r3, [r0, #4]
 452:.\cpu.c       ****         cpu->reg.e = cpu->reg.b;
 1309              		.loc 1 452 0
 1310 055c 0120     		movs	r0, #1
 1311              	.LVL191:
 454:.\cpu.c       ****         break;
 1312              		.loc 1 454 0
 1313 055e 70BD     		pop	{r4, r5, r6, pc}
 1314              	.LVL192:
 1315              	.L77:
 455:.\cpu.c       ****         case 0x59:  //LD E,C
 456:.\cpu.c       ****         machine_cycles_taken = 1;
 457:.\cpu.c       ****         cpu->reg.e = cpu->reg.c;
 1316              		.loc 1 457 0
 1317 0560 8378     		ldrb	r3, [r0, #2]	@ zero_extendqisi2
 1318 0562 0371     		strb	r3, [r0, #4]
 456:.\cpu.c       ****         cpu->reg.e = cpu->reg.c;
 1319              		.loc 1 456 0
 1320 0564 0120     		movs	r0, #1
 1321              	.LVL193:
 458:.\cpu.c       ****         break;
 1322              		.loc 1 458 0
 1323 0566 70BD     		pop	{r4, r5, r6, pc}
 1324              	.LVL194:
 1325              	.L78:
 459:.\cpu.c       ****         case 0x5A:  //LD E,D
 460:.\cpu.c       ****         machine_cycles_taken = 1;
 461:.\cpu.c       ****         cpu->reg.e = cpu->reg.d;
 1326              		.loc 1 461 0
 1327 0568 4379     		ldrb	r3, [r0, #5]	@ zero_extendqisi2
 1328 056a 0371     		strb	r3, [r0, #4]
 460:.\cpu.c       ****         cpu->reg.e = cpu->reg.d;
 1329              		.loc 1 460 0
 1330 056c 0120     		movs	r0, #1
 1331              	.LVL195:
 462:.\cpu.c       ****         break;
 1332              		.loc 1 462 0
 1333 056e 70BD     		pop	{r4, r5, r6, pc}
 1334              	.LVL196:
 1335              	.L79:
 463:.\cpu.c       ****         case 0x5B:  //LD E,E
 464:.\cpu.c       ****         machine_cycles_taken = 1;
 465:.\cpu.c       ****         break;
 466:.\cpu.c       ****         case 0x5C:  //LD E,H
 467:.\cpu.c       ****         machine_cycles_taken = 1;
 468:.\cpu.c       ****         cpu->reg.e = cpu->reg.h;
 1336              		.loc 1 468 0
 1337 0570 C379     		ldrb	r3, [r0, #7]	@ zero_extendqisi2
 1338 0572 0371     		strb	r3, [r0, #4]
 467:.\cpu.c       ****         cpu->reg.e = cpu->reg.h;
 1339              		.loc 1 467 0
ARM GAS  C:\Users\raytr\AppData\Local\Temp\ccu8NuaS.s 			page 34


 1340 0574 0120     		movs	r0, #1
 1341              	.LVL197:
 469:.\cpu.c       ****         break;
 1342              		.loc 1 469 0
 1343 0576 70BD     		pop	{r4, r5, r6, pc}
 1344              	.LVL198:
 1345              	.L80:
 470:.\cpu.c       ****         case 0x5D:  //LD E,L
 471:.\cpu.c       ****         machine_cycles_taken = 1;
 472:.\cpu.c       ****         cpu->reg.e = cpu->reg.l;
 1346              		.loc 1 472 0
 1347 0578 8379     		ldrb	r3, [r0, #6]	@ zero_extendqisi2
 1348 057a 0371     		strb	r3, [r0, #4]
 471:.\cpu.c       ****         cpu->reg.e = cpu->reg.l;
 1349              		.loc 1 471 0
 1350 057c 0120     		movs	r0, #1
 1351              	.LVL199:
 473:.\cpu.c       ****         break;
 1352              		.loc 1 473 0
 1353 057e 70BD     		pop	{r4, r5, r6, pc}
 1354              	.LVL200:
 1355              	.L81:
 474:.\cpu.c       ****         case 0x5E:  //LD E,(HL)
 475:.\cpu.c       ****         machine_cycles_taken = 2;
 476:.\cpu.c       ****         cpu->reg.e = fetch(&cpu->mem, cpu->reg.hl, cpu->inBios);
 1356              		.loc 1 476 0
 1357 0580 0C30     		adds	r0, r0, #12
 1358              	.LVL201:
 1359 0582 E188     		ldrh	r1, [r4, #6]
 1360 0584 44F20C03 		movw	r3, #16396
 1361 0588 E25C     		ldrb	r2, [r4, r3]	@ zero_extendqisi2
 1362 058a FFF7FEFF 		bl	fetch
 1363              	.LVL202:
 1364 058e 2071     		strb	r0, [r4, #4]
 475:.\cpu.c       ****         cpu->reg.e = fetch(&cpu->mem, cpu->reg.hl, cpu->inBios);
 1365              		.loc 1 475 0
 1366 0590 0220     		movs	r0, #2
 477:.\cpu.c       ****         break;
 1367              		.loc 1 477 0
 1368 0592 70BD     		pop	{r4, r5, r6, pc}
 1369              	.LVL203:
 1370              	.L82:
 478:.\cpu.c       ****         case 0x5F:  //LD E,A
 479:.\cpu.c       ****         machine_cycles_taken = 1;
 480:.\cpu.c       ****         cpu->reg.e = cpu->reg.a;
 1371              		.loc 1 480 0
 1372 0594 4378     		ldrb	r3, [r0, #1]	@ zero_extendqisi2
 1373 0596 0371     		strb	r3, [r0, #4]
 479:.\cpu.c       ****         cpu->reg.e = cpu->reg.a;
 1374              		.loc 1 479 0
 1375 0598 0120     		movs	r0, #1
 1376              	.LVL204:
 481:.\cpu.c       ****         break;
 1377              		.loc 1 481 0
 1378 059a 70BD     		pop	{r4, r5, r6, pc}
 1379              	.LVL205:
 1380              	.L83:
ARM GAS  C:\Users\raytr\AppData\Local\Temp\ccu8NuaS.s 			page 35


 482:.\cpu.c       ****         case 0x60:  //LD H,B
 483:.\cpu.c       ****         machine_cycles_taken = 1;
 484:.\cpu.c       ****         cpu->reg.h = cpu->reg.b;
 1381              		.loc 1 484 0
 1382 059c C378     		ldrb	r3, [r0, #3]	@ zero_extendqisi2
 1383 059e C371     		strb	r3, [r0, #7]
 483:.\cpu.c       ****         cpu->reg.h = cpu->reg.b;
 1384              		.loc 1 483 0
 1385 05a0 0120     		movs	r0, #1
 1386              	.LVL206:
 485:.\cpu.c       ****         break;
 1387              		.loc 1 485 0
 1388 05a2 70BD     		pop	{r4, r5, r6, pc}
 1389              	.LVL207:
 1390              	.L84:
 486:.\cpu.c       ****         case 0x61:  //LD H,C
 487:.\cpu.c       ****         machine_cycles_taken = 1;
 488:.\cpu.c       ****         cpu->reg.h = cpu->reg.c;
 1391              		.loc 1 488 0
 1392 05a4 8378     		ldrb	r3, [r0, #2]	@ zero_extendqisi2
 1393 05a6 C371     		strb	r3, [r0, #7]
 487:.\cpu.c       ****         cpu->reg.h = cpu->reg.c;
 1394              		.loc 1 487 0
 1395 05a8 0120     		movs	r0, #1
 1396              	.LVL208:
 489:.\cpu.c       ****         break;
 1397              		.loc 1 489 0
 1398 05aa 70BD     		pop	{r4, r5, r6, pc}
 1399              	.LVL209:
 1400              	.L85:
 490:.\cpu.c       ****         case 0x62:  //LD H,D
 491:.\cpu.c       ****         machine_cycles_taken = 1;
 492:.\cpu.c       ****         cpu->reg.h = cpu->reg.d;
 1401              		.loc 1 492 0
 1402 05ac 4379     		ldrb	r3, [r0, #5]	@ zero_extendqisi2
 1403 05ae C371     		strb	r3, [r0, #7]
 491:.\cpu.c       ****         cpu->reg.h = cpu->reg.d;
 1404              		.loc 1 491 0
 1405 05b0 0120     		movs	r0, #1
 1406              	.LVL210:
 493:.\cpu.c       ****         break;
 1407              		.loc 1 493 0
 1408 05b2 70BD     		pop	{r4, r5, r6, pc}
 1409              	.LVL211:
 1410              	.L86:
 494:.\cpu.c       ****         case 0x63:  //LD H,E
 495:.\cpu.c       ****         machine_cycles_taken = 1;
 496:.\cpu.c       ****         cpu->reg.h = cpu->reg.e;
 1411              		.loc 1 496 0
 1412 05b4 0379     		ldrb	r3, [r0, #4]	@ zero_extendqisi2
 1413 05b6 C371     		strb	r3, [r0, #7]
 495:.\cpu.c       ****         cpu->reg.h = cpu->reg.e;
 1414              		.loc 1 495 0
 1415 05b8 0120     		movs	r0, #1
 1416              	.LVL212:
 497:.\cpu.c       ****         break;
 1417              		.loc 1 497 0
ARM GAS  C:\Users\raytr\AppData\Local\Temp\ccu8NuaS.s 			page 36


 1418 05ba 70BD     		pop	{r4, r5, r6, pc}
 1419              	.LVL213:
 1420              	.L87:
 498:.\cpu.c       ****         case 0x64:  //LD H,H 
 499:.\cpu.c       ****         machine_cycles_taken = 1;
 500:.\cpu.c       ****         break;
 501:.\cpu.c       ****         case 0x65:  //LD H,L
 502:.\cpu.c       ****         machine_cycles_taken = 1;
 503:.\cpu.c       ****         cpu->reg.h = cpu->reg.l;
 1421              		.loc 1 503 0
 1422 05bc 8379     		ldrb	r3, [r0, #6]	@ zero_extendqisi2
 1423 05be C371     		strb	r3, [r0, #7]
 502:.\cpu.c       ****         cpu->reg.h = cpu->reg.l;
 1424              		.loc 1 502 0
 1425 05c0 0120     		movs	r0, #1
 1426              	.LVL214:
 504:.\cpu.c       ****         break;
 1427              		.loc 1 504 0
 1428 05c2 70BD     		pop	{r4, r5, r6, pc}
 1429              	.LVL215:
 1430              	.L88:
 505:.\cpu.c       ****         case 0x66:  //LD H,(HL)
 506:.\cpu.c       ****         machine_cycles_taken = 2;
 507:.\cpu.c       ****         cpu->reg.h = fetch(&cpu->mem, cpu->reg.hl, cpu->inBios);
 1431              		.loc 1 507 0
 1432 05c4 0C30     		adds	r0, r0, #12
 1433              	.LVL216:
 1434 05c6 E188     		ldrh	r1, [r4, #6]
 1435 05c8 44F20C03 		movw	r3, #16396
 1436 05cc E25C     		ldrb	r2, [r4, r3]	@ zero_extendqisi2
 1437 05ce FFF7FEFF 		bl	fetch
 1438              	.LVL217:
 1439 05d2 E071     		strb	r0, [r4, #7]
 506:.\cpu.c       ****         cpu->reg.h = fetch(&cpu->mem, cpu->reg.hl, cpu->inBios);
 1440              		.loc 1 506 0
 1441 05d4 0220     		movs	r0, #2
 508:.\cpu.c       ****         break;
 1442              		.loc 1 508 0
 1443 05d6 70BD     		pop	{r4, r5, r6, pc}
 1444              	.LVL218:
 1445              	.L89:
 509:.\cpu.c       ****         case 0x67:  //LD H,A
 510:.\cpu.c       ****         machine_cycles_taken = 1;
 511:.\cpu.c       ****         cpu->reg.h = cpu->reg.a;
 1446              		.loc 1 511 0
 1447 05d8 4378     		ldrb	r3, [r0, #1]	@ zero_extendqisi2
 1448 05da C371     		strb	r3, [r0, #7]
 510:.\cpu.c       ****         cpu->reg.h = cpu->reg.a;
 1449              		.loc 1 510 0
 1450 05dc 0120     		movs	r0, #1
 1451              	.LVL219:
 512:.\cpu.c       ****         break;
 1452              		.loc 1 512 0
 1453 05de 70BD     		pop	{r4, r5, r6, pc}
 1454              	.LVL220:
 1455              	.L90:
 513:.\cpu.c       ****         case 0x68:  //LD L,B
ARM GAS  C:\Users\raytr\AppData\Local\Temp\ccu8NuaS.s 			page 37


 514:.\cpu.c       ****         machine_cycles_taken = 1;
 515:.\cpu.c       ****         cpu->reg.l = cpu->reg.b;
 1456              		.loc 1 515 0
 1457 05e0 C378     		ldrb	r3, [r0, #3]	@ zero_extendqisi2
 1458 05e2 8371     		strb	r3, [r0, #6]
 514:.\cpu.c       ****         cpu->reg.l = cpu->reg.b;
 1459              		.loc 1 514 0
 1460 05e4 0120     		movs	r0, #1
 1461              	.LVL221:
 516:.\cpu.c       ****         break;
 1462              		.loc 1 516 0
 1463 05e6 70BD     		pop	{r4, r5, r6, pc}
 1464              	.LVL222:
 1465              	.L91:
 517:.\cpu.c       ****         case 0x69:  //LD L,C 
 518:.\cpu.c       ****         machine_cycles_taken = 1;
 519:.\cpu.c       ****         cpu->reg.l = cpu->reg.c;
 1466              		.loc 1 519 0
 1467 05e8 8378     		ldrb	r3, [r0, #2]	@ zero_extendqisi2
 1468 05ea 8371     		strb	r3, [r0, #6]
 518:.\cpu.c       ****         cpu->reg.l = cpu->reg.c;
 1469              		.loc 1 518 0
 1470 05ec 0120     		movs	r0, #1
 1471              	.LVL223:
 520:.\cpu.c       ****         break;
 1472              		.loc 1 520 0
 1473 05ee 70BD     		pop	{r4, r5, r6, pc}
 1474              	.LVL224:
 1475              	.L92:
 521:.\cpu.c       ****         case 0x6A:  //LD L,D
 522:.\cpu.c       ****         machine_cycles_taken = 1;
 523:.\cpu.c       ****         cpu->reg.l = cpu->reg.d;
 1476              		.loc 1 523 0
 1477 05f0 4379     		ldrb	r3, [r0, #5]	@ zero_extendqisi2
 1478 05f2 8371     		strb	r3, [r0, #6]
 522:.\cpu.c       ****         cpu->reg.l = cpu->reg.d;
 1479              		.loc 1 522 0
 1480 05f4 0120     		movs	r0, #1
 1481              	.LVL225:
 524:.\cpu.c       ****         break;
 1482              		.loc 1 524 0
 1483 05f6 70BD     		pop	{r4, r5, r6, pc}
 1484              	.LVL226:
 1485              	.L93:
 525:.\cpu.c       ****         case 0x6B:  //LD L,E
 526:.\cpu.c       ****         machine_cycles_taken = 1;
 527:.\cpu.c       ****         cpu->reg.l = cpu->reg.e;
 1486              		.loc 1 527 0
 1487 05f8 0379     		ldrb	r3, [r0, #4]	@ zero_extendqisi2
 1488 05fa 8371     		strb	r3, [r0, #6]
 526:.\cpu.c       ****         cpu->reg.l = cpu->reg.e;
 1489              		.loc 1 526 0
 1490 05fc 0120     		movs	r0, #1
 1491              	.LVL227:
 528:.\cpu.c       ****         break;
 1492              		.loc 1 528 0
 1493 05fe 70BD     		pop	{r4, r5, r6, pc}
ARM GAS  C:\Users\raytr\AppData\Local\Temp\ccu8NuaS.s 			page 38


 1494              	.LVL228:
 1495              	.L94:
 529:.\cpu.c       ****         case 0x6C:  //LD L,H
 530:.\cpu.c       ****         machine_cycles_taken = 1;
 531:.\cpu.c       ****         cpu->reg.l = cpu->reg.h;
 1496              		.loc 1 531 0
 1497 0600 C379     		ldrb	r3, [r0, #7]	@ zero_extendqisi2
 1498 0602 8371     		strb	r3, [r0, #6]
 530:.\cpu.c       ****         cpu->reg.l = cpu->reg.h;
 1499              		.loc 1 530 0
 1500 0604 0120     		movs	r0, #1
 1501              	.LVL229:
 532:.\cpu.c       ****         break;
 1502              		.loc 1 532 0
 1503 0606 70BD     		pop	{r4, r5, r6, pc}
 1504              	.LVL230:
 1505              	.L95:
 533:.\cpu.c       ****         case 0x6D:  //LD L,L
 534:.\cpu.c       ****         machine_cycles_taken = 1;
 535:.\cpu.c       ****         break;
 536:.\cpu.c       ****         case 0x6E:  //LD L,(HL)
 537:.\cpu.c       ****         machine_cycles_taken = 2;
 538:.\cpu.c       ****         cpu->reg.l = fetch(&cpu->mem, cpu->reg.hl, cpu->inBios);
 1506              		.loc 1 538 0
 1507 0608 0C30     		adds	r0, r0, #12
 1508              	.LVL231:
 1509 060a E188     		ldrh	r1, [r4, #6]
 1510 060c 44F20C03 		movw	r3, #16396
 1511 0610 E25C     		ldrb	r2, [r4, r3]	@ zero_extendqisi2
 1512 0612 FFF7FEFF 		bl	fetch
 1513              	.LVL232:
 1514 0616 A071     		strb	r0, [r4, #6]
 537:.\cpu.c       ****         cpu->reg.l = fetch(&cpu->mem, cpu->reg.hl, cpu->inBios);
 1515              		.loc 1 537 0
 1516 0618 0220     		movs	r0, #2
 539:.\cpu.c       ****         break;
 1517              		.loc 1 539 0
 1518 061a 70BD     		pop	{r4, r5, r6, pc}
 1519              	.LVL233:
 1520              	.L96:
 540:.\cpu.c       ****         case 0x6F:  //LD L,A
 541:.\cpu.c       ****         machine_cycles_taken = 1;
 542:.\cpu.c       ****         cpu->reg.l = cpu->reg.a;
 1521              		.loc 1 542 0
 1522 061c 4378     		ldrb	r3, [r0, #1]	@ zero_extendqisi2
 1523 061e 8371     		strb	r3, [r0, #6]
 541:.\cpu.c       ****         cpu->reg.l = cpu->reg.a;
 1524              		.loc 1 541 0
 1525 0620 0120     		movs	r0, #1
 1526              	.LVL234:
 543:.\cpu.c       ****         break;
 1527              		.loc 1 543 0
 1528 0622 70BD     		pop	{r4, r5, r6, pc}
 1529              	.LVL235:
 1530              	.L97:
 544:.\cpu.c       ****         case 0x70:  //LD (HL),B 
 545:.\cpu.c       ****         machine_cycles_taken = 2;
ARM GAS  C:\Users\raytr\AppData\Local\Temp\ccu8NuaS.s 			page 39


 546:.\cpu.c       ****         write_mem(&cpu->mem, cpu->reg.hl, cpu->reg.b);
 1531              		.loc 1 546 0
 1532 0624 0C30     		adds	r0, r0, #12
 1533              	.LVL236:
 1534 0626 E188     		ldrh	r1, [r4, #6]
 1535 0628 E278     		ldrb	r2, [r4, #3]	@ zero_extendqisi2
 1536 062a FFF7FEFF 		bl	write_mem
 1537              	.LVL237:
 545:.\cpu.c       ****         write_mem(&cpu->mem, cpu->reg.hl, cpu->reg.b);
 1538              		.loc 1 545 0
 1539 062e 0220     		movs	r0, #2
 547:.\cpu.c       ****         break;
 1540              		.loc 1 547 0
 1541 0630 70BD     		pop	{r4, r5, r6, pc}
 1542              	.LVL238:
 1543              	.L98:
 548:.\cpu.c       ****         case 0x71:  //LD (HL),C
 549:.\cpu.c       ****         machine_cycles_taken = 2;
 550:.\cpu.c       ****         write_mem(&cpu->mem, cpu->reg.hl, cpu->reg.c);
 1544              		.loc 1 550 0
 1545 0632 0C30     		adds	r0, r0, #12
 1546              	.LVL239:
 1547 0634 E188     		ldrh	r1, [r4, #6]
 1548 0636 A278     		ldrb	r2, [r4, #2]	@ zero_extendqisi2
 1549 0638 FFF7FEFF 		bl	write_mem
 1550              	.LVL240:
 549:.\cpu.c       ****         write_mem(&cpu->mem, cpu->reg.hl, cpu->reg.c);
 1551              		.loc 1 549 0
 1552 063c 0220     		movs	r0, #2
 551:.\cpu.c       ****         break;
 1553              		.loc 1 551 0
 1554 063e 70BD     		pop	{r4, r5, r6, pc}
 1555              	.LVL241:
 1556              	.L99:
 552:.\cpu.c       ****         case 0x72:  //LD (HL),D 
 553:.\cpu.c       ****         machine_cycles_taken = 2;
 554:.\cpu.c       ****         write_mem(&cpu->mem, cpu->reg.hl, cpu->reg.d);
 1557              		.loc 1 554 0
 1558 0640 0C30     		adds	r0, r0, #12
 1559              	.LVL242:
 1560 0642 E188     		ldrh	r1, [r4, #6]
 1561 0644 6279     		ldrb	r2, [r4, #5]	@ zero_extendqisi2
 1562 0646 FFF7FEFF 		bl	write_mem
 1563              	.LVL243:
 553:.\cpu.c       ****         write_mem(&cpu->mem, cpu->reg.hl, cpu->reg.d);
 1564              		.loc 1 553 0
 1565 064a 0220     		movs	r0, #2
 555:.\cpu.c       ****         break;
 1566              		.loc 1 555 0
 1567 064c 70BD     		pop	{r4, r5, r6, pc}
 1568              	.LVL244:
 1569              	.L100:
 556:.\cpu.c       ****         case 0x73:  //LD (HL),E
 557:.\cpu.c       ****         machine_cycles_taken = 2;
 558:.\cpu.c       ****         write_mem(&cpu->mem, cpu->reg.hl, cpu->reg.e);
 1570              		.loc 1 558 0
 1571 064e 0C30     		adds	r0, r0, #12
ARM GAS  C:\Users\raytr\AppData\Local\Temp\ccu8NuaS.s 			page 40


 1572              	.LVL245:
 1573 0650 E188     		ldrh	r1, [r4, #6]
 1574 0652 2279     		ldrb	r2, [r4, #4]	@ zero_extendqisi2
 1575 0654 FFF7FEFF 		bl	write_mem
 1576              	.LVL246:
 557:.\cpu.c       ****         write_mem(&cpu->mem, cpu->reg.hl, cpu->reg.e);
 1577              		.loc 1 557 0
 1578 0658 0220     		movs	r0, #2
 559:.\cpu.c       ****         break;
 1579              		.loc 1 559 0
 1580 065a 70BD     		pop	{r4, r5, r6, pc}
 1581              	.LVL247:
 1582              	.L101:
 560:.\cpu.c       ****         case 0x74:  //LD (HL),H
 561:.\cpu.c       ****         machine_cycles_taken = 2;
 562:.\cpu.c       ****         write_mem(&cpu->mem, cpu->reg.hl, cpu->reg.h);
 1583              		.loc 1 562 0
 1584 065c 0C30     		adds	r0, r0, #12
 1585              	.LVL248:
 1586 065e E188     		ldrh	r1, [r4, #6]
 1587 0660 E279     		ldrb	r2, [r4, #7]	@ zero_extendqisi2
 1588 0662 FFF7FEFF 		bl	write_mem
 1589              	.LVL249:
 561:.\cpu.c       ****         write_mem(&cpu->mem, cpu->reg.hl, cpu->reg.h);
 1590              		.loc 1 561 0
 1591 0666 0220     		movs	r0, #2
 563:.\cpu.c       ****         break;
 1592              		.loc 1 563 0
 1593 0668 70BD     		pop	{r4, r5, r6, pc}
 1594              	.LVL250:
 1595              	.L102:
 564:.\cpu.c       ****         case 0x75:  //LD (HL),L
 565:.\cpu.c       ****         machine_cycles_taken = 2;
 566:.\cpu.c       ****         write_mem(&cpu->mem, cpu->reg.hl, cpu->reg.l);
 1596              		.loc 1 566 0
 1597 066a 0C30     		adds	r0, r0, #12
 1598              	.LVL251:
 1599 066c E188     		ldrh	r1, [r4, #6]
 1600 066e A279     		ldrb	r2, [r4, #6]	@ zero_extendqisi2
 1601 0670 FFF7FEFF 		bl	write_mem
 1602              	.LVL252:
 565:.\cpu.c       ****         write_mem(&cpu->mem, cpu->reg.hl, cpu->reg.l);
 1603              		.loc 1 565 0
 1604 0674 0220     		movs	r0, #2
 567:.\cpu.c       ****         break;
 1605              		.loc 1 567 0
 1606 0676 70BD     		pop	{r4, r5, r6, pc}
 1607              	.LVL253:
 1608              	.L103:
 568:.\cpu.c       ****         case 0x76:  //HALT 
 569:.\cpu.c       ****         //@@@@@@@@@@@@@@@@@@@@@@@@@@@@@@@@@@@@@@@@@@@@@@@@@@@@@@@@@@@@@@@@@@@@@@@
 570:.\cpu.c       ****         break;
 571:.\cpu.c       ****         case 0x77:  //LD (HL),A
 572:.\cpu.c       ****         machine_cycles_taken = 2;
 573:.\cpu.c       ****         write_mem(&cpu->mem, cpu->reg.hl, cpu->reg.a);
 1609              		.loc 1 573 0
 1610 0678 0C30     		adds	r0, r0, #12
ARM GAS  C:\Users\raytr\AppData\Local\Temp\ccu8NuaS.s 			page 41


 1611              	.LVL254:
 1612 067a E188     		ldrh	r1, [r4, #6]
 1613 067c 6278     		ldrb	r2, [r4, #1]	@ zero_extendqisi2
 1614 067e FFF7FEFF 		bl	write_mem
 1615              	.LVL255:
 572:.\cpu.c       ****         write_mem(&cpu->mem, cpu->reg.hl, cpu->reg.a);
 1616              		.loc 1 572 0
 1617 0682 0220     		movs	r0, #2
 574:.\cpu.c       ****         break;
 1618              		.loc 1 574 0
 1619 0684 70BD     		pop	{r4, r5, r6, pc}
 1620              	.LVL256:
 1621              	.L104:
 575:.\cpu.c       ****         case 0x78:  //LD A,B
 576:.\cpu.c       ****         machine_cycles_taken = 1;
 577:.\cpu.c       ****         cpu->reg.a = cpu->reg.b;
 1622              		.loc 1 577 0
 1623 0686 C378     		ldrb	r3, [r0, #3]	@ zero_extendqisi2
 1624 0688 4370     		strb	r3, [r0, #1]
 576:.\cpu.c       ****         cpu->reg.a = cpu->reg.b;
 1625              		.loc 1 576 0
 1626 068a 0120     		movs	r0, #1
 1627              	.LVL257:
 578:.\cpu.c       ****         break;
 1628              		.loc 1 578 0
 1629 068c 70BD     		pop	{r4, r5, r6, pc}
 1630              	.LVL258:
 1631              	.L105:
 579:.\cpu.c       ****         case 0x79:  //LD A,C
 580:.\cpu.c       ****         machine_cycles_taken = 1;
 581:.\cpu.c       ****         cpu->reg.a = cpu->reg.c;
 1632              		.loc 1 581 0
 1633 068e 8378     		ldrb	r3, [r0, #2]	@ zero_extendqisi2
 1634 0690 4370     		strb	r3, [r0, #1]
 580:.\cpu.c       ****         cpu->reg.a = cpu->reg.c;
 1635              		.loc 1 580 0
 1636 0692 0120     		movs	r0, #1
 1637              	.LVL259:
 582:.\cpu.c       ****         break;
 1638              		.loc 1 582 0
 1639 0694 70BD     		pop	{r4, r5, r6, pc}
 1640              	.LVL260:
 1641              	.L106:
 583:.\cpu.c       ****         case 0x7A:  //LD A,D
 584:.\cpu.c       ****         machine_cycles_taken = 1;
 585:.\cpu.c       ****         cpu->reg.a = cpu->reg.d;
 1642              		.loc 1 585 0
 1643 0696 4379     		ldrb	r3, [r0, #5]	@ zero_extendqisi2
 1644 0698 4370     		strb	r3, [r0, #1]
 584:.\cpu.c       ****         cpu->reg.a = cpu->reg.d;
 1645              		.loc 1 584 0
 1646 069a 0120     		movs	r0, #1
 1647              	.LVL261:
 586:.\cpu.c       ****         break;
 1648              		.loc 1 586 0
 1649 069c 70BD     		pop	{r4, r5, r6, pc}
 1650              	.LVL262:
ARM GAS  C:\Users\raytr\AppData\Local\Temp\ccu8NuaS.s 			page 42


 1651              	.L107:
 587:.\cpu.c       ****         case 0x7B:  //LD A,E
 588:.\cpu.c       ****         machine_cycles_taken = 1;
 589:.\cpu.c       ****         cpu->reg.a = cpu->reg.e;
 1652              		.loc 1 589 0
 1653 069e 0379     		ldrb	r3, [r0, #4]	@ zero_extendqisi2
 1654 06a0 4370     		strb	r3, [r0, #1]
 588:.\cpu.c       ****         cpu->reg.a = cpu->reg.e;
 1655              		.loc 1 588 0
 1656 06a2 0120     		movs	r0, #1
 1657              	.LVL263:
 590:.\cpu.c       ****         break;
 1658              		.loc 1 590 0
 1659 06a4 70BD     		pop	{r4, r5, r6, pc}
 1660              	.LVL264:
 1661              	.L108:
 591:.\cpu.c       ****         case 0x7C:  //LD A,H 
 592:.\cpu.c       ****         machine_cycles_taken = 1;
 593:.\cpu.c       ****         cpu->reg.a = cpu->reg.h;
 1662              		.loc 1 593 0
 1663 06a6 C379     		ldrb	r3, [r0, #7]	@ zero_extendqisi2
 1664 06a8 4370     		strb	r3, [r0, #1]
 592:.\cpu.c       ****         cpu->reg.a = cpu->reg.h;
 1665              		.loc 1 592 0
 1666 06aa 0120     		movs	r0, #1
 1667              	.LVL265:
 594:.\cpu.c       ****         break;
 1668              		.loc 1 594 0
 1669 06ac 70BD     		pop	{r4, r5, r6, pc}
 1670              	.LVL266:
 1671              	.L109:
 595:.\cpu.c       ****         case 0x7D:  //LD A,L
 596:.\cpu.c       ****         machine_cycles_taken = 1;
 597:.\cpu.c       ****         cpu->reg.a = cpu->reg.l;
 1672              		.loc 1 597 0
 1673 06ae 8379     		ldrb	r3, [r0, #6]	@ zero_extendqisi2
 1674 06b0 4370     		strb	r3, [r0, #1]
 596:.\cpu.c       ****         cpu->reg.a = cpu->reg.l;
 1675              		.loc 1 596 0
 1676 06b2 0120     		movs	r0, #1
 1677              	.LVL267:
 598:.\cpu.c       ****         break;
 1678              		.loc 1 598 0
 1679 06b4 70BD     		pop	{r4, r5, r6, pc}
 1680              	.LVL268:
 1681              	.L110:
 599:.\cpu.c       ****         case 0x7E:  //LD A,(HL)
 600:.\cpu.c       ****         machine_cycles_taken = 2;
 601:.\cpu.c       ****         cpu->reg.a = fetch(&cpu->mem, cpu->reg.hl, cpu->inBios);
 1682              		.loc 1 601 0
 1683 06b6 0C30     		adds	r0, r0, #12
 1684              	.LVL269:
 1685 06b8 E188     		ldrh	r1, [r4, #6]
 1686 06ba 44F20C03 		movw	r3, #16396
 1687 06be E25C     		ldrb	r2, [r4, r3]	@ zero_extendqisi2
 1688 06c0 FFF7FEFF 		bl	fetch
 1689              	.LVL270:
ARM GAS  C:\Users\raytr\AppData\Local\Temp\ccu8NuaS.s 			page 43


 1690 06c4 6070     		strb	r0, [r4, #1]
 600:.\cpu.c       ****         cpu->reg.a = fetch(&cpu->mem, cpu->reg.hl, cpu->inBios);
 1691              		.loc 1 600 0
 1692 06c6 0220     		movs	r0, #2
 602:.\cpu.c       ****         break;
 1693              		.loc 1 602 0
 1694 06c8 70BD     		pop	{r4, r5, r6, pc}
 1695              	.LVL271:
 1696              	.L111:
 603:.\cpu.c       ****         case 0x7F:  //LD A,A 
 604:.\cpu.c       ****         machine_cycles_taken = 1;
 605:.\cpu.c       ****         break;
 606:.\cpu.c       ****         case 0x80:  //ADD A,B
 607:.\cpu.c       ****         machine_cycles_taken = 1;
 608:.\cpu.c       ****         cpu->reg.a = add_8t(cpu, cpu->reg.a, cpu->reg.b);
 1697              		.loc 1 608 0
 1698 06ca 4278     		ldrb	r2, [r0, #1]	@ zero_extendqisi2
 1699 06cc C378     		ldrb	r3, [r0, #3]	@ zero_extendqisi2
 1700              	.LVL272:
 1701              	.LBB190:
 1702              	.LBB191:
  52:.\cpu.c       **** }
 1703              		.loc 1 52 0
 1704 06ce 1344     		add	r3, r3, r2
 1705              	.LVL273:
 1706              	.LBE191:
 1707              	.LBE190:
 1708              		.loc 1 608 0
 1709 06d0 4370     		strb	r3, [r0, #1]
 607:.\cpu.c       ****         cpu->reg.a = add_8t(cpu, cpu->reg.a, cpu->reg.b);
 1710              		.loc 1 607 0
 1711 06d2 0120     		movs	r0, #1
 1712              	.LVL274:
 609:.\cpu.c       ****         break;
 1713              		.loc 1 609 0
 1714 06d4 70BD     		pop	{r4, r5, r6, pc}
 1715              	.LVL275:
 1716              	.L112:
 610:.\cpu.c       ****         case 0x81:  //ADD A,C 
 611:.\cpu.c       ****         machine_cycles_taken = 1;
 612:.\cpu.c       ****         cpu->reg.a = add_8t(cpu, cpu->reg.a, cpu->reg.c);
 1717              		.loc 1 612 0
 1718 06d6 4278     		ldrb	r2, [r0, #1]	@ zero_extendqisi2
 1719 06d8 8378     		ldrb	r3, [r0, #2]	@ zero_extendqisi2
 1720              	.LVL276:
 1721              	.LBB192:
 1722              	.LBB193:
  52:.\cpu.c       **** }
 1723              		.loc 1 52 0
 1724 06da 1344     		add	r3, r3, r2
 1725              	.LVL277:
 1726              	.LBE193:
 1727              	.LBE192:
 1728              		.loc 1 612 0
 1729 06dc 4370     		strb	r3, [r0, #1]
 611:.\cpu.c       ****         cpu->reg.a = add_8t(cpu, cpu->reg.a, cpu->reg.c);
 1730              		.loc 1 611 0
ARM GAS  C:\Users\raytr\AppData\Local\Temp\ccu8NuaS.s 			page 44


 1731 06de 0120     		movs	r0, #1
 1732              	.LVL278:
 613:.\cpu.c       ****         break;
 1733              		.loc 1 613 0
 1734 06e0 70BD     		pop	{r4, r5, r6, pc}
 1735              	.LVL279:
 1736              	.L113:
 614:.\cpu.c       ****         case 0x82:  //ADD A,D
 615:.\cpu.c       ****         machine_cycles_taken = 1;
 616:.\cpu.c       ****         cpu->reg.a = add_8t(cpu, cpu->reg.a, cpu->reg.d);
 1737              		.loc 1 616 0
 1738 06e2 4278     		ldrb	r2, [r0, #1]	@ zero_extendqisi2
 1739 06e4 4379     		ldrb	r3, [r0, #5]	@ zero_extendqisi2
 1740              	.LVL280:
 1741              	.LBB194:
 1742              	.LBB195:
  52:.\cpu.c       **** }
 1743              		.loc 1 52 0
 1744 06e6 1344     		add	r3, r3, r2
 1745              	.LVL281:
 1746              	.LBE195:
 1747              	.LBE194:
 1748              		.loc 1 616 0
 1749 06e8 4370     		strb	r3, [r0, #1]
 615:.\cpu.c       ****         cpu->reg.a = add_8t(cpu, cpu->reg.a, cpu->reg.d);
 1750              		.loc 1 615 0
 1751 06ea 0120     		movs	r0, #1
 1752              	.LVL282:
 617:.\cpu.c       ****         break;
 1753              		.loc 1 617 0
 1754 06ec 70BD     		pop	{r4, r5, r6, pc}
 1755              	.LVL283:
 1756              	.L114:
 618:.\cpu.c       ****         case 0x83:  //ADD A,E
 619:.\cpu.c       ****         machine_cycles_taken = 1;
 620:.\cpu.c       ****         cpu->reg.a = add_8t(cpu, cpu->reg.a, cpu->reg.e);
 1757              		.loc 1 620 0
 1758 06ee 4278     		ldrb	r2, [r0, #1]	@ zero_extendqisi2
 1759 06f0 0379     		ldrb	r3, [r0, #4]	@ zero_extendqisi2
 1760              	.LVL284:
 1761              	.LBB196:
 1762              	.LBB197:
  52:.\cpu.c       **** }
 1763              		.loc 1 52 0
 1764 06f2 1344     		add	r3, r3, r2
 1765              	.LVL285:
 1766              	.LBE197:
 1767              	.LBE196:
 1768              		.loc 1 620 0
 1769 06f4 4370     		strb	r3, [r0, #1]
 619:.\cpu.c       ****         cpu->reg.a = add_8t(cpu, cpu->reg.a, cpu->reg.e);
 1770              		.loc 1 619 0
 1771 06f6 0120     		movs	r0, #1
 1772              	.LVL286:
 621:.\cpu.c       ****         break;
 1773              		.loc 1 621 0
 1774 06f8 70BD     		pop	{r4, r5, r6, pc}
ARM GAS  C:\Users\raytr\AppData\Local\Temp\ccu8NuaS.s 			page 45


 1775              	.LVL287:
 1776              	.L115:
 622:.\cpu.c       ****         case 0x84:  //ADD A,H 
 623:.\cpu.c       ****         machine_cycles_taken = 1;
 624:.\cpu.c       ****         cpu->reg.a = add_8t(cpu, cpu->reg.a, cpu->reg.h);
 1777              		.loc 1 624 0
 1778 06fa 4278     		ldrb	r2, [r0, #1]	@ zero_extendqisi2
 1779 06fc C379     		ldrb	r3, [r0, #7]	@ zero_extendqisi2
 1780              	.LVL288:
 1781              	.LBB198:
 1782              	.LBB199:
  52:.\cpu.c       **** }
 1783              		.loc 1 52 0
 1784 06fe 1344     		add	r3, r3, r2
 1785              	.LVL289:
 1786              	.LBE199:
 1787              	.LBE198:
 1788              		.loc 1 624 0
 1789 0700 4370     		strb	r3, [r0, #1]
 623:.\cpu.c       ****         cpu->reg.a = add_8t(cpu, cpu->reg.a, cpu->reg.h);
 1790              		.loc 1 623 0
 1791 0702 0120     		movs	r0, #1
 1792              	.LVL290:
 625:.\cpu.c       ****         break;
 1793              		.loc 1 625 0
 1794 0704 70BD     		pop	{r4, r5, r6, pc}
 1795              	.LVL291:
 1796              	.L116:
 626:.\cpu.c       ****         case 0x85:  //ADD A,L
 627:.\cpu.c       ****         machine_cycles_taken = 1;
 628:.\cpu.c       ****         cpu->reg.a = add_8t(cpu, cpu->reg.a, cpu->reg.l);
 1797              		.loc 1 628 0
 1798 0706 4278     		ldrb	r2, [r0, #1]	@ zero_extendqisi2
 1799 0708 8379     		ldrb	r3, [r0, #6]	@ zero_extendqisi2
 1800              	.LVL292:
 1801              	.LBB200:
 1802              	.LBB201:
  52:.\cpu.c       **** }
 1803              		.loc 1 52 0
 1804 070a 1344     		add	r3, r3, r2
 1805              	.LVL293:
 1806              	.LBE201:
 1807              	.LBE200:
 1808              		.loc 1 628 0
 1809 070c 4370     		strb	r3, [r0, #1]
 627:.\cpu.c       ****         cpu->reg.a = add_8t(cpu, cpu->reg.a, cpu->reg.l);
 1810              		.loc 1 627 0
 1811 070e 0120     		movs	r0, #1
 1812              	.LVL294:
 629:.\cpu.c       ****         break;
 1813              		.loc 1 629 0
 1814 0710 70BD     		pop	{r4, r5, r6, pc}
 1815              	.LVL295:
 1816              	.L117:
 630:.\cpu.c       ****         case 0x86:  //ADD A,(HL)
 631:.\cpu.c       ****         machine_cycles_taken = 2;
 632:.\cpu.c       ****         cpu->reg.a = add_8t(cpu, cpu->reg.a, fetch(&cpu->mem, cpu->reg.hl, cpu->inBios));
ARM GAS  C:\Users\raytr\AppData\Local\Temp\ccu8NuaS.s 			page 46


 1817              		.loc 1 632 0
 1818 0712 4578     		ldrb	r5, [r0, #1]	@ zero_extendqisi2
 1819 0714 0C30     		adds	r0, r0, #12
 1820              	.LVL296:
 1821 0716 E188     		ldrh	r1, [r4, #6]
 1822 0718 44F20C03 		movw	r3, #16396
 1823 071c E25C     		ldrb	r2, [r4, r3]	@ zero_extendqisi2
 1824 071e FFF7FEFF 		bl	fetch
 1825              	.LVL297:
 1826              	.LBB202:
 1827              	.LBB203:
  52:.\cpu.c       **** }
 1828              		.loc 1 52 0
 1829 0722 2844     		add	r0, r0, r5
 1830              	.LVL298:
 1831              	.LBE203:
 1832              	.LBE202:
 1833              		.loc 1 632 0
 1834 0724 6070     		strb	r0, [r4, #1]
 631:.\cpu.c       ****         cpu->reg.a = add_8t(cpu, cpu->reg.a, fetch(&cpu->mem, cpu->reg.hl, cpu->inBios));
 1835              		.loc 1 631 0
 1836 0726 0220     		movs	r0, #2
 633:.\cpu.c       ****         break;
 1837              		.loc 1 633 0
 1838 0728 70BD     		pop	{r4, r5, r6, pc}
 1839              	.LVL299:
 1840              	.L118:
 634:.\cpu.c       ****         case 0x87:  //ADD A,A
 635:.\cpu.c       ****         machine_cycles_taken = 1;
 636:.\cpu.c       ****         cpu->reg.a = add_8t(cpu, cpu->reg.a, cpu->reg.a);
 1841              		.loc 1 636 0
 1842 072a 4378     		ldrb	r3, [r0, #1]	@ zero_extendqisi2
 1843              	.LVL300:
 1844              	.LBB204:
 1845              	.LBB205:
  52:.\cpu.c       **** }
 1846              		.loc 1 52 0
 1847 072c 5B00     		lsls	r3, r3, #1
 1848              	.LVL301:
 1849              	.LBE205:
 1850              	.LBE204:
 1851              		.loc 1 636 0
 1852 072e 4370     		strb	r3, [r0, #1]
 1853              	.LVL302:
 635:.\cpu.c       ****         cpu->reg.a = add_8t(cpu, cpu->reg.a, cpu->reg.a);
 1854              		.loc 1 635 0
 1855 0730 0120     		movs	r0, #1
 1856              	.LVL303:
 637:.\cpu.c       ****         break;
 1857              		.loc 1 637 0
 1858 0732 70BD     		pop	{r4, r5, r6, pc}
 1859              	.LVL304:
 1860              	.L119:
 638:.\cpu.c       ****         case 0x88:  //ADC A,B
 639:.\cpu.c       ****         machine_cycles_taken = 1;
 640:.\cpu.c       ****         cpu->reg.a = add_8t_with_carry(cpu, cpu->reg.a, cpu->reg.b);
 1861              		.loc 1 640 0
ARM GAS  C:\Users\raytr\AppData\Local\Temp\ccu8NuaS.s 			page 47


 1862 0734 4278     		ldrb	r2, [r0, #1]	@ zero_extendqisi2
 1863 0736 C378     		ldrb	r3, [r0, #3]	@ zero_extendqisi2
 1864              	.LVL305:
 1865              	.LBB206:
 1866              	.LBB207:
  56:.\cpu.c       **** }
 1867              		.loc 1 56 0
 1868 0738 1344     		add	r3, r3, r2
 1869              	.LVL306:
 1870              	.LBE207:
 1871              	.LBE206:
 1872              		.loc 1 640 0
 1873 073a 4370     		strb	r3, [r0, #1]
 639:.\cpu.c       ****         cpu->reg.a = add_8t_with_carry(cpu, cpu->reg.a, cpu->reg.b);
 1874              		.loc 1 639 0
 1875 073c 0120     		movs	r0, #1
 1876              	.LVL307:
 641:.\cpu.c       ****         break;
 1877              		.loc 1 641 0
 1878 073e 70BD     		pop	{r4, r5, r6, pc}
 1879              	.LVL308:
 1880              	.L120:
 642:.\cpu.c       ****         case 0x89:  //ADC A,C 
 643:.\cpu.c       ****         machine_cycles_taken = 1;
 644:.\cpu.c       ****         cpu->reg.a = add_8t_with_carry(cpu, cpu->reg.a, cpu->reg.c);
 1881              		.loc 1 644 0
 1882 0740 4278     		ldrb	r2, [r0, #1]	@ zero_extendqisi2
 1883 0742 8378     		ldrb	r3, [r0, #2]	@ zero_extendqisi2
 1884              	.LVL309:
 1885              	.LBB208:
 1886              	.LBB209:
  56:.\cpu.c       **** }
 1887              		.loc 1 56 0
 1888 0744 1344     		add	r3, r3, r2
 1889              	.LVL310:
 1890              	.LBE209:
 1891              	.LBE208:
 1892              		.loc 1 644 0
 1893 0746 4370     		strb	r3, [r0, #1]
 643:.\cpu.c       ****         cpu->reg.a = add_8t_with_carry(cpu, cpu->reg.a, cpu->reg.c);
 1894              		.loc 1 643 0
 1895 0748 0120     		movs	r0, #1
 1896              	.LVL311:
 645:.\cpu.c       ****         break;
 1897              		.loc 1 645 0
 1898 074a 70BD     		pop	{r4, r5, r6, pc}
 1899              	.LVL312:
 1900              	.L121:
 646:.\cpu.c       ****         case 0x8A:  //ADC A,D
 647:.\cpu.c       ****         machine_cycles_taken = 1;
 648:.\cpu.c       ****         cpu->reg.a = add_8t_with_carry(cpu, cpu->reg.a, cpu->reg.d);
 1901              		.loc 1 648 0
 1902 074c 4278     		ldrb	r2, [r0, #1]	@ zero_extendqisi2
 1903 074e 4379     		ldrb	r3, [r0, #5]	@ zero_extendqisi2
 1904              	.LVL313:
 1905              	.LBB210:
 1906              	.LBB211:
ARM GAS  C:\Users\raytr\AppData\Local\Temp\ccu8NuaS.s 			page 48


  56:.\cpu.c       **** }
 1907              		.loc 1 56 0
 1908 0750 1344     		add	r3, r3, r2
 1909              	.LVL314:
 1910              	.LBE211:
 1911              	.LBE210:
 1912              		.loc 1 648 0
 1913 0752 4370     		strb	r3, [r0, #1]
 647:.\cpu.c       ****         cpu->reg.a = add_8t_with_carry(cpu, cpu->reg.a, cpu->reg.d);
 1914              		.loc 1 647 0
 1915 0754 0120     		movs	r0, #1
 1916              	.LVL315:
 649:.\cpu.c       ****         break;
 1917              		.loc 1 649 0
 1918 0756 70BD     		pop	{r4, r5, r6, pc}
 1919              	.LVL316:
 1920              	.L122:
 650:.\cpu.c       ****         case 0x8B:  //ADC A,E
 651:.\cpu.c       ****         machine_cycles_taken = 1;
 652:.\cpu.c       ****         cpu->reg.a = add_8t_with_carry(cpu, cpu->reg.a, cpu->reg.e);
 1921              		.loc 1 652 0
 1922 0758 4278     		ldrb	r2, [r0, #1]	@ zero_extendqisi2
 1923 075a 0379     		ldrb	r3, [r0, #4]	@ zero_extendqisi2
 1924              	.LVL317:
 1925              	.LBB212:
 1926              	.LBB213:
  56:.\cpu.c       **** }
 1927              		.loc 1 56 0
 1928 075c 1344     		add	r3, r3, r2
 1929              	.LVL318:
 1930              	.LBE213:
 1931              	.LBE212:
 1932              		.loc 1 652 0
 1933 075e 4370     		strb	r3, [r0, #1]
 651:.\cpu.c       ****         cpu->reg.a = add_8t_with_carry(cpu, cpu->reg.a, cpu->reg.e);
 1934              		.loc 1 651 0
 1935 0760 0120     		movs	r0, #1
 1936              	.LVL319:
 653:.\cpu.c       ****         break;
 1937              		.loc 1 653 0
 1938 0762 70BD     		pop	{r4, r5, r6, pc}
 1939              	.LVL320:
 1940              	.L123:
 654:.\cpu.c       ****         case 0x8C:  //ADC A,H
 655:.\cpu.c       ****         machine_cycles_taken = 1;
 656:.\cpu.c       ****         cpu->reg.a = add_8t_with_carry(cpu, cpu->reg.a, cpu->reg.h);
 1941              		.loc 1 656 0
 1942 0764 4278     		ldrb	r2, [r0, #1]	@ zero_extendqisi2
 1943 0766 C379     		ldrb	r3, [r0, #7]	@ zero_extendqisi2
 1944              	.LVL321:
 1945              	.LBB214:
 1946              	.LBB215:
  56:.\cpu.c       **** }
 1947              		.loc 1 56 0
 1948 0768 1344     		add	r3, r3, r2
 1949              	.LVL322:
 1950              	.LBE215:
ARM GAS  C:\Users\raytr\AppData\Local\Temp\ccu8NuaS.s 			page 49


 1951              	.LBE214:
 1952              		.loc 1 656 0
 1953 076a 4370     		strb	r3, [r0, #1]
 655:.\cpu.c       ****         cpu->reg.a = add_8t_with_carry(cpu, cpu->reg.a, cpu->reg.h);
 1954              		.loc 1 655 0
 1955 076c 0120     		movs	r0, #1
 1956              	.LVL323:
 657:.\cpu.c       ****         break;
 1957              		.loc 1 657 0
 1958 076e 70BD     		pop	{r4, r5, r6, pc}
 1959              	.LVL324:
 1960              	.L124:
 658:.\cpu.c       ****         case 0x8D:  //ADC A,L
 659:.\cpu.c       ****         machine_cycles_taken = 1;
 660:.\cpu.c       ****         cpu->reg.a = add_8t_with_carry(cpu, cpu->reg.a, cpu->reg.l);
 1961              		.loc 1 660 0
 1962 0770 4278     		ldrb	r2, [r0, #1]	@ zero_extendqisi2
 1963 0772 8379     		ldrb	r3, [r0, #6]	@ zero_extendqisi2
 1964              	.LVL325:
 1965              	.LBB216:
 1966              	.LBB217:
  56:.\cpu.c       **** }
 1967              		.loc 1 56 0
 1968 0774 1344     		add	r3, r3, r2
 1969              	.LVL326:
 1970              	.LBE217:
 1971              	.LBE216:
 1972              		.loc 1 660 0
 1973 0776 4370     		strb	r3, [r0, #1]
 659:.\cpu.c       ****         cpu->reg.a = add_8t_with_carry(cpu, cpu->reg.a, cpu->reg.l);
 1974              		.loc 1 659 0
 1975 0778 0120     		movs	r0, #1
 1976              	.LVL327:
 661:.\cpu.c       ****         break;
 1977              		.loc 1 661 0
 1978 077a 70BD     		pop	{r4, r5, r6, pc}
 1979              	.LVL328:
 1980              	.L125:
 662:.\cpu.c       ****         case 0x8E:  //ADC A,(HL)
 663:.\cpu.c       ****         machine_cycles_taken = 2;
 664:.\cpu.c       ****         cpu->reg.a = add_8t_with_carry(cpu, cpu->reg.a, fetch(&cpu->mem, cpu->reg.hl, cpu->inBios))
 1981              		.loc 1 664 0
 1982 077c 4578     		ldrb	r5, [r0, #1]	@ zero_extendqisi2
 1983 077e 0C30     		adds	r0, r0, #12
 1984              	.LVL329:
 1985 0780 E188     		ldrh	r1, [r4, #6]
 1986 0782 44F20C03 		movw	r3, #16396
 1987 0786 E25C     		ldrb	r2, [r4, r3]	@ zero_extendqisi2
 1988 0788 FFF7FEFF 		bl	fetch
 1989              	.LVL330:
 1990              	.LBB218:
 1991              	.LBB219:
  56:.\cpu.c       **** }
 1992              		.loc 1 56 0
 1993 078c 2844     		add	r0, r0, r5
 1994              	.LVL331:
 1995              	.LBE219:
ARM GAS  C:\Users\raytr\AppData\Local\Temp\ccu8NuaS.s 			page 50


 1996              	.LBE218:
 1997              		.loc 1 664 0
 1998 078e 6070     		strb	r0, [r4, #1]
 663:.\cpu.c       ****         cpu->reg.a = add_8t_with_carry(cpu, cpu->reg.a, fetch(&cpu->mem, cpu->reg.hl, cpu->inBios))
 1999              		.loc 1 663 0
 2000 0790 0220     		movs	r0, #2
 665:.\cpu.c       ****         break;
 2001              		.loc 1 665 0
 2002 0792 70BD     		pop	{r4, r5, r6, pc}
 2003              	.LVL332:
 2004              	.L126:
 666:.\cpu.c       ****         case 0x8F:  //ADC A,A
 667:.\cpu.c       ****         machine_cycles_taken = 1;
 668:.\cpu.c       ****         cpu->reg.a = add_8t_with_carry(cpu, cpu->reg.a, cpu->reg.a);
 2005              		.loc 1 668 0
 2006 0794 4378     		ldrb	r3, [r0, #1]	@ zero_extendqisi2
 2007              	.LVL333:
 2008              	.LBB220:
 2009              	.LBB221:
  56:.\cpu.c       **** }
 2010              		.loc 1 56 0
 2011 0796 5B00     		lsls	r3, r3, #1
 2012              	.LVL334:
 2013              	.LBE221:
 2014              	.LBE220:
 2015              		.loc 1 668 0
 2016 0798 4370     		strb	r3, [r0, #1]
 2017              	.LVL335:
 667:.\cpu.c       ****         cpu->reg.a = add_8t_with_carry(cpu, cpu->reg.a, cpu->reg.a);
 2018              		.loc 1 667 0
 2019 079a 0120     		movs	r0, #1
 2020              	.LVL336:
 669:.\cpu.c       ****         break;
 2021              		.loc 1 669 0
 2022 079c 70BD     		pop	{r4, r5, r6, pc}
 2023              	.LVL337:
 2024              	.L127:
 670:.\cpu.c       ****         case 0x90:  //SUB A, B
 671:.\cpu.c       ****         machine_cycles_taken = 1;
 672:.\cpu.c       ****         cpu->reg.a = sub_8t(cpu, cpu->reg.a, cpu->reg.b);
 2025              		.loc 1 672 0
 2026 079e 4378     		ldrb	r3, [r0, #1]	@ zero_extendqisi2
 2027 07a0 C278     		ldrb	r2, [r0, #3]	@ zero_extendqisi2
 2028              	.LVL338:
 2029              	.LBB222:
 2030              	.LBB223:
  60:.\cpu.c       **** }
 2031              		.loc 1 60 0
 2032 07a2 9B1A     		subs	r3, r3, r2
 2033              	.LVL339:
 2034              	.LBE223:
 2035              	.LBE222:
 2036              		.loc 1 672 0
 2037 07a4 4370     		strb	r3, [r0, #1]
 2038              	.LVL340:
 671:.\cpu.c       ****         cpu->reg.a = sub_8t(cpu, cpu->reg.a, cpu->reg.b);
 2039              		.loc 1 671 0
ARM GAS  C:\Users\raytr\AppData\Local\Temp\ccu8NuaS.s 			page 51


 2040 07a6 0120     		movs	r0, #1
 2041              	.LVL341:
 673:.\cpu.c       ****         break;
 2042              		.loc 1 673 0
 2043 07a8 70BD     		pop	{r4, r5, r6, pc}
 2044              	.LVL342:
 2045              	.L128:
 674:.\cpu.c       ****         case 0x91:  //SUB A, C
 675:.\cpu.c       ****         machine_cycles_taken = 1;
 676:.\cpu.c       ****         cpu->reg.a = sub_8t(cpu, cpu->reg.a, cpu->reg.c);
 2046              		.loc 1 676 0
 2047 07aa 4378     		ldrb	r3, [r0, #1]	@ zero_extendqisi2
 2048 07ac 8278     		ldrb	r2, [r0, #2]	@ zero_extendqisi2
 2049              	.LVL343:
 2050              	.LBB224:
 2051              	.LBB225:
  60:.\cpu.c       **** }
 2052              		.loc 1 60 0
 2053 07ae 9B1A     		subs	r3, r3, r2
 2054              	.LVL344:
 2055              	.LBE225:
 2056              	.LBE224:
 2057              		.loc 1 676 0
 2058 07b0 4370     		strb	r3, [r0, #1]
 2059              	.LVL345:
 675:.\cpu.c       ****         cpu->reg.a = sub_8t(cpu, cpu->reg.a, cpu->reg.c);
 2060              		.loc 1 675 0
 2061 07b2 0120     		movs	r0, #1
 2062              	.LVL346:
 677:.\cpu.c       ****         break;
 2063              		.loc 1 677 0
 2064 07b4 70BD     		pop	{r4, r5, r6, pc}
 2065              	.LVL347:
 2066              	.L129:
 678:.\cpu.c       ****         case 0x92:  //SUB A, D
 679:.\cpu.c       ****         machine_cycles_taken = 1;
 680:.\cpu.c       ****         cpu->reg.a = sub_8t(cpu, cpu->reg.a, cpu->reg.d);
 2067              		.loc 1 680 0
 2068 07b6 4378     		ldrb	r3, [r0, #1]	@ zero_extendqisi2
 2069 07b8 4279     		ldrb	r2, [r0, #5]	@ zero_extendqisi2
 2070              	.LVL348:
 2071              	.LBB226:
 2072              	.LBB227:
  60:.\cpu.c       **** }
 2073              		.loc 1 60 0
 2074 07ba 9B1A     		subs	r3, r3, r2
 2075              	.LVL349:
 2076              	.LBE227:
 2077              	.LBE226:
 2078              		.loc 1 680 0
 2079 07bc 4370     		strb	r3, [r0, #1]
 2080              	.LVL350:
 679:.\cpu.c       ****         cpu->reg.a = sub_8t(cpu, cpu->reg.a, cpu->reg.d);
 2081              		.loc 1 679 0
 2082 07be 0120     		movs	r0, #1
 2083              	.LVL351:
 681:.\cpu.c       ****         break;
ARM GAS  C:\Users\raytr\AppData\Local\Temp\ccu8NuaS.s 			page 52


 2084              		.loc 1 681 0
 2085 07c0 70BD     		pop	{r4, r5, r6, pc}
 2086              	.LVL352:
 2087              	.L130:
 682:.\cpu.c       ****         case 0x93:  //SUB A, E
 683:.\cpu.c       ****         machine_cycles_taken = 1;
 684:.\cpu.c       ****         cpu->reg.a = sub_8t(cpu, cpu->reg.a, cpu->reg.e);
 2088              		.loc 1 684 0
 2089 07c2 4378     		ldrb	r3, [r0, #1]	@ zero_extendqisi2
 2090 07c4 0279     		ldrb	r2, [r0, #4]	@ zero_extendqisi2
 2091              	.LVL353:
 2092              	.LBB228:
 2093              	.LBB229:
  60:.\cpu.c       **** }
 2094              		.loc 1 60 0
 2095 07c6 9B1A     		subs	r3, r3, r2
 2096              	.LVL354:
 2097              	.LBE229:
 2098              	.LBE228:
 2099              		.loc 1 684 0
 2100 07c8 4370     		strb	r3, [r0, #1]
 2101              	.LVL355:
 683:.\cpu.c       ****         cpu->reg.a = sub_8t(cpu, cpu->reg.a, cpu->reg.e);
 2102              		.loc 1 683 0
 2103 07ca 0120     		movs	r0, #1
 2104              	.LVL356:
 685:.\cpu.c       ****         break;
 2105              		.loc 1 685 0
 2106 07cc 70BD     		pop	{r4, r5, r6, pc}
 2107              	.LVL357:
 2108              	.L131:
 686:.\cpu.c       ****         case 0x94:  //SUB A, H
 687:.\cpu.c       ****         machine_cycles_taken = 1;
 688:.\cpu.c       ****         cpu->reg.a = sub_8t(cpu, cpu->reg.a, cpu->reg.h);
 2109              		.loc 1 688 0
 2110 07ce 4378     		ldrb	r3, [r0, #1]	@ zero_extendqisi2
 2111 07d0 C279     		ldrb	r2, [r0, #7]	@ zero_extendqisi2
 2112              	.LVL358:
 2113              	.LBB230:
 2114              	.LBB231:
  60:.\cpu.c       **** }
 2115              		.loc 1 60 0
 2116 07d2 9B1A     		subs	r3, r3, r2
 2117              	.LVL359:
 2118              	.LBE231:
 2119              	.LBE230:
 2120              		.loc 1 688 0
 2121 07d4 4370     		strb	r3, [r0, #1]
 2122              	.LVL360:
 687:.\cpu.c       ****         cpu->reg.a = sub_8t(cpu, cpu->reg.a, cpu->reg.h);
 2123              		.loc 1 687 0
 2124 07d6 0120     		movs	r0, #1
 2125              	.LVL361:
 689:.\cpu.c       ****         break;
 2126              		.loc 1 689 0
 2127 07d8 70BD     		pop	{r4, r5, r6, pc}
 2128              	.LVL362:
ARM GAS  C:\Users\raytr\AppData\Local\Temp\ccu8NuaS.s 			page 53


 2129              	.L132:
 690:.\cpu.c       ****         case 0x95:  //SUB A, L
 691:.\cpu.c       ****         machine_cycles_taken = 1;
 692:.\cpu.c       ****         cpu->reg.a = sub_8t(cpu, cpu->reg.a, cpu->reg.l);
 2130              		.loc 1 692 0
 2131 07da 4378     		ldrb	r3, [r0, #1]	@ zero_extendqisi2
 2132 07dc 8279     		ldrb	r2, [r0, #6]	@ zero_extendqisi2
 2133              	.LVL363:
 2134              	.LBB232:
 2135              	.LBB233:
  60:.\cpu.c       **** }
 2136              		.loc 1 60 0
 2137 07de 9B1A     		subs	r3, r3, r2
 2138              	.LVL364:
 2139              	.LBE233:
 2140              	.LBE232:
 2141              		.loc 1 692 0
 2142 07e0 4370     		strb	r3, [r0, #1]
 2143              	.LVL365:
 691:.\cpu.c       ****         cpu->reg.a = sub_8t(cpu, cpu->reg.a, cpu->reg.l);
 2144              		.loc 1 691 0
 2145 07e2 0120     		movs	r0, #1
 2146              	.LVL366:
 693:.\cpu.c       ****         break;
 2147              		.loc 1 693 0
 2148 07e4 70BD     		pop	{r4, r5, r6, pc}
 2149              	.LVL367:
 2150              	.L133:
 694:.\cpu.c       ****         case 0x96:  //SUB A, (HL)
 695:.\cpu.c       ****         machine_cycles_taken = 2;
 696:.\cpu.c       ****         cpu->reg.a = sub_8t(cpu, cpu->reg.a, fetch(&cpu->mem, cpu->reg.hl, cpu->inBios));
 2151              		.loc 1 696 0
 2152 07e6 4578     		ldrb	r5, [r0, #1]	@ zero_extendqisi2
 2153 07e8 0C30     		adds	r0, r0, #12
 2154              	.LVL368:
 2155 07ea E188     		ldrh	r1, [r4, #6]
 2156 07ec 44F20C03 		movw	r3, #16396
 2157 07f0 E25C     		ldrb	r2, [r4, r3]	@ zero_extendqisi2
 2158 07f2 FFF7FEFF 		bl	fetch
 2159              	.LVL369:
 2160              	.LBB234:
 2161              	.LBB235:
  60:.\cpu.c       **** }
 2162              		.loc 1 60 0
 2163 07f6 281A     		subs	r0, r5, r0
 2164              	.LVL370:
 2165              	.LBE235:
 2166              	.LBE234:
 2167              		.loc 1 696 0
 2168 07f8 6070     		strb	r0, [r4, #1]
 695:.\cpu.c       ****         cpu->reg.a = sub_8t(cpu, cpu->reg.a, fetch(&cpu->mem, cpu->reg.hl, cpu->inBios));
 2169              		.loc 1 695 0
 2170 07fa 0220     		movs	r0, #2
 697:.\cpu.c       ****         break;
 2171              		.loc 1 697 0
 2172 07fc 70BD     		pop	{r4, r5, r6, pc}
 2173              	.LVL371:
ARM GAS  C:\Users\raytr\AppData\Local\Temp\ccu8NuaS.s 			page 54


 2174              	.L134:
 698:.\cpu.c       ****         case 0x97:  //SUB A, A
 699:.\cpu.c       ****         machine_cycles_taken = 1;
 700:.\cpu.c       ****         cpu->reg.a = sub_8t(cpu, cpu->reg.a, cpu->reg.a);
 2175              		.loc 1 700 0
 2176 07fe 0023     		movs	r3, #0
 2177 0800 4370     		strb	r3, [r0, #1]
 2178              	.LVL372:
 699:.\cpu.c       ****         cpu->reg.a = sub_8t(cpu, cpu->reg.a, cpu->reg.a);
 2179              		.loc 1 699 0
 2180 0802 0120     		movs	r0, #1
 2181              	.LVL373:
 701:.\cpu.c       ****         break;
 2182              		.loc 1 701 0
 2183 0804 70BD     		pop	{r4, r5, r6, pc}
 2184              	.LVL374:
 2185              	.L135:
 702:.\cpu.c       ****         case 0x98:  //SBC A B
 703:.\cpu.c       ****         machine_cycles_taken = 1;
 704:.\cpu.c       ****         cpu->reg.a = sub_8t_with_carry(cpu, cpu->reg.a, cpu->reg.b);
 2186              		.loc 1 704 0
 2187 0806 4378     		ldrb	r3, [r0, #1]	@ zero_extendqisi2
 2188 0808 C278     		ldrb	r2, [r0, #3]	@ zero_extendqisi2
 2189              	.LVL375:
 2190              	.LBB236:
 2191              	.LBB237:
  64:.\cpu.c       **** }
 2192              		.loc 1 64 0
 2193 080a 9B1A     		subs	r3, r3, r2
 2194              	.LVL376:
 2195              	.LBE237:
 2196              	.LBE236:
 2197              		.loc 1 704 0
 2198 080c 4370     		strb	r3, [r0, #1]
 2199              	.LVL377:
 703:.\cpu.c       ****         cpu->reg.a = sub_8t_with_carry(cpu, cpu->reg.a, cpu->reg.b);
 2200              		.loc 1 703 0
 2201 080e 0120     		movs	r0, #1
 2202              	.LVL378:
 705:.\cpu.c       ****         break;
 2203              		.loc 1 705 0
 2204 0810 70BD     		pop	{r4, r5, r6, pc}
 2205              	.LVL379:
 2206              	.L136:
 706:.\cpu.c       ****         case 0x99:  //SBC A C
 707:.\cpu.c       ****         machine_cycles_taken = 1;
 708:.\cpu.c       ****         cpu->reg.a = sub_8t_with_carry(cpu, cpu->reg.a, cpu->reg.c);
 2207              		.loc 1 708 0
 2208 0812 4378     		ldrb	r3, [r0, #1]	@ zero_extendqisi2
 2209 0814 8278     		ldrb	r2, [r0, #2]	@ zero_extendqisi2
 2210              	.LVL380:
 2211              	.LBB238:
 2212              	.LBB239:
  64:.\cpu.c       **** }
 2213              		.loc 1 64 0
 2214 0816 9B1A     		subs	r3, r3, r2
 2215              	.LVL381:
ARM GAS  C:\Users\raytr\AppData\Local\Temp\ccu8NuaS.s 			page 55


 2216              	.LBE239:
 2217              	.LBE238:
 2218              		.loc 1 708 0
 2219 0818 4370     		strb	r3, [r0, #1]
 2220              	.LVL382:
 707:.\cpu.c       ****         cpu->reg.a = sub_8t_with_carry(cpu, cpu->reg.a, cpu->reg.c);
 2221              		.loc 1 707 0
 2222 081a 0120     		movs	r0, #1
 2223              	.LVL383:
 709:.\cpu.c       ****         break;
 2224              		.loc 1 709 0
 2225 081c 70BD     		pop	{r4, r5, r6, pc}
 2226              	.LVL384:
 2227              	.L137:
 710:.\cpu.c       ****         case 0x9A:  //SBC A D
 711:.\cpu.c       ****         machine_cycles_taken = 1;
 712:.\cpu.c       ****         cpu->reg.a = sub_8t_with_carry(cpu, cpu->reg.a, cpu->reg.d);
 2228              		.loc 1 712 0
 2229 081e 4378     		ldrb	r3, [r0, #1]	@ zero_extendqisi2
 2230 0820 4279     		ldrb	r2, [r0, #5]	@ zero_extendqisi2
 2231              	.LVL385:
 2232              	.LBB240:
 2233              	.LBB241:
  64:.\cpu.c       **** }
 2234              		.loc 1 64 0
 2235 0822 9B1A     		subs	r3, r3, r2
 2236              	.LVL386:
 2237              	.LBE241:
 2238              	.LBE240:
 2239              		.loc 1 712 0
 2240 0824 4370     		strb	r3, [r0, #1]
 2241              	.LVL387:
 711:.\cpu.c       ****         cpu->reg.a = sub_8t_with_carry(cpu, cpu->reg.a, cpu->reg.d);
 2242              		.loc 1 711 0
 2243 0826 0120     		movs	r0, #1
 2244              	.LVL388:
 713:.\cpu.c       ****         break;
 2245              		.loc 1 713 0
 2246 0828 70BD     		pop	{r4, r5, r6, pc}
 2247              	.LVL389:
 2248              	.L138:
 714:.\cpu.c       ****         case 0x9B:  //SBC A E
 715:.\cpu.c       ****         machine_cycles_taken = 1;
 716:.\cpu.c       ****         cpu->reg.a = sub_8t_with_carry(cpu, cpu->reg.a, cpu->reg.e);
 2249              		.loc 1 716 0
 2250 082a 4378     		ldrb	r3, [r0, #1]	@ zero_extendqisi2
 2251 082c 0279     		ldrb	r2, [r0, #4]	@ zero_extendqisi2
 2252              	.LVL390:
 2253              	.LBB242:
 2254              	.LBB243:
  64:.\cpu.c       **** }
 2255              		.loc 1 64 0
 2256 082e 9B1A     		subs	r3, r3, r2
 2257              	.LVL391:
 2258              	.LBE243:
 2259              	.LBE242:
 2260              		.loc 1 716 0
ARM GAS  C:\Users\raytr\AppData\Local\Temp\ccu8NuaS.s 			page 56


 2261 0830 4370     		strb	r3, [r0, #1]
 2262              	.LVL392:
 715:.\cpu.c       ****         cpu->reg.a = sub_8t_with_carry(cpu, cpu->reg.a, cpu->reg.e);
 2263              		.loc 1 715 0
 2264 0832 0120     		movs	r0, #1
 2265              	.LVL393:
 717:.\cpu.c       ****         break;
 2266              		.loc 1 717 0
 2267 0834 70BD     		pop	{r4, r5, r6, pc}
 2268              	.LVL394:
 2269              	.L139:
 718:.\cpu.c       ****         case 0x9C:  //SBC A H
 719:.\cpu.c       ****         machine_cycles_taken = 1;
 720:.\cpu.c       ****         cpu->reg.a = sub_8t_with_carry(cpu, cpu->reg.a, cpu->reg.h);
 2270              		.loc 1 720 0
 2271 0836 4378     		ldrb	r3, [r0, #1]	@ zero_extendqisi2
 2272 0838 C279     		ldrb	r2, [r0, #7]	@ zero_extendqisi2
 2273              	.LVL395:
 2274              	.LBB244:
 2275              	.LBB245:
  64:.\cpu.c       **** }
 2276              		.loc 1 64 0
 2277 083a 9B1A     		subs	r3, r3, r2
 2278              	.LVL396:
 2279              	.LBE245:
 2280              	.LBE244:
 2281              		.loc 1 720 0
 2282 083c 4370     		strb	r3, [r0, #1]
 2283              	.LVL397:
 719:.\cpu.c       ****         cpu->reg.a = sub_8t_with_carry(cpu, cpu->reg.a, cpu->reg.h);
 2284              		.loc 1 719 0
 2285 083e 0120     		movs	r0, #1
 2286              	.LVL398:
 721:.\cpu.c       ****         break;
 2287              		.loc 1 721 0
 2288 0840 70BD     		pop	{r4, r5, r6, pc}
 2289              	.LVL399:
 2290              	.L140:
 722:.\cpu.c       ****         case 0x9D:  //SBC A L
 723:.\cpu.c       ****         machine_cycles_taken = 1;
 724:.\cpu.c       ****         cpu->reg.a = sub_8t_with_carry(cpu, cpu->reg.a, cpu->reg.l);
 2291              		.loc 1 724 0
 2292 0842 4378     		ldrb	r3, [r0, #1]	@ zero_extendqisi2
 2293 0844 8279     		ldrb	r2, [r0, #6]	@ zero_extendqisi2
 2294              	.LVL400:
 2295              	.LBB246:
 2296              	.LBB247:
  64:.\cpu.c       **** }
 2297              		.loc 1 64 0
 2298 0846 9B1A     		subs	r3, r3, r2
 2299              	.LVL401:
 2300              	.LBE247:
 2301              	.LBE246:
 2302              		.loc 1 724 0
 2303 0848 4370     		strb	r3, [r0, #1]
 2304              	.LVL402:
 723:.\cpu.c       ****         cpu->reg.a = sub_8t_with_carry(cpu, cpu->reg.a, cpu->reg.l);
ARM GAS  C:\Users\raytr\AppData\Local\Temp\ccu8NuaS.s 			page 57


 2305              		.loc 1 723 0
 2306 084a 0120     		movs	r0, #1
 2307              	.LVL403:
 725:.\cpu.c       ****         break;
 2308              		.loc 1 725 0
 2309 084c 70BD     		pop	{r4, r5, r6, pc}
 2310              	.LVL404:
 2311              	.L141:
 726:.\cpu.c       ****         case 0x9E:  //SBC A HL
 727:.\cpu.c       ****         machine_cycles_taken = 2;
 728:.\cpu.c       ****         cpu->reg.a = sub_8t_with_carry(cpu, cpu->reg.a, fetch(&cpu->mem, cpu->reg.hl, cpu->inBios))
 2312              		.loc 1 728 0
 2313 084e 4578     		ldrb	r5, [r0, #1]	@ zero_extendqisi2
 2314 0850 0C30     		adds	r0, r0, #12
 2315              	.LVL405:
 2316 0852 E188     		ldrh	r1, [r4, #6]
 2317 0854 44F20C03 		movw	r3, #16396
 2318 0858 E25C     		ldrb	r2, [r4, r3]	@ zero_extendqisi2
 2319 085a FFF7FEFF 		bl	fetch
 2320              	.LVL406:
 2321              	.LBB248:
 2322              	.LBB249:
  64:.\cpu.c       **** }
 2323              		.loc 1 64 0
 2324 085e 281A     		subs	r0, r5, r0
 2325              	.LVL407:
 2326              	.LBE249:
 2327              	.LBE248:
 2328              		.loc 1 728 0
 2329 0860 6070     		strb	r0, [r4, #1]
 727:.\cpu.c       ****         cpu->reg.a = sub_8t_with_carry(cpu, cpu->reg.a, fetch(&cpu->mem, cpu->reg.hl, cpu->inBios))
 2330              		.loc 1 727 0
 2331 0862 0220     		movs	r0, #2
 729:.\cpu.c       ****         break;
 2332              		.loc 1 729 0
 2333 0864 70BD     		pop	{r4, r5, r6, pc}
 2334              	.LVL408:
 2335              	.L142:
 730:.\cpu.c       ****         case 0x9F:  //SBC A A
 731:.\cpu.c       ****         machine_cycles_taken = 1;  
 732:.\cpu.c       ****         cpu->reg.a = sub_8t_with_carry(cpu, cpu->reg.a, cpu->reg.a);
 2336              		.loc 1 732 0
 2337 0866 0023     		movs	r3, #0
 2338 0868 4370     		strb	r3, [r0, #1]
 2339              	.LVL409:
 731:.\cpu.c       ****         cpu->reg.a = sub_8t_with_carry(cpu, cpu->reg.a, cpu->reg.a);
 2340              		.loc 1 731 0
 2341 086a 0120     		movs	r0, #1
 2342              	.LVL410:
 733:.\cpu.c       ****         break;
 2343              		.loc 1 733 0
 2344 086c 70BD     		pop	{r4, r5, r6, pc}
 2345              	.LVL411:
 2346              	.L143:
 734:.\cpu.c       ****         case 0xA0:  //AND A, B
 735:.\cpu.c       ****         machine_cycles_taken = 1;
 736:.\cpu.c       ****         cpu->reg.a = and_8t(cpu, cpu->reg.a, cpu->reg.b);
ARM GAS  C:\Users\raytr\AppData\Local\Temp\ccu8NuaS.s 			page 58


 2347              		.loc 1 736 0
 2348 086e 4278     		ldrb	r2, [r0, #1]	@ zero_extendqisi2
 2349 0870 C378     		ldrb	r3, [r0, #3]	@ zero_extendqisi2
 2350              	.LVL412:
 2351              	.LBB250:
 2352              	.LBB251:
  68:.\cpu.c       **** }
 2353              		.loc 1 68 0
 2354 0872 1340     		ands	r3, r3, r2
 2355              	.LVL413:
 2356              	.LBE251:
 2357              	.LBE250:
 2358              		.loc 1 736 0
 2359 0874 4370     		strb	r3, [r0, #1]
 735:.\cpu.c       ****         cpu->reg.a = and_8t(cpu, cpu->reg.a, cpu->reg.b);
 2360              		.loc 1 735 0
 2361 0876 0120     		movs	r0, #1
 2362              	.LVL414:
 737:.\cpu.c       ****         break;
 2363              		.loc 1 737 0
 2364 0878 70BD     		pop	{r4, r5, r6, pc}
 2365              	.LVL415:
 2366              	.L144:
 738:.\cpu.c       ****         case 0xA1:  //AND A, C
 739:.\cpu.c       ****         machine_cycles_taken = 1;
 740:.\cpu.c       ****         cpu->reg.a = and_8t(cpu, cpu->reg.a, cpu->reg.c);
 2367              		.loc 1 740 0
 2368 087a 4278     		ldrb	r2, [r0, #1]	@ zero_extendqisi2
 2369 087c 8378     		ldrb	r3, [r0, #2]	@ zero_extendqisi2
 2370              	.LVL416:
 2371              	.LBB252:
 2372              	.LBB253:
  68:.\cpu.c       **** }
 2373              		.loc 1 68 0
 2374 087e 1340     		ands	r3, r3, r2
 2375              	.LVL417:
 2376              	.LBE253:
 2377              	.LBE252:
 2378              		.loc 1 740 0
 2379 0880 4370     		strb	r3, [r0, #1]
 739:.\cpu.c       ****         cpu->reg.a = and_8t(cpu, cpu->reg.a, cpu->reg.c);
 2380              		.loc 1 739 0
 2381 0882 0120     		movs	r0, #1
 2382              	.LVL418:
 741:.\cpu.c       ****         break;
 2383              		.loc 1 741 0
 2384 0884 70BD     		pop	{r4, r5, r6, pc}
 2385              	.LVL419:
 2386              	.L145:
 742:.\cpu.c       ****         case 0xA2:  //AND A, D
 743:.\cpu.c       ****         machine_cycles_taken = 1;
 744:.\cpu.c       ****         cpu->reg.a = and_8t(cpu, cpu->reg.a, cpu->reg.d);
 2387              		.loc 1 744 0
 2388 0886 4278     		ldrb	r2, [r0, #1]	@ zero_extendqisi2
 2389 0888 4379     		ldrb	r3, [r0, #5]	@ zero_extendqisi2
 2390              	.LVL420:
 2391              	.LBB254:
ARM GAS  C:\Users\raytr\AppData\Local\Temp\ccu8NuaS.s 			page 59


 2392              	.LBB255:
  68:.\cpu.c       **** }
 2393              		.loc 1 68 0
 2394 088a 1340     		ands	r3, r3, r2
 2395              	.LVL421:
 2396              	.LBE255:
 2397              	.LBE254:
 2398              		.loc 1 744 0
 2399 088c 4370     		strb	r3, [r0, #1]
 743:.\cpu.c       ****         cpu->reg.a = and_8t(cpu, cpu->reg.a, cpu->reg.d);
 2400              		.loc 1 743 0
 2401 088e 0120     		movs	r0, #1
 2402              	.LVL422:
 745:.\cpu.c       ****         break;
 2403              		.loc 1 745 0
 2404 0890 70BD     		pop	{r4, r5, r6, pc}
 2405              	.LVL423:
 2406              	.L146:
 746:.\cpu.c       ****         case 0xA3:  //AND A, E
 747:.\cpu.c       ****         machine_cycles_taken = 1;
 748:.\cpu.c       ****         cpu->reg.a = and_8t(cpu, cpu->reg.a, cpu->reg.e);
 2407              		.loc 1 748 0
 2408 0892 4278     		ldrb	r2, [r0, #1]	@ zero_extendqisi2
 2409 0894 0379     		ldrb	r3, [r0, #4]	@ zero_extendqisi2
 2410              	.LVL424:
 2411              	.LBB256:
 2412              	.LBB257:
  68:.\cpu.c       **** }
 2413              		.loc 1 68 0
 2414 0896 1340     		ands	r3, r3, r2
 2415              	.LVL425:
 2416              	.LBE257:
 2417              	.LBE256:
 2418              		.loc 1 748 0
 2419 0898 4370     		strb	r3, [r0, #1]
 747:.\cpu.c       ****         cpu->reg.a = and_8t(cpu, cpu->reg.a, cpu->reg.e);
 2420              		.loc 1 747 0
 2421 089a 0120     		movs	r0, #1
 2422              	.LVL426:
 749:.\cpu.c       ****         break;
 2423              		.loc 1 749 0
 2424 089c 70BD     		pop	{r4, r5, r6, pc}
 2425              	.LVL427:
 2426              	.L147:
 750:.\cpu.c       ****         case 0xA4:  //AND A, H
 751:.\cpu.c       ****         machine_cycles_taken = 1;
 752:.\cpu.c       ****         cpu->reg.a = and_8t(cpu, cpu->reg.a, cpu->reg.h);
 2427              		.loc 1 752 0
 2428 089e 4278     		ldrb	r2, [r0, #1]	@ zero_extendqisi2
 2429 08a0 C379     		ldrb	r3, [r0, #7]	@ zero_extendqisi2
 2430              	.LVL428:
 2431              	.LBB258:
 2432              	.LBB259:
  68:.\cpu.c       **** }
 2433              		.loc 1 68 0
 2434 08a2 1340     		ands	r3, r3, r2
 2435              	.LVL429:
ARM GAS  C:\Users\raytr\AppData\Local\Temp\ccu8NuaS.s 			page 60


 2436              	.LBE259:
 2437              	.LBE258:
 2438              		.loc 1 752 0
 2439 08a4 4370     		strb	r3, [r0, #1]
 751:.\cpu.c       ****         cpu->reg.a = and_8t(cpu, cpu->reg.a, cpu->reg.h);
 2440              		.loc 1 751 0
 2441 08a6 0120     		movs	r0, #1
 2442              	.LVL430:
 753:.\cpu.c       ****         break;
 2443              		.loc 1 753 0
 2444 08a8 70BD     		pop	{r4, r5, r6, pc}
 2445              	.LVL431:
 2446              	.L148:
 754:.\cpu.c       ****         case 0xA5:  //AND A, L
 755:.\cpu.c       ****         machine_cycles_taken = 1;
 756:.\cpu.c       ****         cpu->reg.a = and_8t(cpu, cpu->reg.a, cpu->reg.l);
 2447              		.loc 1 756 0
 2448 08aa 4278     		ldrb	r2, [r0, #1]	@ zero_extendqisi2
 2449 08ac 8379     		ldrb	r3, [r0, #6]	@ zero_extendqisi2
 2450              	.LVL432:
 2451              	.LBB260:
 2452              	.LBB261:
  68:.\cpu.c       **** }
 2453              		.loc 1 68 0
 2454 08ae 1340     		ands	r3, r3, r2
 2455              	.LVL433:
 2456              	.LBE261:
 2457              	.LBE260:
 2458              		.loc 1 756 0
 2459 08b0 4370     		strb	r3, [r0, #1]
 755:.\cpu.c       ****         cpu->reg.a = and_8t(cpu, cpu->reg.a, cpu->reg.l);
 2460              		.loc 1 755 0
 2461 08b2 0120     		movs	r0, #1
 2462              	.LVL434:
 757:.\cpu.c       ****         break;
 2463              		.loc 1 757 0
 2464 08b4 70BD     		pop	{r4, r5, r6, pc}
 2465              	.LVL435:
 2466              	.L149:
 758:.\cpu.c       ****         case 0xA6:  //AND A, (HL)
 759:.\cpu.c       ****         machine_cycles_taken = 2;
 760:.\cpu.c       ****         cpu->reg.a = and_8t(cpu, cpu->reg.a, fetch(&cpu->mem, cpu->reg.hl, cpu->inBios));
 2467              		.loc 1 760 0
 2468 08b6 4578     		ldrb	r5, [r0, #1]	@ zero_extendqisi2
 2469 08b8 0C30     		adds	r0, r0, #12
 2470              	.LVL436:
 2471 08ba E188     		ldrh	r1, [r4, #6]
 2472 08bc 44F20C03 		movw	r3, #16396
 2473 08c0 E25C     		ldrb	r2, [r4, r3]	@ zero_extendqisi2
 2474 08c2 FFF7FEFF 		bl	fetch
 2475              	.LVL437:
 2476              	.LBB262:
 2477              	.LBB263:
  68:.\cpu.c       **** }
 2478              		.loc 1 68 0
 2479 08c6 2840     		ands	r0, r0, r5
 2480              	.LVL438:
ARM GAS  C:\Users\raytr\AppData\Local\Temp\ccu8NuaS.s 			page 61


 2481              	.LBE263:
 2482              	.LBE262:
 2483              		.loc 1 760 0
 2484 08c8 6070     		strb	r0, [r4, #1]
 759:.\cpu.c       ****         cpu->reg.a = and_8t(cpu, cpu->reg.a, fetch(&cpu->mem, cpu->reg.hl, cpu->inBios));
 2485              		.loc 1 759 0
 2486 08ca 0220     		movs	r0, #2
 761:.\cpu.c       ****         break;
 2487              		.loc 1 761 0
 2488 08cc 70BD     		pop	{r4, r5, r6, pc}
 2489              	.LVL439:
 2490              	.L150:
 762:.\cpu.c       ****         case 0xA7:  //AND A, A
 763:.\cpu.c       ****         machine_cycles_taken = 1;
 764:.\cpu.c       ****         cpu->reg.a = and_8t(cpu, cpu->reg.a, cpu->reg.a);
 765:.\cpu.c       ****         break;
 766:.\cpu.c       ****         case 0xA8:  //XOR A, B
 767:.\cpu.c       ****         machine_cycles_taken = 1;
 768:.\cpu.c       ****         cpu->reg.a = xor_8t(cpu, cpu->reg.a, cpu->reg.b);
 2491              		.loc 1 768 0
 2492 08ce 4278     		ldrb	r2, [r0, #1]	@ zero_extendqisi2
 2493 08d0 C378     		ldrb	r3, [r0, #3]	@ zero_extendqisi2
 2494              	.LVL440:
 2495              	.LBB264:
 2496              	.LBB265:
  72:.\cpu.c       **** }
 2497              		.loc 1 72 0
 2498 08d2 5340     		eors	r3, r3, r2
 2499              	.LVL441:
 2500              	.LBE265:
 2501              	.LBE264:
 2502              		.loc 1 768 0
 2503 08d4 4370     		strb	r3, [r0, #1]
 767:.\cpu.c       ****         cpu->reg.a = xor_8t(cpu, cpu->reg.a, cpu->reg.b);
 2504              		.loc 1 767 0
 2505 08d6 0120     		movs	r0, #1
 2506              	.LVL442:
 769:.\cpu.c       ****         break;
 2507              		.loc 1 769 0
 2508 08d8 70BD     		pop	{r4, r5, r6, pc}
 2509              	.LVL443:
 2510              	.L151:
 770:.\cpu.c       ****         case 0xA9:  //XOR A, C
 771:.\cpu.c       ****         machine_cycles_taken = 1;
 772:.\cpu.c       ****         cpu->reg.a = xor_8t(cpu, cpu->reg.a, cpu->reg.c);
 2511              		.loc 1 772 0
 2512 08da 4278     		ldrb	r2, [r0, #1]	@ zero_extendqisi2
 2513 08dc 8378     		ldrb	r3, [r0, #2]	@ zero_extendqisi2
 2514              	.LVL444:
 2515              	.LBB266:
 2516              	.LBB267:
  72:.\cpu.c       **** }
 2517              		.loc 1 72 0
 2518 08de 5340     		eors	r3, r3, r2
 2519              	.LVL445:
 2520              	.LBE267:
 2521              	.LBE266:
ARM GAS  C:\Users\raytr\AppData\Local\Temp\ccu8NuaS.s 			page 62


 2522              		.loc 1 772 0
 2523 08e0 4370     		strb	r3, [r0, #1]
 771:.\cpu.c       ****         cpu->reg.a = xor_8t(cpu, cpu->reg.a, cpu->reg.c);
 2524              		.loc 1 771 0
 2525 08e2 0120     		movs	r0, #1
 2526              	.LVL446:
 773:.\cpu.c       ****         break;
 2527              		.loc 1 773 0
 2528 08e4 70BD     		pop	{r4, r5, r6, pc}
 2529              	.LVL447:
 2530              	.L152:
 774:.\cpu.c       ****         case 0xAA:  //XOR A, D
 775:.\cpu.c       ****         machine_cycles_taken = 1;
 776:.\cpu.c       ****         cpu->reg.a = xor_8t(cpu, cpu->reg.a, cpu->reg.d);
 2531              		.loc 1 776 0
 2532 08e6 4278     		ldrb	r2, [r0, #1]	@ zero_extendqisi2
 2533 08e8 4379     		ldrb	r3, [r0, #5]	@ zero_extendqisi2
 2534              	.LVL448:
 2535              	.LBB268:
 2536              	.LBB269:
  72:.\cpu.c       **** }
 2537              		.loc 1 72 0
 2538 08ea 5340     		eors	r3, r3, r2
 2539              	.LVL449:
 2540              	.LBE269:
 2541              	.LBE268:
 2542              		.loc 1 776 0
 2543 08ec 4370     		strb	r3, [r0, #1]
 775:.\cpu.c       ****         cpu->reg.a = xor_8t(cpu, cpu->reg.a, cpu->reg.d);
 2544              		.loc 1 775 0
 2545 08ee 0120     		movs	r0, #1
 2546              	.LVL450:
 777:.\cpu.c       ****         break;
 2547              		.loc 1 777 0
 2548 08f0 70BD     		pop	{r4, r5, r6, pc}
 2549              	.LVL451:
 2550              	.L153:
 778:.\cpu.c       ****         case 0xAB:  //XOR A, E
 779:.\cpu.c       ****         machine_cycles_taken = 1;
 780:.\cpu.c       ****         cpu->reg.a = xor_8t(cpu, cpu->reg.a, cpu->reg.e);
 2551              		.loc 1 780 0
 2552 08f2 4278     		ldrb	r2, [r0, #1]	@ zero_extendqisi2
 2553 08f4 0379     		ldrb	r3, [r0, #4]	@ zero_extendqisi2
 2554              	.LVL452:
 2555              	.LBB270:
 2556              	.LBB271:
  72:.\cpu.c       **** }
 2557              		.loc 1 72 0
 2558 08f6 5340     		eors	r3, r3, r2
 2559              	.LVL453:
 2560              	.LBE271:
 2561              	.LBE270:
 2562              		.loc 1 780 0
 2563 08f8 4370     		strb	r3, [r0, #1]
 779:.\cpu.c       ****         cpu->reg.a = xor_8t(cpu, cpu->reg.a, cpu->reg.e);
 2564              		.loc 1 779 0
 2565 08fa 0120     		movs	r0, #1
ARM GAS  C:\Users\raytr\AppData\Local\Temp\ccu8NuaS.s 			page 63


 2566              	.LVL454:
 781:.\cpu.c       ****         break;
 2567              		.loc 1 781 0
 2568 08fc 70BD     		pop	{r4, r5, r6, pc}
 2569              	.LVL455:
 2570              	.L154:
 782:.\cpu.c       ****         case 0xAC:  //XOR A, H
 783:.\cpu.c       ****         machine_cycles_taken = 1;
 784:.\cpu.c       ****         cpu->reg.a = xor_8t(cpu, cpu->reg.a, cpu->reg.h);
 2571              		.loc 1 784 0
 2572 08fe 4278     		ldrb	r2, [r0, #1]	@ zero_extendqisi2
 2573 0900 C379     		ldrb	r3, [r0, #7]	@ zero_extendqisi2
 2574              	.LVL456:
 2575              	.LBB272:
 2576              	.LBB273:
  72:.\cpu.c       **** }
 2577              		.loc 1 72 0
 2578 0902 5340     		eors	r3, r3, r2
 2579              	.LVL457:
 2580              	.LBE273:
 2581              	.LBE272:
 2582              		.loc 1 784 0
 2583 0904 4370     		strb	r3, [r0, #1]
 783:.\cpu.c       ****         cpu->reg.a = xor_8t(cpu, cpu->reg.a, cpu->reg.h);
 2584              		.loc 1 783 0
 2585 0906 0120     		movs	r0, #1
 2586              	.LVL458:
 785:.\cpu.c       ****         break;
 2587              		.loc 1 785 0
 2588 0908 70BD     		pop	{r4, r5, r6, pc}
 2589              	.LVL459:
 2590              	.L155:
 786:.\cpu.c       ****         case 0xAD:  //XOR A, L
 787:.\cpu.c       ****         machine_cycles_taken = 1;
 788:.\cpu.c       ****         cpu->reg.a = xor_8t(cpu, cpu->reg.a, cpu->reg.l);
 2591              		.loc 1 788 0
 2592 090a 4278     		ldrb	r2, [r0, #1]	@ zero_extendqisi2
 2593 090c 8379     		ldrb	r3, [r0, #6]	@ zero_extendqisi2
 2594              	.LVL460:
 2595              	.LBB274:
 2596              	.LBB275:
  72:.\cpu.c       **** }
 2597              		.loc 1 72 0
 2598 090e 5340     		eors	r3, r3, r2
 2599              	.LVL461:
 2600              	.LBE275:
 2601              	.LBE274:
 2602              		.loc 1 788 0
 2603 0910 4370     		strb	r3, [r0, #1]
 787:.\cpu.c       ****         cpu->reg.a = xor_8t(cpu, cpu->reg.a, cpu->reg.l);
 2604              		.loc 1 787 0
 2605 0912 0120     		movs	r0, #1
 2606              	.LVL462:
 789:.\cpu.c       ****         break;
 2607              		.loc 1 789 0
 2608 0914 70BD     		pop	{r4, r5, r6, pc}
 2609              	.LVL463:
ARM GAS  C:\Users\raytr\AppData\Local\Temp\ccu8NuaS.s 			page 64


 2610              	.L156:
 790:.\cpu.c       ****         case 0xAE:  //XOR A, (HL)
 791:.\cpu.c       ****         machine_cycles_taken = 2;
 792:.\cpu.c       ****         cpu->reg.a = xor_8t(cpu, cpu->reg.a, fetch(&cpu->mem, cpu->reg.hl, cpu->inBios));
 2611              		.loc 1 792 0
 2612 0916 4578     		ldrb	r5, [r0, #1]	@ zero_extendqisi2
 2613 0918 0C30     		adds	r0, r0, #12
 2614              	.LVL464:
 2615 091a E188     		ldrh	r1, [r4, #6]
 2616 091c 44F20C03 		movw	r3, #16396
 2617 0920 E25C     		ldrb	r2, [r4, r3]	@ zero_extendqisi2
 2618 0922 FFF7FEFF 		bl	fetch
 2619              	.LVL465:
 2620              	.LBB276:
 2621              	.LBB277:
  72:.\cpu.c       **** }
 2622              		.loc 1 72 0
 2623 0926 6840     		eors	r0, r0, r5
 2624              	.LVL466:
 2625              	.LBE277:
 2626              	.LBE276:
 2627              		.loc 1 792 0
 2628 0928 6070     		strb	r0, [r4, #1]
 791:.\cpu.c       ****         cpu->reg.a = xor_8t(cpu, cpu->reg.a, fetch(&cpu->mem, cpu->reg.hl, cpu->inBios));
 2629              		.loc 1 791 0
 2630 092a 0220     		movs	r0, #2
 793:.\cpu.c       ****         break;
 2631              		.loc 1 793 0
 2632 092c 70BD     		pop	{r4, r5, r6, pc}
 2633              	.LVL467:
 2634              	.L157:
 794:.\cpu.c       ****         case 0xAF:  //XOR A, A
 795:.\cpu.c       ****         machine_cycles_taken = 1;
 796:.\cpu.c       ****         cpu->reg.a = xor_8t(cpu, cpu->reg.a, cpu->reg.a);
 2635              		.loc 1 796 0
 2636 092e 0023     		movs	r3, #0
 2637 0930 4370     		strb	r3, [r0, #1]
 2638              	.LVL468:
 795:.\cpu.c       ****         cpu->reg.a = xor_8t(cpu, cpu->reg.a, cpu->reg.a);
 2639              		.loc 1 795 0
 2640 0932 0120     		movs	r0, #1
 2641              	.LVL469:
 797:.\cpu.c       ****         break;
 2642              		.loc 1 797 0
 2643 0934 70BD     		pop	{r4, r5, r6, pc}
 2644              	.LVL470:
 2645              	.L158:
 798:.\cpu.c       ****         case 0xB0:  //OR A, B
 799:.\cpu.c       ****         machine_cycles_taken = 1;
 800:.\cpu.c       ****         cpu->reg.a = or_8t(cpu, cpu->reg.a, cpu->reg.b);
 2646              		.loc 1 800 0
 2647 0936 4278     		ldrb	r2, [r0, #1]	@ zero_extendqisi2
 2648 0938 C378     		ldrb	r3, [r0, #3]	@ zero_extendqisi2
 2649              	.LVL471:
 2650              	.LBB278:
 2651              	.LBB279:
  76:.\cpu.c       **** }
ARM GAS  C:\Users\raytr\AppData\Local\Temp\ccu8NuaS.s 			page 65


 2652              		.loc 1 76 0
 2653 093a 1343     		orrs	r3, r3, r2
 2654              	.LVL472:
 2655              	.LBE279:
 2656              	.LBE278:
 2657              		.loc 1 800 0
 2658 093c 4370     		strb	r3, [r0, #1]
 799:.\cpu.c       ****         cpu->reg.a = or_8t(cpu, cpu->reg.a, cpu->reg.b);
 2659              		.loc 1 799 0
 2660 093e 0120     		movs	r0, #1
 2661              	.LVL473:
 801:.\cpu.c       ****         break;
 2662              		.loc 1 801 0
 2663 0940 70BD     		pop	{r4, r5, r6, pc}
 2664              	.LVL474:
 2665              	.L159:
 802:.\cpu.c       ****         case 0xB1:  //OR A, C
 803:.\cpu.c       ****         machine_cycles_taken = 1;
 804:.\cpu.c       ****         cpu->reg.a = or_8t(cpu, cpu->reg.a, cpu->reg.c);
 2666              		.loc 1 804 0
 2667 0942 4278     		ldrb	r2, [r0, #1]	@ zero_extendqisi2
 2668 0944 8378     		ldrb	r3, [r0, #2]	@ zero_extendqisi2
 2669              	.LVL475:
 2670              	.LBB280:
 2671              	.LBB281:
  76:.\cpu.c       **** }
 2672              		.loc 1 76 0
 2673 0946 1343     		orrs	r3, r3, r2
 2674              	.LVL476:
 2675              	.LBE281:
 2676              	.LBE280:
 2677              		.loc 1 804 0
 2678 0948 4370     		strb	r3, [r0, #1]
 803:.\cpu.c       ****         cpu->reg.a = or_8t(cpu, cpu->reg.a, cpu->reg.c);
 2679              		.loc 1 803 0
 2680 094a 0120     		movs	r0, #1
 2681              	.LVL477:
 805:.\cpu.c       ****         break;
 2682              		.loc 1 805 0
 2683 094c 70BD     		pop	{r4, r5, r6, pc}
 2684              	.LVL478:
 2685              	.L160:
 806:.\cpu.c       ****         case 0xB2:  //OR A, D
 807:.\cpu.c       ****         machine_cycles_taken = 1;
 808:.\cpu.c       ****         cpu->reg.a = or_8t(cpu, cpu->reg.a, cpu->reg.d);
 2686              		.loc 1 808 0
 2687 094e 4278     		ldrb	r2, [r0, #1]	@ zero_extendqisi2
 2688 0950 4379     		ldrb	r3, [r0, #5]	@ zero_extendqisi2
 2689              	.LVL479:
 2690              	.LBB282:
 2691              	.LBB283:
  76:.\cpu.c       **** }
 2692              		.loc 1 76 0
 2693 0952 1343     		orrs	r3, r3, r2
 2694              	.LVL480:
 2695              	.LBE283:
 2696              	.LBE282:
ARM GAS  C:\Users\raytr\AppData\Local\Temp\ccu8NuaS.s 			page 66


 2697              		.loc 1 808 0
 2698 0954 4370     		strb	r3, [r0, #1]
 807:.\cpu.c       ****         cpu->reg.a = or_8t(cpu, cpu->reg.a, cpu->reg.d);
 2699              		.loc 1 807 0
 2700 0956 0120     		movs	r0, #1
 2701              	.LVL481:
 809:.\cpu.c       ****         break;
 2702              		.loc 1 809 0
 2703 0958 70BD     		pop	{r4, r5, r6, pc}
 2704              	.LVL482:
 2705              	.L161:
 810:.\cpu.c       ****         case 0xB3:  //OR A, E
 811:.\cpu.c       ****         machine_cycles_taken = 1;
 812:.\cpu.c       ****         cpu->reg.a = or_8t(cpu, cpu->reg.a, cpu->reg.e);
 2706              		.loc 1 812 0
 2707 095a 4278     		ldrb	r2, [r0, #1]	@ zero_extendqisi2
 2708 095c 0379     		ldrb	r3, [r0, #4]	@ zero_extendqisi2
 2709              	.LVL483:
 2710              	.LBB284:
 2711              	.LBB285:
  76:.\cpu.c       **** }
 2712              		.loc 1 76 0
 2713 095e 1343     		orrs	r3, r3, r2
 2714              	.LVL484:
 2715              	.LBE285:
 2716              	.LBE284:
 2717              		.loc 1 812 0
 2718 0960 4370     		strb	r3, [r0, #1]
 811:.\cpu.c       ****         cpu->reg.a = or_8t(cpu, cpu->reg.a, cpu->reg.e);
 2719              		.loc 1 811 0
 2720 0962 0120     		movs	r0, #1
 2721              	.LVL485:
 813:.\cpu.c       ****         break;
 2722              		.loc 1 813 0
 2723 0964 70BD     		pop	{r4, r5, r6, pc}
 2724              	.LVL486:
 2725              	.L162:
 814:.\cpu.c       ****         case 0xB4:  //OR A, H
 815:.\cpu.c       ****         machine_cycles_taken = 1;
 816:.\cpu.c       ****         cpu->reg.a = or_8t(cpu, cpu->reg.a, cpu->reg.h);
 2726              		.loc 1 816 0
 2727 0966 4278     		ldrb	r2, [r0, #1]	@ zero_extendqisi2
 2728 0968 C379     		ldrb	r3, [r0, #7]	@ zero_extendqisi2
 2729              	.LVL487:
 2730              	.LBB286:
 2731              	.LBB287:
  76:.\cpu.c       **** }
 2732              		.loc 1 76 0
 2733 096a 1343     		orrs	r3, r3, r2
 2734              	.LVL488:
 2735              	.LBE287:
 2736              	.LBE286:
 2737              		.loc 1 816 0
 2738 096c 4370     		strb	r3, [r0, #1]
 815:.\cpu.c       ****         cpu->reg.a = or_8t(cpu, cpu->reg.a, cpu->reg.h);
 2739              		.loc 1 815 0
 2740 096e 0120     		movs	r0, #1
ARM GAS  C:\Users\raytr\AppData\Local\Temp\ccu8NuaS.s 			page 67


 2741              	.LVL489:
 817:.\cpu.c       ****         break;
 2742              		.loc 1 817 0
 2743 0970 70BD     		pop	{r4, r5, r6, pc}
 2744              	.LVL490:
 2745              	.L163:
 818:.\cpu.c       ****         case 0xB5:  //OR A, L
 819:.\cpu.c       ****         machine_cycles_taken = 1;
 820:.\cpu.c       ****         cpu->reg.a = or_8t(cpu, cpu->reg.a, cpu->reg.l);
 2746              		.loc 1 820 0
 2747 0972 4278     		ldrb	r2, [r0, #1]	@ zero_extendqisi2
 2748 0974 8379     		ldrb	r3, [r0, #6]	@ zero_extendqisi2
 2749              	.LVL491:
 2750              	.LBB288:
 2751              	.LBB289:
  76:.\cpu.c       **** }
 2752              		.loc 1 76 0
 2753 0976 1343     		orrs	r3, r3, r2
 2754              	.LVL492:
 2755              	.LBE289:
 2756              	.LBE288:
 2757              		.loc 1 820 0
 2758 0978 4370     		strb	r3, [r0, #1]
 819:.\cpu.c       ****         cpu->reg.a = or_8t(cpu, cpu->reg.a, cpu->reg.l);
 2759              		.loc 1 819 0
 2760 097a 0120     		movs	r0, #1
 2761              	.LVL493:
 821:.\cpu.c       ****         break;
 2762              		.loc 1 821 0
 2763 097c 70BD     		pop	{r4, r5, r6, pc}
 2764              	.LVL494:
 2765              	.L164:
 822:.\cpu.c       ****         case 0xB6:  //OR A, (HL)
 823:.\cpu.c       ****         machine_cycles_taken = 2;
 824:.\cpu.c       ****         cpu->reg.a = or_8t(cpu, cpu->reg.a, fetch(&cpu->mem, cpu->reg.hl, cpu->inBios));
 2766              		.loc 1 824 0
 2767 097e 4578     		ldrb	r5, [r0, #1]	@ zero_extendqisi2
 2768 0980 0C30     		adds	r0, r0, #12
 2769              	.LVL495:
 2770 0982 E188     		ldrh	r1, [r4, #6]
 2771 0984 44F20C03 		movw	r3, #16396
 2772 0988 E25C     		ldrb	r2, [r4, r3]	@ zero_extendqisi2
 2773 098a FFF7FEFF 		bl	fetch
 2774              	.LVL496:
 2775              	.LBB290:
 2776              	.LBB291:
  76:.\cpu.c       **** }
 2777              		.loc 1 76 0
 2778 098e 2843     		orrs	r0, r0, r5
 2779              	.LVL497:
 2780              	.LBE291:
 2781              	.LBE290:
 2782              		.loc 1 824 0
 2783 0990 6070     		strb	r0, [r4, #1]
 823:.\cpu.c       ****         cpu->reg.a = or_8t(cpu, cpu->reg.a, fetch(&cpu->mem, cpu->reg.hl, cpu->inBios));
 2784              		.loc 1 823 0
 2785 0992 0220     		movs	r0, #2
ARM GAS  C:\Users\raytr\AppData\Local\Temp\ccu8NuaS.s 			page 68


 825:.\cpu.c       ****         break;
 2786              		.loc 1 825 0
 2787 0994 70BD     		pop	{r4, r5, r6, pc}
 2788              	.LVL498:
 2789              	.L165:
 826:.\cpu.c       ****         case 0xB7:  //OR A, A
 827:.\cpu.c       ****         machine_cycles_taken = 1;
 828:.\cpu.c       ****         cpu->reg.a = or_8t(cpu, cpu->reg.a, cpu->reg.a);
 829:.\cpu.c       ****         break;
 830:.\cpu.c       ****         case 0xB8:  //CP A, B
 831:.\cpu.c       ****         machine_cycles_taken = 1;
 832:.\cpu.c       ****         sub_8t(cpu, cpu->reg.a, cpu->reg.b);
 833:.\cpu.c       ****         break;
 834:.\cpu.c       ****         case 0xB9:  //CP A, C
 835:.\cpu.c       ****         machine_cycles_taken = 1;
 836:.\cpu.c       ****         sub_8t(cpu, cpu->reg.a, cpu->reg.c);
 837:.\cpu.c       ****         break;
 838:.\cpu.c       ****         case 0xBA:  //CP A, D
 839:.\cpu.c       ****         machine_cycles_taken = 1;
 840:.\cpu.c       ****         sub_8t(cpu, cpu->reg.a, cpu->reg.d);
 841:.\cpu.c       ****         break;
 842:.\cpu.c       ****         case 0xBB:  //CP A, E
 843:.\cpu.c       ****         machine_cycles_taken = 1;
 844:.\cpu.c       ****         sub_8t(cpu, cpu->reg.a, cpu->reg.e);
 845:.\cpu.c       ****         break;
 846:.\cpu.c       ****         case 0xBC:  //CP A, H
 847:.\cpu.c       ****         machine_cycles_taken = 1;
 848:.\cpu.c       ****         sub_8t(cpu, cpu->reg.a, cpu->reg.h);
 849:.\cpu.c       ****         break;
 850:.\cpu.c       ****         case 0xBD:  //CP A, L
 851:.\cpu.c       ****         machine_cycles_taken = 1;
 852:.\cpu.c       ****         sub_8t(cpu, cpu->reg.a, cpu->reg.l);
 853:.\cpu.c       ****         break;
 854:.\cpu.c       ****         case 0xBE:  //CP A, (HL)
 855:.\cpu.c       ****         machine_cycles_taken = 2;
 856:.\cpu.c       ****         sub_8t(cpu, cpu->reg.a, fetch(&cpu->mem, cpu->reg.hl, cpu->inBios));
 2790              		.loc 1 856 0
 2791 0996 0C30     		adds	r0, r0, #12
 2792              	.LVL499:
 2793 0998 E188     		ldrh	r1, [r4, #6]
 2794 099a 44F20C03 		movw	r3, #16396
 2795 099e E25C     		ldrb	r2, [r4, r3]	@ zero_extendqisi2
 2796 09a0 FFF7FEFF 		bl	fetch
 2797              	.LVL500:
 855:.\cpu.c       ****         sub_8t(cpu, cpu->reg.a, fetch(&cpu->mem, cpu->reg.hl, cpu->inBios));
 2798              		.loc 1 855 0
 2799 09a4 0220     		movs	r0, #2
 2800 09a6 70BD     		pop	{r4, r5, r6, pc}
 2801              	.LVL501:
 2802              	.L166:
 857:.\cpu.c       ****         break;
 858:.\cpu.c       ****         case 0xBF:  //CP A, A
 859:.\cpu.c       ****         machine_cycles_taken = 1;
 860:.\cpu.c       ****         sub_8t(cpu, cpu->reg.a, cpu->reg.a);
 861:.\cpu.c       ****         break;
 862:.\cpu.c       ****         case 0xC0:  //RET NZ
 863:.\cpu.c       ****         machine_cycles_taken = 5;
ARM GAS  C:\Users\raytr\AppData\Local\Temp\ccu8NuaS.s 			page 69


 2803              		.loc 1 863 0
 2804 09a8 0520     		movs	r0, #5
 2805              	.LVL502:
 864:.\cpu.c       ****         //@@@@@@@@@@@@@@@@@@@@@@@@@@@@@@@@@@@@@@@@@@@@@@@@@@@@@@@@@@@@@@@@@@@@@@@@@@@@@@@@@
 865:.\cpu.c       ****         break;
 2806              		.loc 1 865 0
 2807 09aa 70BD     		pop	{r4, r5, r6, pc}
 2808              	.LVL503:
 2809              	.L167:
 866:.\cpu.c       ****         case 0xC1:  //POP BC
 867:.\cpu.c       ****         machine_cycles_taken = 3;
 2810              		.loc 1 867 0
 2811 09ac 0320     		movs	r0, #3
 2812              	.LVL504:
 868:.\cpu.c       ****         // @@@@@@@@@@@@@@@@@@@@@@@@@@@@@@@@@@@@@@@@@@@@@@@@@@@@@@@@@@@@@@@@@@@@@@@@@@@@@@@@
 869:.\cpu.c       ****         break;
 2813              		.loc 1 869 0
 2814 09ae 70BD     		pop	{r4, r5, r6, pc}
 2815              	.LVL505:
 2816              	.L168:
 870:.\cpu.c       ****         case 0xC2:  //JP NZ a16
 871:.\cpu.c       ****         machine_cycles_taken = 3;
 872:.\cpu.c       ****         uint16_t jpnza16_addr = fetch_and_increment_pc_twice(cpu);
 2817              		.loc 1 872 0
 2818 09b0 FFF7FEFF 		bl	fetch_and_increment_pc_twice
 2819              	.LVL506:
 2820 09b4 0546     		mov	r5, r0
 2821              	.LVL507:
 873:.\cpu.c       ****         if (!get_zero_flag(&cpu->reg)){
 2822              		.loc 1 873 0
 2823 09b6 2046     		mov	r0, r4
 2824 09b8 FFF7FEFF 		bl	get_zero_flag
 2825              	.LVL508:
 2826 09bc 0028     		cmp	r0, #0
 2827 09be 40F0F280 		bne	.L219
 2828              	.LVL509:
 874:.\cpu.c       ****             machine_cycles_taken = 4;
 875:.\cpu.c       ****             cpu->reg.pc = jpnza16_addr;
 2829              		.loc 1 875 0
 2830 09c2 2581     		strh	r5, [r4, #8]	@ movhi
 874:.\cpu.c       ****             machine_cycles_taken = 4;
 2831              		.loc 1 874 0
 2832 09c4 0420     		movs	r0, #4
 2833 09c6 70BD     		pop	{r4, r5, r6, pc}
 2834              	.LVL510:
 2835              	.L169:
 876:.\cpu.c       ****         }
 877:.\cpu.c       ****         break;
 878:.\cpu.c       ****         case 0xC3:  //JP a16
 879:.\cpu.c       ****         machine_cycles_taken = 4;
 880:.\cpu.c       ****         uint16_t jpa16_addr = fetch_and_increment_pc_twice(cpu);
 2836              		.loc 1 880 0
 2837 09c8 FFF7FEFF 		bl	fetch_and_increment_pc_twice
 2838              	.LVL511:
 881:.\cpu.c       ****         cpu->reg.pc = jpa16_addr;
 2839              		.loc 1 881 0
 2840 09cc 2081     		strh	r0, [r4, #8]	@ movhi
ARM GAS  C:\Users\raytr\AppData\Local\Temp\ccu8NuaS.s 			page 70


 879:.\cpu.c       ****         uint16_t jpa16_addr = fetch_and_increment_pc_twice(cpu);
 2841              		.loc 1 879 0
 2842 09ce 0420     		movs	r0, #4
 2843              	.LVL512:
 882:.\cpu.c       ****         break;
 2844              		.loc 1 882 0
 2845 09d0 70BD     		pop	{r4, r5, r6, pc}
 2846              	.LVL513:
 2847              	.L170:
 883:.\cpu.c       ****         case 0xC4:  //CALL NZ a16
 884:.\cpu.c       ****         machine_cycles_taken = 3;
 885:.\cpu.c       ****         uint16_t callnza16_addr = fetch_and_increment_pc_twice(cpu);
 2848              		.loc 1 885 0
 2849 09d2 FFF7FEFF 		bl	fetch_and_increment_pc_twice
 2850              	.LVL514:
 886:.\cpu.c       ****         if (!get_zero_flag(&cpu->reg)){
 2851              		.loc 1 886 0
 2852 09d6 2046     		mov	r0, r4
 2853 09d8 FFF7FEFF 		bl	get_zero_flag
 2854              	.LVL515:
 884:.\cpu.c       ****         uint16_t callnza16_addr = fetch_and_increment_pc_twice(cpu);
 2855              		.loc 1 884 0
 2856 09dc 0320     		movs	r0, #3
 887:.\cpu.c       ****             //@@@@@@@@@@@@@@@@@@@@@@@@@@@@@@@@@@@@@@@@@@@@@@@@@@@@@@@@@@@@@@@@@@@@@@@@@@@@@@@
 888:.\cpu.c       ****         }
 889:.\cpu.c       ****         break;
 2857              		.loc 1 889 0
 2858 09de 70BD     		pop	{r4, r5, r6, pc}
 2859              	.LVL516:
 2860              	.L171:
 890:.\cpu.c       ****         case 0xC5:  //PUSH BC
 891:.\cpu.c       ****         machine_cycles_taken = 4;
 2861              		.loc 1 891 0
 2862 09e0 0420     		movs	r0, #4
 2863              	.LVL517:
 892:.\cpu.c       ****         //@@@@@@@@@@@@@@@@@@@@@@@@@@@@@@@@@@@@@@@@@@@@@@@@@@@@@@@@@@@@@@@@@@@@@@
 893:.\cpu.c       ****         break;
 2864              		.loc 1 893 0
 2865 09e2 70BD     		pop	{r4, r5, r6, pc}
 2866              	.LVL518:
 2867              	.L172:
 894:.\cpu.c       ****         case 0xC6:  //ADD A d8
 895:.\cpu.c       ****         machine_cycles_taken = 2;
 896:.\cpu.c       ****         cpu->reg.a = add_8t(cpu, cpu->reg.a, fetch_and_increment_pc(cpu));
 2868              		.loc 1 896 0
 2869 09e4 4578     		ldrb	r5, [r0, #1]	@ zero_extendqisi2
 2870 09e6 FFF7FEFF 		bl	fetch_and_increment_pc
 2871              	.LVL519:
 2872              	.LBB292:
 2873              	.LBB293:
  52:.\cpu.c       **** }
 2874              		.loc 1 52 0
 2875 09ea 2844     		add	r0, r0, r5
 2876              	.LVL520:
 2877              	.LBE293:
 2878              	.LBE292:
 2879              		.loc 1 896 0
ARM GAS  C:\Users\raytr\AppData\Local\Temp\ccu8NuaS.s 			page 71


 2880 09ec 6070     		strb	r0, [r4, #1]
 895:.\cpu.c       ****         cpu->reg.a = add_8t(cpu, cpu->reg.a, fetch_and_increment_pc(cpu));
 2881              		.loc 1 895 0
 2882 09ee 0220     		movs	r0, #2
 897:.\cpu.c       ****         break;
 2883              		.loc 1 897 0
 2884 09f0 70BD     		pop	{r4, r5, r6, pc}
 2885              	.LVL521:
 2886              	.L173:
 898:.\cpu.c       ****         case 0xC7:  //RST 00H
 899:.\cpu.c       ****         machine_cycles_taken = 4;
 2887              		.loc 1 899 0
 2888 09f2 0420     		movs	r0, #4
 2889              	.LVL522:
 900:.\cpu.c       ****         //@@@@@@@@@@@@@@@@@@@@@@@@@@@@@@@@@@@@@@@@@@@@@@@@@@@@@@@@@@@@@@@@@@@@@@@@@@@
 901:.\cpu.c       ****         break;
 2890              		.loc 1 901 0
 2891 09f4 70BD     		pop	{r4, r5, r6, pc}
 2892              	.LVL523:
 2893              	.L174:
 902:.\cpu.c       ****         case 0xC8:  //RET Z
 903:.\cpu.c       ****         machine_cycles_taken = 5;
 2894              		.loc 1 903 0
 2895 09f6 0520     		movs	r0, #5
 2896              	.LVL524:
 904:.\cpu.c       ****         //@@@@@@@@@@@@@@@@@@@@@@@@@@@@@@@@@@@@@@@@@@@@@@@@@@@@@@@@@@@@@@@@@@@@@@@@@@
 905:.\cpu.c       ****         break;
 2897              		.loc 1 905 0
 2898 09f8 70BD     		pop	{r4, r5, r6, pc}
 2899              	.LVL525:
 2900              	.L175:
 906:.\cpu.c       ****         case 0xC9:  //RET
 907:.\cpu.c       ****         //@@@@@@@@@@@@@@@@@@@@@@@@@@@@@@@@@@@@@@@@@@@@@@@@@@@@@@@@@@@
 908:.\cpu.c       ****         break;
 909:.\cpu.c       ****         case 0xCA:  //JP Z a16
 910:.\cpu.c       ****         machine_cycles_taken = 4;
 2901              		.loc 1 910 0
 2902 09fa 0420     		movs	r0, #4
 2903              	.LVL526:
 911:.\cpu.c       ****         //@@@@@@@@@@@@@@@@@@@@@@@@@@@@@@@@@@@@@@@@@@@@@@@@@@@@@@@@@@@
 912:.\cpu.c       ****         break;
 2904              		.loc 1 912 0
 2905 09fc 70BD     		pop	{r4, r5, r6, pc}
 2906              	.LVL527:
 2907              	.L176:
 913:.\cpu.c       ****         case 0xCB:  //PREFIX
 914:.\cpu.c       ****         machine_cycles_taken = 1;
 915:.\cpu.c       ****         // handled by caller of this function
 916:.\cpu.c       ****         break;
 917:.\cpu.c       ****         case 0xCC:  //CALL Z a16
 918:.\cpu.c       ****         machine_cycles_taken = 6;
 2908              		.loc 1 918 0
 2909 09fe 0620     		movs	r0, #6
 2910              	.LVL528:
 919:.\cpu.c       ****         //@@@@@@@@@@@@@@@@@@@@@@@@@@@@@@@@@@@@@@@@@@@@@@@@@@@@@@@@@@@@@@@@@@@@@
 920:.\cpu.c       ****         break;
 2911              		.loc 1 920 0
ARM GAS  C:\Users\raytr\AppData\Local\Temp\ccu8NuaS.s 			page 72


 2912 0a00 70BD     		pop	{r4, r5, r6, pc}
 2913              	.LVL529:
 2914              	.L177:
 921:.\cpu.c       ****         case 0xCD:  //CALL a16
 922:.\cpu.c       ****         machine_cycles_taken = 6;
 2915              		.loc 1 922 0
 2916 0a02 0620     		movs	r0, #6
 2917              	.LVL530:
 923:.\cpu.c       ****         //@@@@@@@@@@@@@@@@@@@@@@@@@@@@@@@@@@@@@@@@@@@@@@@@@@@@@@@@@@@@@@@@@@@
 924:.\cpu.c       ****         break;
 2918              		.loc 1 924 0
 2919 0a04 70BD     		pop	{r4, r5, r6, pc}
 2920              	.LVL531:
 2921              	.L178:
 925:.\cpu.c       ****         case 0xCE:  //ADC A d8
 926:.\cpu.c       ****         machine_cycles_taken = 2;
 2922              		.loc 1 926 0
 2923 0a06 0220     		movs	r0, #2
 2924              	.LVL532:
 927:.\cpu.c       ****         //@@@@@@@@@@@@@@@@@@@@@@@@@@@@@@@@@@@@@@@@@@@@@@@@@@@@@@@@@@@@@@@@@@@@@@
 928:.\cpu.c       ****         break;
 2925              		.loc 1 928 0
 2926 0a08 70BD     		pop	{r4, r5, r6, pc}
 2927              	.LVL533:
 2928              	.L179:
 929:.\cpu.c       ****         case 0xCF:  //RST 08H
 930:.\cpu.c       ****         machine_cycles_taken = 4;
 2929              		.loc 1 930 0
 2930 0a0a 0420     		movs	r0, #4
 2931              	.LVL534:
 931:.\cpu.c       ****         //@@@@@@@@@@@@@@@@@@@@@@@@@@@@@@@@@@@@@@@@@@@@@@@@@@@@@@@@@@@@@@@@@@@
 932:.\cpu.c       ****         break;
 2932              		.loc 1 932 0
 2933 0a0c 70BD     		pop	{r4, r5, r6, pc}
 2934              	.LVL535:
 2935              	.L180:
 933:.\cpu.c       ****         case 0xD0:  //RET NC
 934:.\cpu.c       ****         machine_cycles_taken = 5;
 2936              		.loc 1 934 0
 2937 0a0e 0520     		movs	r0, #5
 2938              	.LVL536:
 935:.\cpu.c       ****         //@@@@@@@@@@@@@@@@@@@@@@@@@@@@@@@@@@@@@@@@@@@@@@@@@@@@@@@@@@@@@@@@@@@@@@@@
 936:.\cpu.c       ****         break;
 2939              		.loc 1 936 0
 2940 0a10 70BD     		pop	{r4, r5, r6, pc}
 2941              	.LVL537:
 2942              	.L181:
 937:.\cpu.c       ****         case 0xD1:  //POP DE
 938:.\cpu.c       ****         machine_cycles_taken = 3;
 2943              		.loc 1 938 0
 2944 0a12 0320     		movs	r0, #3
 2945              	.LVL538:
 939:.\cpu.c       ****         //@@@@@@@@@@@@@@@@@@@@@@@@@@@@@@@@@@@@@@@@@@@@@@@@@@@@@@@@@@@@@@@@@@@@@@@@
 940:.\cpu.c       ****         break;
 2946              		.loc 1 940 0
 2947 0a14 70BD     		pop	{r4, r5, r6, pc}
 2948              	.LVL539:
ARM GAS  C:\Users\raytr\AppData\Local\Temp\ccu8NuaS.s 			page 73


 2949              	.L182:
 941:.\cpu.c       ****         case 0xD2:  //JP NC a16
 942:.\cpu.c       ****         machine_cycles_taken = 3;
 943:.\cpu.c       ****         uint16_t jpnc_addr = fetch_and_increment_pc_twice(cpu);
 2950              		.loc 1 943 0
 2951 0a16 FFF7FEFF 		bl	fetch_and_increment_pc_twice
 2952              	.LVL540:
 2953 0a1a 0546     		mov	r5, r0
 2954              	.LVL541:
 944:.\cpu.c       ****         if (!get_carry_flag(&cpu->reg)){
 2955              		.loc 1 944 0
 2956 0a1c 2046     		mov	r0, r4
 2957 0a1e FFF7FEFF 		bl	get_carry_flag
 2958              	.LVL542:
 2959 0a22 0028     		cmp	r0, #0
 2960 0a24 40F0C180 		bne	.L220
 2961              	.LVL543:
 945:.\cpu.c       ****             machine_cycles_taken = 4;
 946:.\cpu.c       ****             cpu->reg.sp = jpnc_addr;
 2962              		.loc 1 946 0
 2963 0a28 6581     		strh	r5, [r4, #10]	@ movhi
 945:.\cpu.c       ****             machine_cycles_taken = 4;
 2964              		.loc 1 945 0
 2965 0a2a 0420     		movs	r0, #4
 2966 0a2c 70BD     		pop	{r4, r5, r6, pc}
 2967              	.LVL544:
 2968              	.L183:
 947:.\cpu.c       ****         }
 948:.\cpu.c       ****         break;
 949:.\cpu.c       ****         case 0xD3:  //ILLEGAL_D3
 950:.\cpu.c       ****         machine_cycles_taken = 1;
 951:.\cpu.c       ****         break;
 952:.\cpu.c       ****         case 0xD4:  //CALL NC a16
 953:.\cpu.c       ****         machine_cycles_taken = 6;
 2969              		.loc 1 953 0
 2970 0a2e 0620     		movs	r0, #6
 2971              	.LVL545:
 954:.\cpu.c       ****         break;
 2972              		.loc 1 954 0
 2973 0a30 70BD     		pop	{r4, r5, r6, pc}
 2974              	.LVL546:
 2975              	.L184:
 955:.\cpu.c       ****         case 0xD5:  //PUSH DE
 956:.\cpu.c       ****         machine_cycles_taken = 4;
 2976              		.loc 1 956 0
 2977 0a32 0420     		movs	r0, #4
 2978              	.LVL547:
 957:.\cpu.c       ****         //@@@@@@@@@@@@@@@@@@@@@@@@@@@@@@@@@@@@@@@@@@@@@@@@@@@@@@@@@@@@@@@@@@@@@@@@
 958:.\cpu.c       ****         break;
 2979              		.loc 1 958 0
 2980 0a34 70BD     		pop	{r4, r5, r6, pc}
 2981              	.LVL548:
 2982              	.L185:
 959:.\cpu.c       ****         case 0xD6:  //SUB A, d8
 960:.\cpu.c       ****         machine_cycles_taken = 2;
 961:.\cpu.c       ****         cpu->reg.a = sub_8t(cpu, cpu->reg.a, fetch_and_increment_pc(cpu));
 2983              		.loc 1 961 0
ARM GAS  C:\Users\raytr\AppData\Local\Temp\ccu8NuaS.s 			page 74


 2984 0a36 4578     		ldrb	r5, [r0, #1]	@ zero_extendqisi2
 2985 0a38 FFF7FEFF 		bl	fetch_and_increment_pc
 2986              	.LVL549:
 2987              	.LBB294:
 2988              	.LBB295:
  60:.\cpu.c       **** }
 2989              		.loc 1 60 0
 2990 0a3c 281A     		subs	r0, r5, r0
 2991              	.LVL550:
 2992              	.LBE295:
 2993              	.LBE294:
 2994              		.loc 1 961 0
 2995 0a3e 6070     		strb	r0, [r4, #1]
 960:.\cpu.c       ****         cpu->reg.a = sub_8t(cpu, cpu->reg.a, fetch_and_increment_pc(cpu));
 2996              		.loc 1 960 0
 2997 0a40 0220     		movs	r0, #2
 962:.\cpu.c       ****         break;
 2998              		.loc 1 962 0
 2999 0a42 70BD     		pop	{r4, r5, r6, pc}
 3000              	.LVL551:
 3001              	.L186:
 963:.\cpu.c       ****         case 0xD7:  //RST 10H
 964:.\cpu.c       ****         machine_cycles_taken = 4;
 3002              		.loc 1 964 0
 3003 0a44 0420     		movs	r0, #4
 3004              	.LVL552:
 965:.\cpu.c       ****         //@@@@@@@@@@@@@@@@@@@@@@@@@@@@@@@@@@@@@@@@@@@@@@@@@@@@@@@@@@@@@@@@@@@@@@@@
 966:.\cpu.c       ****         break;
 3005              		.loc 1 966 0
 3006 0a46 70BD     		pop	{r4, r5, r6, pc}
 3007              	.LVL553:
 3008              	.L187:
 967:.\cpu.c       ****         case 0xD8:  //RET C
 968:.\cpu.c       ****         machine_cycles_taken = 5;
 3009              		.loc 1 968 0
 3010 0a48 0520     		movs	r0, #5
 3011              	.LVL554:
 969:.\cpu.c       ****         //@@@@@@@@@@@@@@@@@@@@@@@@@@@@@@@@@@@@@@@@@@@@@@@@@@@@@@@@@@@@@@@@@@@@@@@@
 970:.\cpu.c       ****         break;
 3012              		.loc 1 970 0
 3013 0a4a 70BD     		pop	{r4, r5, r6, pc}
 3014              	.LVL555:
 3015              	.L188:
 971:.\cpu.c       ****         case 0xD9:  //RETI
 972:.\cpu.c       ****         machine_cycles_taken = 4;
 3016              		.loc 1 972 0
 3017 0a4c 0420     		movs	r0, #4
 3018              	.LVL556:
 973:.\cpu.c       ****         //@@@@@@@@@@@@@@@@@@@@@@@@@@@@@@@@@@@@@@@@@@@@@@@@@@@@@@@@@@@@@@@@@@@@@@@@
 974:.\cpu.c       ****         break;
 3019              		.loc 1 974 0
 3020 0a4e 70BD     		pop	{r4, r5, r6, pc}
 3021              	.LVL557:
 3022              	.L189:
 975:.\cpu.c       ****         case 0xDA:  //JP C a16
 976:.\cpu.c       ****         machine_cycles_taken = 3;
 977:.\cpu.c       ****         uint16_t jpca16_addr = fetch_and_increment_pc_twice(cpu);
ARM GAS  C:\Users\raytr\AppData\Local\Temp\ccu8NuaS.s 			page 75


 3023              		.loc 1 977 0
 3024 0a50 FFF7FEFF 		bl	fetch_and_increment_pc_twice
 3025              	.LVL558:
 3026 0a54 0546     		mov	r5, r0
 3027              	.LVL559:
 978:.\cpu.c       ****         if (get_carry_flag(&cpu->reg)){
 3028              		.loc 1 978 0
 3029 0a56 2046     		mov	r0, r4
 3030 0a58 FFF7FEFF 		bl	get_carry_flag
 3031              	.LVL560:
 3032 0a5c 0028     		cmp	r0, #0
 3033 0a5e 00F0A680 		beq	.L221
 3034              	.LVL561:
 979:.\cpu.c       ****             machine_cycles_taken = 4;
 980:.\cpu.c       ****             cpu->reg.pc = jpca16_addr;
 3035              		.loc 1 980 0
 3036 0a62 2581     		strh	r5, [r4, #8]	@ movhi
 979:.\cpu.c       ****             machine_cycles_taken = 4;
 3037              		.loc 1 979 0
 3038 0a64 0420     		movs	r0, #4
 3039 0a66 70BD     		pop	{r4, r5, r6, pc}
 3040              	.LVL562:
 3041              	.L190:
 981:.\cpu.c       ****         }
 982:.\cpu.c       ****         break;
 983:.\cpu.c       ****         case 0xDB:  //ILLEGAL_DB
 984:.\cpu.c       ****         machine_cycles_taken = 1;
 985:.\cpu.c       ****         break;
 986:.\cpu.c       ****         case 0xDC:  //CALL C a16
 987:.\cpu.c       ****         //@@@@@@@@@@@@@@@@@@@@@@@@@@@@@@@@@@@@@@@@@@@@@@@@@@@@@@@@@@@@@@@@@@@@@@@@
 988:.\cpu.c       ****         machine_cycles_taken = 6;
 3042              		.loc 1 988 0
 3043 0a68 0620     		movs	r0, #6
 3044              	.LVL563:
 989:.\cpu.c       ****         break;
 3045              		.loc 1 989 0
 3046 0a6a 70BD     		pop	{r4, r5, r6, pc}
 3047              	.LVL564:
 3048              	.L191:
 990:.\cpu.c       ****         case 0xDD:  //ILLEGAL_DD
 991:.\cpu.c       ****         machine_cycles_taken = 1;
 992:.\cpu.c       ****         break;
 993:.\cpu.c       ****         case 0xDE:  //SBC A d8
 994:.\cpu.c       ****         machine_cycles_taken = 2;
 995:.\cpu.c       ****         cpu->reg.a = sub_8t_with_carry(cpu, cpu->reg.a, fetch_and_increment_pc(cpu));
 3049              		.loc 1 995 0
 3050 0a6c 4578     		ldrb	r5, [r0, #1]	@ zero_extendqisi2
 3051 0a6e FFF7FEFF 		bl	fetch_and_increment_pc
 3052              	.LVL565:
 3053              	.LBB296:
 3054              	.LBB297:
  64:.\cpu.c       **** }
 3055              		.loc 1 64 0
 3056 0a72 281A     		subs	r0, r5, r0
 3057              	.LVL566:
 3058              	.LBE297:
 3059              	.LBE296:
ARM GAS  C:\Users\raytr\AppData\Local\Temp\ccu8NuaS.s 			page 76


 3060              		.loc 1 995 0
 3061 0a74 6070     		strb	r0, [r4, #1]
 994:.\cpu.c       ****         cpu->reg.a = sub_8t_with_carry(cpu, cpu->reg.a, fetch_and_increment_pc(cpu));
 3062              		.loc 1 994 0
 3063 0a76 0220     		movs	r0, #2
 996:.\cpu.c       ****         break;
 3064              		.loc 1 996 0
 3065 0a78 70BD     		pop	{r4, r5, r6, pc}
 3066              	.LVL567:
 3067              	.L192:
 997:.\cpu.c       ****         case 0xDF:  //RST 18H
 998:.\cpu.c       ****         machine_cycles_taken = 4;
 3068              		.loc 1 998 0
 3069 0a7a 0420     		movs	r0, #4
 3070              	.LVL568:
 999:.\cpu.c       ****         //@@@@@@@@@@@@@@@@@@@@@@@@@@@@@@@@@@@@@@@@@@@@@@@@@@@@@@@@@@@@@@@@@@@@@@@@
1000:.\cpu.c       ****         break;
 3071              		.loc 1 1000 0
 3072 0a7c 70BD     		pop	{r4, r5, r6, pc}
 3073              	.LVL569:
 3074              	.L193:
1001:.\cpu.c       ****         case 0xE0:  //LD (FF00+u8)
1002:.\cpu.c       ****         machine_cycles_taken = 3;
1003:.\cpu.c       ****         write_mem(&cpu->mem, 0xFF00 + fetch_and_increment_pc(cpu), cpu->reg.a);
 3075              		.loc 1 1003 0
 3076 0a7e FFF7FEFF 		bl	fetch_and_increment_pc
 3077              	.LVL570:
 3078 0a82 A0F58071 		sub	r1, r0, #256
 3079 0a86 04F10C00 		add	r0, r4, #12
 3080 0a8a 89B2     		uxth	r1, r1
 3081 0a8c 6278     		ldrb	r2, [r4, #1]	@ zero_extendqisi2
 3082 0a8e FFF7FEFF 		bl	write_mem
 3083              	.LVL571:
1002:.\cpu.c       ****         write_mem(&cpu->mem, 0xFF00 + fetch_and_increment_pc(cpu), cpu->reg.a);
 3084              		.loc 1 1002 0
 3085 0a92 0320     		movs	r0, #3
1004:.\cpu.c       ****         break;
 3086              		.loc 1 1004 0
 3087 0a94 70BD     		pop	{r4, r5, r6, pc}
 3088              	.LVL572:
 3089              	.L194:
1005:.\cpu.c       ****         case 0xE1:  //POP HL
1006:.\cpu.c       ****         machine_cycles_taken = 3;
 3090              		.loc 1 1006 0
 3091 0a96 0320     		movs	r0, #3
 3092              	.LVL573:
1007:.\cpu.c       ****         //@@@@@@@@@@@@@@@@@@@@@@@@@@@@@@@@@@@@@@@@@@@@@@@@@@@@@@@@@@@@@@@@@@@@@@@@
1008:.\cpu.c       ****         break;
 3093              		.loc 1 1008 0
 3094 0a98 70BD     		pop	{r4, r5, r6, pc}
 3095              	.LVL574:
 3096              	.L195:
1009:.\cpu.c       ****         case 0xE2:  //LD (FF00+C),A
1010:.\cpu.c       ****         machine_cycles_taken = 2;
1011:.\cpu.c       ****         write_mem(&cpu->mem, 0xFF00 + cpu->reg.c, cpu->reg.a);
 3097              		.loc 1 1011 0
 3098 0a9a 8178     		ldrb	r1, [r0, #2]	@ zero_extendqisi2
ARM GAS  C:\Users\raytr\AppData\Local\Temp\ccu8NuaS.s 			page 77


 3099 0a9c A1F58071 		sub	r1, r1, #256
 3100 0aa0 0C30     		adds	r0, r0, #12
 3101              	.LVL575:
 3102 0aa2 89B2     		uxth	r1, r1
 3103 0aa4 6278     		ldrb	r2, [r4, #1]	@ zero_extendqisi2
 3104 0aa6 FFF7FEFF 		bl	write_mem
 3105              	.LVL576:
1010:.\cpu.c       ****         write_mem(&cpu->mem, 0xFF00 + cpu->reg.c, cpu->reg.a);
 3106              		.loc 1 1010 0
 3107 0aaa 0220     		movs	r0, #2
1012:.\cpu.c       ****         break;
 3108              		.loc 1 1012 0
 3109 0aac 70BD     		pop	{r4, r5, r6, pc}
 3110              	.LVL577:
 3111              	.L196:
1013:.\cpu.c       ****         case 0xE3:  //ILLEGAL_E3
1014:.\cpu.c       ****         machine_cycles_taken = 1;
1015:.\cpu.c       ****         break;
1016:.\cpu.c       ****         case 0xE4:  //ILLEGAL_E4
1017:.\cpu.c       ****         machine_cycles_taken = 1;
1018:.\cpu.c       ****         break;
1019:.\cpu.c       ****         case 0xE5:  //PUSH HL
1020:.\cpu.c       ****         machine_cycles_taken = 4;
 3112              		.loc 1 1020 0
 3113 0aae 0420     		movs	r0, #4
 3114              	.LVL578:
1021:.\cpu.c       ****         //@@@@@@@@@@@@@@@@@@@@@@@@@@@@@@@@@@@@@@@@@@@@@@@@@@@@@@@@@@@@@@@@@@@@@@@@
1022:.\cpu.c       ****         break;
 3115              		.loc 1 1022 0
 3116 0ab0 70BD     		pop	{r4, r5, r6, pc}
 3117              	.LVL579:
 3118              	.L197:
1023:.\cpu.c       ****         case 0xE6:  //AND A, d8
1024:.\cpu.c       ****         machine_cycles_taken = 2;
1025:.\cpu.c       ****         cpu->reg.a = and_8t(cpu, cpu->reg.a, fetch_and_increment_pc(cpu));
 3119              		.loc 1 1025 0
 3120 0ab2 4578     		ldrb	r5, [r0, #1]	@ zero_extendqisi2
 3121 0ab4 FFF7FEFF 		bl	fetch_and_increment_pc
 3122              	.LVL580:
 3123              	.LBB298:
 3124              	.LBB299:
  68:.\cpu.c       **** }
 3125              		.loc 1 68 0
 3126 0ab8 2840     		ands	r0, r0, r5
 3127              	.LVL581:
 3128              	.LBE299:
 3129              	.LBE298:
 3130              		.loc 1 1025 0
 3131 0aba 6070     		strb	r0, [r4, #1]
1024:.\cpu.c       ****         cpu->reg.a = and_8t(cpu, cpu->reg.a, fetch_and_increment_pc(cpu));
 3132              		.loc 1 1024 0
 3133 0abc 0220     		movs	r0, #2
1026:.\cpu.c       ****         break;
 3134              		.loc 1 1026 0
 3135 0abe 70BD     		pop	{r4, r5, r6, pc}
 3136              	.LVL582:
 3137              	.L198:
ARM GAS  C:\Users\raytr\AppData\Local\Temp\ccu8NuaS.s 			page 78


1027:.\cpu.c       ****         case 0xE7:  //RST 20H
1028:.\cpu.c       ****         machine_cycles_taken = 4;
 3138              		.loc 1 1028 0
 3139 0ac0 0420     		movs	r0, #4
 3140              	.LVL583:
1029:.\cpu.c       ****         //@@@@@@@@@@@@@@@@@@@@@@@@@@@@@@@@@@@@@@@@@@@@@@@@@@@@@@@@@@@@@@@@@@@@@@@@
1030:.\cpu.c       ****         break;
 3141              		.loc 1 1030 0
 3142 0ac2 70BD     		pop	{r4, r5, r6, pc}
 3143              	.LVL584:
 3144              	.L199:
1031:.\cpu.c       ****         case 0xE8:  //ADD SP,i8
1032:.\cpu.c       ****         machine_cycles_taken = 4;
1033:.\cpu.c       ****         add_to_pc(cpu, safe_convert(fetch_and_increment_pc(cpu)));
 3145              		.loc 1 1033 0
 3146 0ac4 FFF7FEFF 		bl	fetch_and_increment_pc
 3147              	.LVL585:
 3148 0ac8 FFF7FEFF 		bl	safe_convert
 3149              	.LVL586:
 3150 0acc 0146     		mov	r1, r0
 3151 0ace 2046     		mov	r0, r4
 3152 0ad0 FFF7FEFF 		bl	add_to_pc
 3153              	.LVL587:
1032:.\cpu.c       ****         add_to_pc(cpu, safe_convert(fetch_and_increment_pc(cpu)));
 3154              		.loc 1 1032 0
 3155 0ad4 0420     		movs	r0, #4
1034:.\cpu.c       ****         break;
 3156              		.loc 1 1034 0
 3157 0ad6 70BD     		pop	{r4, r5, r6, pc}
 3158              	.LVL588:
 3159              	.L200:
1035:.\cpu.c       ****         case 0xE9:  //JP HL
1036:.\cpu.c       ****         machine_cycles_taken = 1; 
1037:.\cpu.c       ****         //@@@@@@@@@@@@@@@@@@@@@@@@@@@@@@@@@@@@@@@@@@@@@@@@@@@@@@@@@@@@@@@@@@@@@@@@
1038:.\cpu.c       ****         break;
1039:.\cpu.c       ****         case 0xEA:  //LD a16 A
1040:.\cpu.c       ****         machine_cycles_taken = 4;
1041:.\cpu.c       ****         write_mem(&cpu->mem, fetch_and_increment_pc_twice(cpu), cpu->reg.a);
 3160              		.loc 1 1041 0
 3161 0ad8 FFF7FEFF 		bl	fetch_and_increment_pc_twice
 3162              	.LVL589:
 3163 0adc 0146     		mov	r1, r0
 3164 0ade 04F10C00 		add	r0, r4, #12
 3165 0ae2 6278     		ldrb	r2, [r4, #1]	@ zero_extendqisi2
 3166 0ae4 FFF7FEFF 		bl	write_mem
 3167              	.LVL590:
1040:.\cpu.c       ****         write_mem(&cpu->mem, fetch_and_increment_pc_twice(cpu), cpu->reg.a);
 3168              		.loc 1 1040 0
 3169 0ae8 0420     		movs	r0, #4
1042:.\cpu.c       ****         break;
 3170              		.loc 1 1042 0
 3171 0aea 70BD     		pop	{r4, r5, r6, pc}
 3172              	.LVL591:
 3173              	.L201:
1043:.\cpu.c       ****         case 0xEB:  //ILLEGAL_EB
1044:.\cpu.c       ****         machine_cycles_taken = 1;
1045:.\cpu.c       ****         break;
ARM GAS  C:\Users\raytr\AppData\Local\Temp\ccu8NuaS.s 			page 79


1046:.\cpu.c       ****         case 0xEC:  //ILLEGAL_EC
1047:.\cpu.c       ****         machine_cycles_taken = 1;
1048:.\cpu.c       ****         break;
1049:.\cpu.c       ****         case 0xED:  //ILLEGAL_ED
1050:.\cpu.c       ****         machine_cycles_taken = 1;
1051:.\cpu.c       ****         break;
1052:.\cpu.c       ****         case 0xEE:  //XOR A, d8
1053:.\cpu.c       ****         machine_cycles_taken = 2;
1054:.\cpu.c       ****         cpu->reg.a = xor_8t(cpu, cpu->reg.a, fetch_and_increment_pc(cpu));
 3174              		.loc 1 1054 0
 3175 0aec 4578     		ldrb	r5, [r0, #1]	@ zero_extendqisi2
 3176 0aee FFF7FEFF 		bl	fetch_and_increment_pc
 3177              	.LVL592:
 3178              	.LBB300:
 3179              	.LBB301:
  72:.\cpu.c       **** }
 3180              		.loc 1 72 0
 3181 0af2 6840     		eors	r0, r0, r5
 3182              	.LVL593:
 3183              	.LBE301:
 3184              	.LBE300:
 3185              		.loc 1 1054 0
 3186 0af4 6070     		strb	r0, [r4, #1]
1053:.\cpu.c       ****         cpu->reg.a = xor_8t(cpu, cpu->reg.a, fetch_and_increment_pc(cpu));
 3187              		.loc 1 1053 0
 3188 0af6 0220     		movs	r0, #2
1055:.\cpu.c       ****         break;
 3189              		.loc 1 1055 0
 3190 0af8 70BD     		pop	{r4, r5, r6, pc}
 3191              	.LVL594:
 3192              	.L202:
1056:.\cpu.c       ****         case 0xEF:  //RST 28H
1057:.\cpu.c       ****         machine_cycles_taken = 4;
 3193              		.loc 1 1057 0
 3194 0afa 0420     		movs	r0, #4
 3195              	.LVL595:
1058:.\cpu.c       ****         //@@@@@@@@@@@@@@@@@@@@@@@@@@@@@@@@@@@@@@@@@@@@@@@@@@@@@@@@@@@@@@@@@@@@@@@@
1059:.\cpu.c       ****         break;
 3196              		.loc 1 1059 0
 3197 0afc 70BD     		pop	{r4, r5, r6, pc}
 3198              	.LVL596:
 3199              	.L203:
1060:.\cpu.c       ****         case 0xF0:  //LD A,(FF00+u8)
1061:.\cpu.c       ****         machine_cycles_taken = 3;
1062:.\cpu.c       ****         cpu->reg.a = fetch(&cpu->mem, 0xFF00 + fetch_and_increment_pc(cpu), cpu->inBios);
 3200              		.loc 1 1062 0
 3201 0afe FFF7FEFF 		bl	fetch_and_increment_pc
 3202              	.LVL597:
 3203 0b02 A0F58071 		sub	r1, r0, #256
 3204 0b06 04F10C00 		add	r0, r4, #12
 3205 0b0a 89B2     		uxth	r1, r1
 3206 0b0c 44F20C03 		movw	r3, #16396
 3207 0b10 E25C     		ldrb	r2, [r4, r3]	@ zero_extendqisi2
 3208 0b12 FFF7FEFF 		bl	fetch
 3209              	.LVL598:
 3210 0b16 6070     		strb	r0, [r4, #1]
1061:.\cpu.c       ****         cpu->reg.a = fetch(&cpu->mem, 0xFF00 + fetch_and_increment_pc(cpu), cpu->inBios);
ARM GAS  C:\Users\raytr\AppData\Local\Temp\ccu8NuaS.s 			page 80


 3211              		.loc 1 1061 0
 3212 0b18 0320     		movs	r0, #3
1063:.\cpu.c       ****         break;
 3213              		.loc 1 1063 0
 3214 0b1a 70BD     		pop	{r4, r5, r6, pc}
 3215              	.LVL599:
 3216              	.L204:
1064:.\cpu.c       ****         case 0xF1:  //POP AF
1065:.\cpu.c       ****         machine_cycles_taken = 3;
 3217              		.loc 1 1065 0
 3218 0b1c 0320     		movs	r0, #3
 3219              	.LVL600:
1066:.\cpu.c       ****         //@@@@@@@@@@@@@@@@@@@@@@@@@@@@@@@@@@@@@@@@@@@@@@@@@@@@@@@@@@@@@@@@@@@@@@@@
1067:.\cpu.c       ****         break;
 3220              		.loc 1 1067 0
 3221 0b1e 70BD     		pop	{r4, r5, r6, pc}
 3222              	.LVL601:
 3223              	.L205:
1068:.\cpu.c       ****         case 0xF2:  //LD A,(FF00+C)
1069:.\cpu.c       ****         machine_cycles_taken = 2;
1070:.\cpu.c       ****         cpu->reg.a = fetch(&cpu->mem, 0xFF00 + cpu->reg.c, cpu->inBios);
 3224              		.loc 1 1070 0
 3225 0b20 8178     		ldrb	r1, [r0, #2]	@ zero_extendqisi2
 3226 0b22 A1F58071 		sub	r1, r1, #256
 3227 0b26 0C30     		adds	r0, r0, #12
 3228              	.LVL602:
 3229 0b28 89B2     		uxth	r1, r1
 3230 0b2a 44F20C03 		movw	r3, #16396
 3231 0b2e E25C     		ldrb	r2, [r4, r3]	@ zero_extendqisi2
 3232 0b30 FFF7FEFF 		bl	fetch
 3233              	.LVL603:
 3234 0b34 6070     		strb	r0, [r4, #1]
1069:.\cpu.c       ****         cpu->reg.a = fetch(&cpu->mem, 0xFF00 + cpu->reg.c, cpu->inBios);
 3235              		.loc 1 1069 0
 3236 0b36 0220     		movs	r0, #2
1071:.\cpu.c       ****         break;
 3237              		.loc 1 1071 0
 3238 0b38 70BD     		pop	{r4, r5, r6, pc}
 3239              	.LVL604:
 3240              	.L206:
1072:.\cpu.c       ****         case 0xF3:  //DI
1073:.\cpu.c       ****         machine_cycles_taken = 1;
1074:.\cpu.c       ****         //@@@@@@@@@@@@@@@@@@@@@@@@@@@@@@@@@@@@@@@@@@@@@@@@@@@@@@@@@@@@@@@@@@@@@@@@@@@@
1075:.\cpu.c       ****         break;
1076:.\cpu.c       ****         case 0xF4:  //ILLEGAL_F4
1077:.\cpu.c       ****         machine_cycles_taken = 1;
1078:.\cpu.c       ****         break;
1079:.\cpu.c       ****         case 0xF5:  //PUSH AF
1080:.\cpu.c       ****         machine_cycles_taken = 4;
 3241              		.loc 1 1080 0
 3242 0b3a 0420     		movs	r0, #4
 3243              	.LVL605:
1081:.\cpu.c       ****         //@@@@@@@@@@@@@@@@@@@@@@@@@@@@@@@@@@@@@@@@@@@@@@@@@@@@@@@@@@@@@@@@@@@@@@@@@@@@
1082:.\cpu.c       ****         break;
 3244              		.loc 1 1082 0
 3245 0b3c 70BD     		pop	{r4, r5, r6, pc}
 3246              	.LVL606:
ARM GAS  C:\Users\raytr\AppData\Local\Temp\ccu8NuaS.s 			page 81


 3247              	.L207:
1083:.\cpu.c       ****         case 0xF6:  //OR A, d8
1084:.\cpu.c       ****         machine_cycles_taken = 2;
1085:.\cpu.c       ****         cpu->reg.a = or_8t(cpu, cpu->reg.a, fetch_and_increment_pc(cpu));
 3248              		.loc 1 1085 0
 3249 0b3e 4578     		ldrb	r5, [r0, #1]	@ zero_extendqisi2
 3250 0b40 FFF7FEFF 		bl	fetch_and_increment_pc
 3251              	.LVL607:
 3252              	.LBB302:
 3253              	.LBB303:
  76:.\cpu.c       **** }
 3254              		.loc 1 76 0
 3255 0b44 2843     		orrs	r0, r0, r5
 3256              	.LVL608:
 3257              	.LBE303:
 3258              	.LBE302:
 3259              		.loc 1 1085 0
 3260 0b46 6070     		strb	r0, [r4, #1]
1084:.\cpu.c       ****         cpu->reg.a = or_8t(cpu, cpu->reg.a, fetch_and_increment_pc(cpu));
 3261              		.loc 1 1084 0
 3262 0b48 0220     		movs	r0, #2
1086:.\cpu.c       ****         break;
 3263              		.loc 1 1086 0
 3264 0b4a 70BD     		pop	{r4, r5, r6, pc}
 3265              	.LVL609:
 3266              	.L208:
1087:.\cpu.c       ****         case 0xF7:  //RST 30H
1088:.\cpu.c       ****         machine_cycles_taken = 4;
 3267              		.loc 1 1088 0
 3268 0b4c 0420     		movs	r0, #4
 3269              	.LVL610:
1089:.\cpu.c       ****         //@@@@@@@@@@@@@@@@@@@@@@@@@@@@@@@@@@@@@@@@@@@@@@@@@@@@@@@@@@@@@@@@@@@@@@@@@@@@
1090:.\cpu.c       ****         break;
 3270              		.loc 1 1090 0
 3271 0b4e 70BD     		pop	{r4, r5, r6, pc}
 3272              	.LVL611:
 3273              	.L209:
1091:.\cpu.c       ****         case 0xF8:  //LD HL,SP+i8
1092:.\cpu.c       ****         machine_cycles_taken = 3;
1093:.\cpu.c       ****         cpu->reg.hl = cpu->reg.sp + safe_convert(fetch_and_increment_pc_twice(cpu));
 3274              		.loc 1 1093 0
 3275 0b50 4589     		ldrh	r5, [r0, #10]
 3276 0b52 FFF7FEFF 		bl	fetch_and_increment_pc_twice
 3277              	.LVL612:
 3278 0b56 C0B2     		uxtb	r0, r0
 3279 0b58 FFF7FEFF 		bl	safe_convert
 3280              	.LVL613:
 3281 0b5c 2844     		add	r0, r0, r5
 3282 0b5e E080     		strh	r0, [r4, #6]	@ movhi
1092:.\cpu.c       ****         cpu->reg.hl = cpu->reg.sp + safe_convert(fetch_and_increment_pc_twice(cpu));
 3283              		.loc 1 1092 0
 3284 0b60 0320     		movs	r0, #3
1094:.\cpu.c       ****         break;
 3285              		.loc 1 1094 0
 3286 0b62 70BD     		pop	{r4, r5, r6, pc}
 3287              	.LVL614:
 3288              	.L210:
ARM GAS  C:\Users\raytr\AppData\Local\Temp\ccu8NuaS.s 			page 82


1095:.\cpu.c       ****         case 0xF9:  //LD SP HL
1096:.\cpu.c       ****         machine_cycles_taken = 2;
1097:.\cpu.c       ****         cpu->reg.sp = cpu->reg.hl;
 3289              		.loc 1 1097 0
 3290 0b64 C388     		ldrh	r3, [r0, #6]
 3291 0b66 4381     		strh	r3, [r0, #10]	@ movhi
1096:.\cpu.c       ****         cpu->reg.sp = cpu->reg.hl;
 3292              		.loc 1 1096 0
 3293 0b68 0220     		movs	r0, #2
 3294              	.LVL615:
1098:.\cpu.c       ****         break;
 3295              		.loc 1 1098 0
 3296 0b6a 70BD     		pop	{r4, r5, r6, pc}
 3297              	.LVL616:
 3298              	.L211:
1099:.\cpu.c       ****         case 0xFA:  //LD A (u16)
1100:.\cpu.c       ****         machine_cycles_taken = 4;
1101:.\cpu.c       ****         cpu->reg.a = fetch(&cpu->mem, fetch_and_increment_pc_twice(cpu), cpu->inBios);
 3299              		.loc 1 1101 0
 3300 0b6c FFF7FEFF 		bl	fetch_and_increment_pc_twice
 3301              	.LVL617:
 3302 0b70 0146     		mov	r1, r0
 3303 0b72 04F10C00 		add	r0, r4, #12
 3304 0b76 44F20C03 		movw	r3, #16396
 3305 0b7a E25C     		ldrb	r2, [r4, r3]	@ zero_extendqisi2
 3306 0b7c FFF7FEFF 		bl	fetch
 3307              	.LVL618:
 3308 0b80 6070     		strb	r0, [r4, #1]
1100:.\cpu.c       ****         cpu->reg.a = fetch(&cpu->mem, fetch_and_increment_pc_twice(cpu), cpu->inBios);
 3309              		.loc 1 1100 0
 3310 0b82 0420     		movs	r0, #4
1102:.\cpu.c       ****         break;
 3311              		.loc 1 1102 0
 3312 0b84 70BD     		pop	{r4, r5, r6, pc}
 3313              	.LVL619:
 3314              	.L212:
1103:.\cpu.c       ****         case 0xFB:  //EI
1104:.\cpu.c       ****         machine_cycles_taken = 1;
1105:.\cpu.c       ****         //@@@@@@@@@@@@@@@@@@@@@@@@@@@@@@@@@@@@@@@@@@@@@@@@@@@@@@@@@@@@@@@@@@@@@@@@@@@@
1106:.\cpu.c       ****         break;
1107:.\cpu.c       ****         case 0xFC:  //ILLEGAL_FC
1108:.\cpu.c       ****         machine_cycles_taken = 1;
1109:.\cpu.c       ****         break;
1110:.\cpu.c       ****         case 0xFD:  //ILLEGAL_FD
1111:.\cpu.c       ****         machine_cycles_taken = 1;
1112:.\cpu.c       ****         break;
1113:.\cpu.c       ****         case 0xFE:  //CP A, d8
1114:.\cpu.c       ****         machine_cycles_taken = 2;
1115:.\cpu.c       ****         sub_8t(cpu, cpu->reg.a, fetch_and_increment_pc(cpu));
 3315              		.loc 1 1115 0
 3316 0b86 FFF7FEFF 		bl	fetch_and_increment_pc
 3317              	.LVL620:
1114:.\cpu.c       ****         sub_8t(cpu, cpu->reg.a, fetch_and_increment_pc(cpu));
 3318              		.loc 1 1114 0
 3319 0b8a 0220     		movs	r0, #2
 3320 0b8c 70BD     		pop	{r4, r5, r6, pc}
 3321              	.LVL621:
ARM GAS  C:\Users\raytr\AppData\Local\Temp\ccu8NuaS.s 			page 83


 3322              	.L213:
1116:.\cpu.c       ****         break;
1117:.\cpu.c       ****         case 0xFF:  //RST 38H
1118:.\cpu.c       ****         machine_cycles_taken = 4;
 3323              		.loc 1 1118 0
 3324 0b8e 0420     		movs	r0, #4
 3325              	.LVL622:
1119:.\cpu.c       ****         //@@@@@@@@@@@@@@@@@@@@@@@@@@@@@@@@@@@@@@@@@@@@@@@@@@@@@@@@@@@@@@@@@@@@@@@@@@@@
1120:.\cpu.c       ****         break;
 3326              		.loc 1 1120 0
 3327 0b90 70BD     		pop	{r4, r5, r6, pc}
 3328              	.LVL623:
 3329              	.L214:
  88:.\cpu.c       ****         break;
 3330              		.loc 1 88 0
 3331 0b92 0120     		movs	r0, #1
 3332              	.LVL624:
 3333 0b94 70BD     		pop	{r4, r5, r6, pc}
 3334              	.LVL625:
 3335              	.L215:
 216:.\cpu.c       ****         int8_t jrnz_offset = safe_convert(fetch_and_increment_pc(cpu));
 3336              		.loc 1 216 0
 3337 0b96 0220     		movs	r0, #2
 3338 0b98 70BD     		pop	{r4, r5, r6, pc}
 3339              	.LVL626:
 3340              	.L216:
 253:.\cpu.c       ****         int8_t jrzi8_offset = safe_convert(fetch_and_increment_pc(cpu));
 3341              		.loc 1 253 0
 3342 0b9a 0220     		movs	r0, #2
 3343 0b9c 70BD     		pop	{r4, r5, r6, pc}
 3344              	.LVL627:
 3345              	.L217:
 289:.\cpu.c       ****         int8_t jrnci8_offset = safe_convert(fetch_and_increment_pc(cpu));
 3346              		.loc 1 289 0
 3347 0b9e 0220     		movs	r0, #2
 3348 0ba0 70BD     		pop	{r4, r5, r6, pc}
 3349              	.LVL628:
 3350              	.L218:
 323:.\cpu.c       ****         int8_t jrci8_offset = safe_convert(fetch_and_increment_pc(cpu));
 3351              		.loc 1 323 0
 3352 0ba2 0220     		movs	r0, #2
 3353 0ba4 70BD     		pop	{r4, r5, r6, pc}
 3354              	.LVL629:
 3355              	.L219:
 871:.\cpu.c       ****         uint16_t jpnza16_addr = fetch_and_increment_pc_twice(cpu);
 3356              		.loc 1 871 0
 3357 0ba6 0320     		movs	r0, #3
 3358 0ba8 70BD     		pop	{r4, r5, r6, pc}
 3359              	.LVL630:
 3360              	.L220:
 942:.\cpu.c       ****         uint16_t jpnc_addr = fetch_and_increment_pc_twice(cpu);
 3361              		.loc 1 942 0
 3362 0baa 0320     		movs	r0, #3
 3363 0bac 70BD     		pop	{r4, r5, r6, pc}
 3364              	.LVL631:
 3365              	.L221:
 976:.\cpu.c       ****         uint16_t jpca16_addr = fetch_and_increment_pc_twice(cpu);
ARM GAS  C:\Users\raytr\AppData\Local\Temp\ccu8NuaS.s 			page 84


 3366              		.loc 1 976 0
 3367 0bae 0320     		movs	r0, #3
 3368              	.LVL632:
 3369              	.LBE181:
1121:.\cpu.c       ****     }
1122:.\cpu.c       ****     return machine_cycles_taken;
1123:.\cpu.c       **** }
 3370              		.loc 1 1123 0
 3371 0bb0 70BD     		pop	{r4, r5, r6, pc}
 3372              		.cfi_endproc
 3373              	.LFE16:
 3374              		.size	execute_normal, .-execute_normal
 3375 0bb2 00BF     		.section	.text.execute_cb_prefix,"ax",%progbits
 3376              		.align	2
 3377              		.global	execute_cb_prefix
 3378              		.thumb
 3379              		.thumb_func
 3380              		.type	execute_cb_prefix, %function
 3381              	execute_cb_prefix:
 3382              	.LFB17:
1124:.\cpu.c       **** 
1125:.\cpu.c       **** int execute_cb_prefix(Cpu* cpu, uint8_t instruction){
 3383              		.loc 1 1125 0
 3384              		.cfi_startproc
 3385              		@ args = 0, pretend = 0, frame = 0
 3386              		@ frame_needed = 0, uses_anonymous_args = 0
 3387              		@ link register save eliminated.
 3388              	.LVL633:
1126:.\cpu.c       ****     int cycles_taken = 0;
1127:.\cpu.c       ****     switch (instruction){
 3389              		.loc 1 1127 0
 3390 0000 09B1     		cbz	r1, .L226
1126:.\cpu.c       ****     int cycles_taken = 0;
 3391              		.loc 1 1126 0
 3392 0002 0020     		movs	r0, #0
 3393              	.LVL634:
 3394 0004 7047     		bx	lr
 3395              	.LVL635:
 3396              	.L226:
1128:.\cpu.c       ****         case 0x0:
1129:.\cpu.c       ****         cycles_taken = 2;
 3397              		.loc 1 1129 0
 3398 0006 0220     		movs	r0, #2
 3399              	.LVL636:
1130:.\cpu.c       ****         break;
1131:.\cpu.c       ****         case 0x01:
1132:.\cpu.c       ****         break;
1133:.\cpu.c       ****         
1134:.\cpu.c       ****     }
1135:.\cpu.c       ****     return cycles_taken;
1136:.\cpu.c       **** }
 3400              		.loc 1 1136 0
 3401 0008 7047     		bx	lr
 3402              		.cfi_endproc
 3403              	.LFE17:
 3404              		.size	execute_cb_prefix, .-execute_cb_prefix
 3405 000a 00BF     		.section	.text.execute,"ax",%progbits
ARM GAS  C:\Users\raytr\AppData\Local\Temp\ccu8NuaS.s 			page 85


 3406              		.align	2
 3407              		.global	execute
 3408              		.thumb
 3409              		.thumb_func
 3410              		.type	execute, %function
 3411              	execute:
 3412              	.LFB18:
1137:.\cpu.c       **** 
1138:.\cpu.c       **** // Executes an instruction
1139:.\cpu.c       **** // Returns the number of machine cycles the instruction took
1140:.\cpu.c       **** int execute(Cpu* cpu, uint8_t instruction){
 3413              		.loc 1 1140 0
 3414              		.cfi_startproc
 3415              		@ args = 0, pretend = 0, frame = 0
 3416              		@ frame_needed = 0, uses_anonymous_args = 0
 3417              	.LVL637:
 3418 0000 38B5     		push	{r3, r4, r5, lr}
 3419              		.cfi_def_cfa_offset 16
 3420              		.cfi_offset 3, -16
 3421              		.cfi_offset 4, -12
 3422              		.cfi_offset 5, -8
 3423              		.cfi_offset 14, -4
 3424 0002 0546     		mov	r5, r0
 3425 0004 0C46     		mov	r4, r1
1141:.\cpu.c       ****     int cycles_taken;
1142:.\cpu.c       ****     // Handle the pc for most instructions
1143:.\cpu.c       ****     increment_pc(cpu);
 3426              		.loc 1 1143 0
 3427 0006 FFF7FEFF 		bl	increment_pc
 3428              	.LVL638:
1144:.\cpu.c       ****     // Check for CB-prefixed instructions
1145:.\cpu.c       ****     if (instruction == 0xCB) {
 3429              		.loc 1 1145 0
 3430 000a CB2C     		cmp	r4, #203
 3431 000c 10D1     		bne	.L228
 3432              	.LBB304:
1146:.\cpu.c       ****         // This is a CB-prefixed instruction! 
1147:.\cpu.c       ****         // Have to read the next one
1148:.\cpu.c       ****         uint8_t cb_instr = fetch(&cpu->mem, cpu->reg.pc, cpu->inBios);
 3433              		.loc 1 1148 0
 3434 000e 05F10C00 		add	r0, r5, #12
 3435 0012 2989     		ldrh	r1, [r5, #8]
 3436 0014 44F20C03 		movw	r3, #16396
 3437 0018 EA5C     		ldrb	r2, [r5, r3]	@ zero_extendqisi2
 3438 001a FFF7FEFF 		bl	fetch
 3439              	.LVL639:
 3440 001e 0446     		mov	r4, r0
 3441              	.LVL640:
1149:.\cpu.c       ****         increment_pc(cpu);
 3442              		.loc 1 1149 0
 3443 0020 2846     		mov	r0, r5
 3444 0022 FFF7FEFF 		bl	increment_pc
 3445              	.LVL641:
1150:.\cpu.c       ****         cycles_taken = execute_cb_prefix(cpu, cb_instr);
 3446              		.loc 1 1150 0
 3447 0026 2846     		mov	r0, r5
 3448 0028 2146     		mov	r1, r4
ARM GAS  C:\Users\raytr\AppData\Local\Temp\ccu8NuaS.s 			page 86


 3449 002a FFF7FEFF 		bl	execute_cb_prefix
 3450              	.LVL642:
 3451              	.LBE304:
 3452 002e 38BD     		pop	{r3, r4, r5, pc}
 3453              	.LVL643:
 3454              	.L228:
1151:.\cpu.c       ****     } else {
1152:.\cpu.c       ****         cycles_taken = execute_normal(cpu, instruction);
 3455              		.loc 1 1152 0
 3456 0030 2846     		mov	r0, r5
 3457 0032 2146     		mov	r1, r4
 3458 0034 FFF7FEFF 		bl	execute_normal
 3459              	.LVL644:
1153:.\cpu.c       ****     }
1154:.\cpu.c       ****     return cycles_taken;
1155:.\cpu.c       **** }
 3460              		.loc 1 1155 0
 3461 0038 38BD     		pop	{r3, r4, r5, pc}
 3462              		.cfi_endproc
 3463              	.LFE18:
 3464              		.size	execute, .-execute
 3465 003a 00BF     		.section	.text.tick,"ax",%progbits
 3466              		.align	2
 3467              		.global	tick
 3468              		.thumb
 3469              		.thumb_func
 3470              		.type	tick, %function
 3471              	tick:
 3472              	.LFB19:
1156:.\cpu.c       **** 
1157:.\cpu.c       **** int tick(Cpu* cpu){
 3473              		.loc 1 1157 0
 3474              		.cfi_startproc
 3475              		@ args = 0, pretend = 0, frame = 0
 3476              		@ frame_needed = 0, uses_anonymous_args = 0
 3477              	.LVL645:
 3478 0000 10B5     		push	{r4, lr}
 3479              		.cfi_def_cfa_offset 8
 3480              		.cfi_offset 4, -8
 3481              		.cfi_offset 14, -4
 3482 0002 0446     		mov	r4, r0
1158:.\cpu.c       ****     // Fetch
1159:.\cpu.c       ****     uint8_t instruction = fetch(&cpu->mem, cpu->reg.pc, cpu->inBios);
 3483              		.loc 1 1159 0
 3484 0004 0C30     		adds	r0, r0, #12
 3485              	.LVL646:
 3486 0006 2189     		ldrh	r1, [r4, #8]
 3487 0008 44F20C03 		movw	r3, #16396
 3488 000c E25C     		ldrb	r2, [r4, r3]	@ zero_extendqisi2
 3489 000e FFF7FEFF 		bl	fetch
 3490              	.LVL647:
 3491 0012 0146     		mov	r1, r0
 3492              	.LVL648:
1160:.\cpu.c       ****     
1161:.\cpu.c       ****     // Decode/Execute and return # of clock cycles
1162:.\cpu.c       ****     return execute(cpu, instruction);
 3493              		.loc 1 1162 0
ARM GAS  C:\Users\raytr\AppData\Local\Temp\ccu8NuaS.s 			page 87


 3494 0014 2046     		mov	r0, r4
 3495 0016 FFF7FEFF 		bl	execute
 3496              	.LVL649:
1163:.\cpu.c       **** }
 3497              		.loc 1 1163 0
 3498 001a 10BD     		pop	{r4, pc}
 3499              		.cfi_endproc
 3500              	.LFE19:
 3501              		.size	tick, .-tick
 3502              		.text
 3503              	.Letext0:
 3504              		.file 2 "c:\\program files (x86)\\cypress\\psoc creator\\3.3\\psoc creator\\import\\gnu\\arm\\4.9.
 3505              		.file 3 "c:\\program files (x86)\\cypress\\psoc creator\\3.3\\psoc creator\\import\\gnu\\arm\\4.9.
 3506              		.file 4 ".\\memory.h"
 3507              		.file 5 ".\\registers.h"
 3508              		.file 6 ".\\cpu.h"
 3509              		.section	.debug_info,"",%progbits
 3510              	.Ldebug_info0:
 3511 0000 B11A0000 		.4byte	0x1ab1
 3512 0004 0400     		.2byte	0x4
 3513 0006 00000000 		.4byte	.Ldebug_abbrev0
 3514 000a 04       		.byte	0x4
 3515 000b 01       		.uleb128 0x1
 3516 000c 34020000 		.4byte	.LASF66
 3517 0010 01       		.byte	0x1
 3518 0011 7C000000 		.4byte	.LASF67
 3519 0015 61010000 		.4byte	.LASF68
 3520 0019 00000000 		.4byte	.Ldebug_ranges0+0
 3521 001d 00000000 		.4byte	0
 3522 0021 00000000 		.4byte	.Ldebug_line0
 3523 0025 02       		.uleb128 0x2
 3524 0026 1E020000 		.4byte	.LASF0
 3525 002a 02       		.byte	0x2
 3526 002b 1B       		.byte	0x1b
 3527 002c 30000000 		.4byte	0x30
 3528 0030 03       		.uleb128 0x3
 3529 0031 01       		.byte	0x1
 3530 0032 06       		.byte	0x6
 3531 0033 99010000 		.4byte	.LASF2
 3532 0037 02       		.uleb128 0x2
 3533 0038 1D010000 		.4byte	.LASF1
 3534 003c 02       		.byte	0x2
 3535 003d 1D       		.byte	0x1d
 3536 003e 42000000 		.4byte	0x42
 3537 0042 03       		.uleb128 0x3
 3538 0043 01       		.byte	0x1
 3539 0044 08       		.byte	0x8
 3540 0045 53010000 		.4byte	.LASF3
 3541 0049 03       		.uleb128 0x3
 3542 004a 02       		.byte	0x2
 3543 004b 05       		.byte	0x5
 3544 004c 28000000 		.4byte	.LASF4
 3545 0050 02       		.uleb128 0x2
 3546 0051 56000000 		.4byte	.LASF5
 3547 0055 02       		.byte	0x2
 3548 0056 2B       		.byte	0x2b
 3549 0057 5B000000 		.4byte	0x5b
ARM GAS  C:\Users\raytr\AppData\Local\Temp\ccu8NuaS.s 			page 88


 3550 005b 03       		.uleb128 0x3
 3551 005c 02       		.byte	0x2
 3552 005d 07       		.byte	0x7
 3553 005e 0B020000 		.4byte	.LASF6
 3554 0062 03       		.uleb128 0x3
 3555 0063 04       		.byte	0x4
 3556 0064 05       		.byte	0x5
 3557 0065 F9000000 		.4byte	.LASF7
 3558 0069 03       		.uleb128 0x3
 3559 006a 04       		.byte	0x4
 3560 006b 07       		.byte	0x7
 3561 006c 03030000 		.4byte	.LASF8
 3562 0070 03       		.uleb128 0x3
 3563 0071 08       		.byte	0x8
 3564 0072 05       		.byte	0x5
 3565 0073 D4000000 		.4byte	.LASF9
 3566 0077 03       		.uleb128 0x3
 3567 0078 08       		.byte	0x8
 3568 0079 07       		.byte	0x7
 3569 007a AC010000 		.4byte	.LASF10
 3570 007e 04       		.uleb128 0x4
 3571 007f 04       		.byte	0x4
 3572 0080 05       		.byte	0x5
 3573 0081 696E7400 		.ascii	"int\000"
 3574 0085 03       		.uleb128 0x3
 3575 0086 04       		.byte	0x4
 3576 0087 07       		.byte	0x7
 3577 0088 D6010000 		.4byte	.LASF11
 3578 008c 02       		.uleb128 0x2
 3579 008d 17000000 		.4byte	.LASF12
 3580 0091 03       		.byte	0x3
 3581 0092 14       		.byte	0x14
 3582 0093 25000000 		.4byte	0x25
 3583 0097 02       		.uleb128 0x2
 3584 0098 84000000 		.4byte	.LASF13
 3585 009c 03       		.byte	0x3
 3586 009d 15       		.byte	0x15
 3587 009e 37000000 		.4byte	0x37
 3588 00a2 02       		.uleb128 0x2
 3589 00a3 E3010000 		.4byte	.LASF14
 3590 00a7 03       		.byte	0x3
 3591 00a8 21       		.byte	0x21
 3592 00a9 50000000 		.4byte	0x50
 3593 00ad 05       		.uleb128 0x5
 3594 00ae A5010000 		.4byte	.LASF18
 3595 00b2 0040     		.2byte	0x4000
 3596 00b4 04       		.byte	0x4
 3597 00b5 0F       		.byte	0xf
 3598 00b6 D4000000 		.4byte	0xd4
 3599 00ba 06       		.uleb128 0x6
 3600 00bb 51000000 		.4byte	.LASF15
 3601 00bf 04       		.byte	0x4
 3602 00c0 10       		.byte	0x10
 3603 00c1 D4000000 		.4byte	0xd4
 3604 00c5 00       		.byte	0
 3605 00c6 07       		.uleb128 0x7
 3606 00c7 74030000 		.4byte	.LASF16
ARM GAS  C:\Users\raytr\AppData\Local\Temp\ccu8NuaS.s 			page 89


 3607 00cb 04       		.byte	0x4
 3608 00cc 11       		.byte	0x11
 3609 00cd D4000000 		.4byte	0xd4
 3610 00d1 0020     		.2byte	0x2000
 3611 00d3 00       		.byte	0
 3612 00d4 08       		.uleb128 0x8
 3613 00d5 97000000 		.4byte	0x97
 3614 00d9 E5000000 		.4byte	0xe5
 3615 00dd 09       		.uleb128 0x9
 3616 00de E5000000 		.4byte	0xe5
 3617 00e2 FF1F     		.2byte	0x1fff
 3618 00e4 00       		.byte	0
 3619 00e5 03       		.uleb128 0x3
 3620 00e6 04       		.byte	0x4
 3621 00e7 07       		.byte	0x7
 3622 00e8 32000000 		.4byte	.LASF17
 3623 00ec 02       		.uleb128 0x2
 3624 00ed A5010000 		.4byte	.LASF18
 3625 00f1 04       		.byte	0x4
 3626 00f2 12       		.byte	0x12
 3627 00f3 AD000000 		.4byte	0xad
 3628 00f7 0A       		.uleb128 0xa
 3629 00f8 02       		.byte	0x2
 3630 00f9 05       		.byte	0x5
 3631 00fa 09       		.byte	0x9
 3632 00fb 14010000 		.4byte	0x114
 3633 00ff 0B       		.uleb128 0xb
 3634 0100 6600     		.ascii	"f\000"
 3635 0102 05       		.byte	0x5
 3636 0103 0A       		.byte	0xa
 3637 0104 97000000 		.4byte	0x97
 3638 0108 00       		.byte	0
 3639 0109 0B       		.uleb128 0xb
 3640 010a 6100     		.ascii	"a\000"
 3641 010c 05       		.byte	0x5
 3642 010d 0B       		.byte	0xb
 3643 010e 97000000 		.4byte	0x97
 3644 0112 01       		.byte	0x1
 3645 0113 00       		.byte	0
 3646 0114 0C       		.uleb128 0xc
 3647 0115 02       		.byte	0x2
 3648 0116 05       		.byte	0x5
 3649 0117 08       		.byte	0x8
 3650 0118 2C010000 		.4byte	0x12c
 3651 011c 0D       		.uleb128 0xd
 3652 011d F7000000 		.4byte	0xf7
 3653 0121 0E       		.uleb128 0xe
 3654 0122 616600   		.ascii	"af\000"
 3655 0125 05       		.byte	0x5
 3656 0126 0D       		.byte	0xd
 3657 0127 A2000000 		.4byte	0xa2
 3658 012b 00       		.byte	0
 3659 012c 0A       		.uleb128 0xa
 3660 012d 02       		.byte	0x2
 3661 012e 05       		.byte	0x5
 3662 012f 07       		.byte	0x7
 3663 0130 3B010000 		.4byte	0x13b
ARM GAS  C:\Users\raytr\AppData\Local\Temp\ccu8NuaS.s 			page 90


 3664 0134 0F       		.uleb128 0xf
 3665 0135 14010000 		.4byte	0x114
 3666 0139 00       		.byte	0
 3667 013a 00       		.byte	0
 3668 013b 0A       		.uleb128 0xa
 3669 013c 02       		.byte	0x2
 3670 013d 05       		.byte	0x5
 3671 013e 12       		.byte	0x12
 3672 013f 58010000 		.4byte	0x158
 3673 0143 0B       		.uleb128 0xb
 3674 0144 6300     		.ascii	"c\000"
 3675 0146 05       		.byte	0x5
 3676 0147 13       		.byte	0x13
 3677 0148 97000000 		.4byte	0x97
 3678 014c 00       		.byte	0
 3679 014d 0B       		.uleb128 0xb
 3680 014e 6200     		.ascii	"b\000"
 3681 0150 05       		.byte	0x5
 3682 0151 14       		.byte	0x14
 3683 0152 97000000 		.4byte	0x97
 3684 0156 01       		.byte	0x1
 3685 0157 00       		.byte	0
 3686 0158 0C       		.uleb128 0xc
 3687 0159 02       		.byte	0x2
 3688 015a 05       		.byte	0x5
 3689 015b 11       		.byte	0x11
 3690 015c 70010000 		.4byte	0x170
 3691 0160 0D       		.uleb128 0xd
 3692 0161 3B010000 		.4byte	0x13b
 3693 0165 0E       		.uleb128 0xe
 3694 0166 626300   		.ascii	"bc\000"
 3695 0169 05       		.byte	0x5
 3696 016a 16       		.byte	0x16
 3697 016b A2000000 		.4byte	0xa2
 3698 016f 00       		.byte	0
 3699 0170 0A       		.uleb128 0xa
 3700 0171 02       		.byte	0x2
 3701 0172 05       		.byte	0x5
 3702 0173 10       		.byte	0x10
 3703 0174 7F010000 		.4byte	0x17f
 3704 0178 0F       		.uleb128 0xf
 3705 0179 58010000 		.4byte	0x158
 3706 017d 00       		.byte	0
 3707 017e 00       		.byte	0
 3708 017f 0A       		.uleb128 0xa
 3709 0180 02       		.byte	0x2
 3710 0181 05       		.byte	0x5
 3711 0182 1B       		.byte	0x1b
 3712 0183 9C010000 		.4byte	0x19c
 3713 0187 0B       		.uleb128 0xb
 3714 0188 6500     		.ascii	"e\000"
 3715 018a 05       		.byte	0x5
 3716 018b 1C       		.byte	0x1c
 3717 018c 97000000 		.4byte	0x97
 3718 0190 00       		.byte	0
 3719 0191 0B       		.uleb128 0xb
 3720 0192 6400     		.ascii	"d\000"
ARM GAS  C:\Users\raytr\AppData\Local\Temp\ccu8NuaS.s 			page 91


 3721 0194 05       		.byte	0x5
 3722 0195 1D       		.byte	0x1d
 3723 0196 97000000 		.4byte	0x97
 3724 019a 01       		.byte	0x1
 3725 019b 00       		.byte	0
 3726 019c 0C       		.uleb128 0xc
 3727 019d 02       		.byte	0x2
 3728 019e 05       		.byte	0x5
 3729 019f 1A       		.byte	0x1a
 3730 01a0 B4010000 		.4byte	0x1b4
 3731 01a4 0D       		.uleb128 0xd
 3732 01a5 7F010000 		.4byte	0x17f
 3733 01a9 0E       		.uleb128 0xe
 3734 01aa 646500   		.ascii	"de\000"
 3735 01ad 05       		.byte	0x5
 3736 01ae 1F       		.byte	0x1f
 3737 01af A2000000 		.4byte	0xa2
 3738 01b3 00       		.byte	0
 3739 01b4 0A       		.uleb128 0xa
 3740 01b5 02       		.byte	0x2
 3741 01b6 05       		.byte	0x5
 3742 01b7 19       		.byte	0x19
 3743 01b8 C3010000 		.4byte	0x1c3
 3744 01bc 0F       		.uleb128 0xf
 3745 01bd 9C010000 		.4byte	0x19c
 3746 01c1 00       		.byte	0
 3747 01c2 00       		.byte	0
 3748 01c3 0A       		.uleb128 0xa
 3749 01c4 02       		.byte	0x2
 3750 01c5 05       		.byte	0x5
 3751 01c6 25       		.byte	0x25
 3752 01c7 E0010000 		.4byte	0x1e0
 3753 01cb 0B       		.uleb128 0xb
 3754 01cc 6C00     		.ascii	"l\000"
 3755 01ce 05       		.byte	0x5
 3756 01cf 26       		.byte	0x26
 3757 01d0 97000000 		.4byte	0x97
 3758 01d4 00       		.byte	0
 3759 01d5 0B       		.uleb128 0xb
 3760 01d6 6800     		.ascii	"h\000"
 3761 01d8 05       		.byte	0x5
 3762 01d9 27       		.byte	0x27
 3763 01da 97000000 		.4byte	0x97
 3764 01de 01       		.byte	0x1
 3765 01df 00       		.byte	0
 3766 01e0 0C       		.uleb128 0xc
 3767 01e1 02       		.byte	0x2
 3768 01e2 05       		.byte	0x5
 3769 01e3 24       		.byte	0x24
 3770 01e4 F8010000 		.4byte	0x1f8
 3771 01e8 0D       		.uleb128 0xd
 3772 01e9 C3010000 		.4byte	0x1c3
 3773 01ed 0E       		.uleb128 0xe
 3774 01ee 686C00   		.ascii	"hl\000"
 3775 01f1 05       		.byte	0x5
 3776 01f2 29       		.byte	0x29
 3777 01f3 A2000000 		.4byte	0xa2
ARM GAS  C:\Users\raytr\AppData\Local\Temp\ccu8NuaS.s 			page 92


 3778 01f7 00       		.byte	0
 3779 01f8 0A       		.uleb128 0xa
 3780 01f9 02       		.byte	0x2
 3781 01fa 05       		.byte	0x5
 3782 01fb 23       		.byte	0x23
 3783 01fc 07020000 		.4byte	0x207
 3784 0200 0F       		.uleb128 0xf
 3785 0201 E0010000 		.4byte	0x1e0
 3786 0205 00       		.byte	0
 3787 0206 00       		.byte	0
 3788 0207 10       		.uleb128 0x10
 3789 0208 00000000 		.4byte	.LASF19
 3790 020c 0C       		.byte	0xc
 3791 020d 05       		.byte	0x5
 3792 020e 06       		.byte	0x6
 3793 020f 42020000 		.4byte	0x242
 3794 0213 0F       		.uleb128 0xf
 3795 0214 2C010000 		.4byte	0x12c
 3796 0218 00       		.byte	0
 3797 0219 0F       		.uleb128 0xf
 3798 021a 70010000 		.4byte	0x170
 3799 021e 02       		.byte	0x2
 3800 021f 0F       		.uleb128 0xf
 3801 0220 B4010000 		.4byte	0x1b4
 3802 0224 04       		.byte	0x4
 3803 0225 0F       		.uleb128 0xf
 3804 0226 F8010000 		.4byte	0x1f8
 3805 022a 06       		.byte	0x6
 3806 022b 0B       		.uleb128 0xb
 3807 022c 706300   		.ascii	"pc\000"
 3808 022f 05       		.byte	0x5
 3809 0230 2D       		.byte	0x2d
 3810 0231 A2000000 		.4byte	0xa2
 3811 0235 08       		.byte	0x8
 3812 0236 0B       		.uleb128 0xb
 3813 0237 737000   		.ascii	"sp\000"
 3814 023a 05       		.byte	0x5
 3815 023b 2E       		.byte	0x2e
 3816 023c A2000000 		.4byte	0xa2
 3817 0240 0A       		.byte	0xa
 3818 0241 00       		.byte	0
 3819 0242 02       		.uleb128 0x2
 3820 0243 00000000 		.4byte	.LASF19
 3821 0247 05       		.byte	0x5
 3822 0248 2F       		.byte	0x2f
 3823 0249 07020000 		.4byte	0x207
 3824 024d 11       		.uleb128 0x11
 3825 024e 43707500 		.ascii	"Cpu\000"
 3826 0252 0E40     		.2byte	0x400e
 3827 0254 06       		.byte	0x6
 3828 0255 07       		.byte	0x7
 3829 0256 80020000 		.4byte	0x280
 3830 025a 0B       		.uleb128 0xb
 3831 025b 72656700 		.ascii	"reg\000"
 3832 025f 06       		.byte	0x6
 3833 0260 08       		.byte	0x8
 3834 0261 42020000 		.4byte	0x242
ARM GAS  C:\Users\raytr\AppData\Local\Temp\ccu8NuaS.s 			page 93


 3835 0265 00       		.byte	0
 3836 0266 0B       		.uleb128 0xb
 3837 0267 6D656D00 		.ascii	"mem\000"
 3838 026b 06       		.byte	0x6
 3839 026c 09       		.byte	0x9
 3840 026d EC000000 		.4byte	0xec
 3841 0271 0C       		.byte	0xc
 3842 0272 07       		.uleb128 0x7
 3843 0273 F5020000 		.4byte	.LASF20
 3844 0277 06       		.byte	0x6
 3845 0278 0A       		.byte	0xa
 3846 0279 80020000 		.4byte	0x280
 3847 027d 0C40     		.2byte	0x400c
 3848 027f 00       		.byte	0
 3849 0280 03       		.uleb128 0x3
 3850 0281 01       		.byte	0x1
 3851 0282 02       		.byte	0x2
 3852 0283 DD020000 		.4byte	.LASF21
 3853 0287 12       		.uleb128 0x12
 3854 0288 43707500 		.ascii	"Cpu\000"
 3855 028c 06       		.byte	0x6
 3856 028d 0B       		.byte	0xb
 3857 028e 4D020000 		.4byte	0x24d
 3858 0292 13       		.uleb128 0x13
 3859 0293 FC020000 		.4byte	.LASF23
 3860 0297 01       		.byte	0x1
 3861 0298 2C       		.byte	0x2c
 3862 0299 97000000 		.4byte	0x97
 3863 029d 03       		.byte	0x3
 3864 029e B9020000 		.4byte	0x2b9
 3865 02a2 14       		.uleb128 0x14
 3866 02a3 63707500 		.ascii	"cpu\000"
 3867 02a7 01       		.byte	0x1
 3868 02a8 2C       		.byte	0x2c
 3869 02a9 B9020000 		.4byte	0x2b9
 3870 02ad 15       		.uleb128 0x15
 3871 02ae 61000000 		.4byte	.LASF22
 3872 02b2 01       		.byte	0x1
 3873 02b3 2C       		.byte	0x2c
 3874 02b4 97000000 		.4byte	0x97
 3875 02b8 00       		.byte	0
 3876 02b9 16       		.uleb128 0x16
 3877 02ba 04       		.byte	0x4
 3878 02bb 87020000 		.4byte	0x287
 3879 02bf 13       		.uleb128 0x13
 3880 02c0 3B000000 		.4byte	.LASF24
 3881 02c4 01       		.byte	0x1
 3882 02c5 2F       		.byte	0x2f
 3883 02c6 97000000 		.4byte	0x97
 3884 02ca 03       		.byte	0x3
 3885 02cb E6020000 		.4byte	0x2e6
 3886 02cf 14       		.uleb128 0x14
 3887 02d0 63707500 		.ascii	"cpu\000"
 3888 02d4 01       		.byte	0x1
 3889 02d5 2F       		.byte	0x2f
 3890 02d6 B9020000 		.4byte	0x2b9
 3891 02da 15       		.uleb128 0x15
ARM GAS  C:\Users\raytr\AppData\Local\Temp\ccu8NuaS.s 			page 94


 3892 02db 61000000 		.4byte	.LASF22
 3893 02df 01       		.byte	0x1
 3894 02e0 2F       		.byte	0x2f
 3895 02e1 97000000 		.4byte	0x97
 3896 02e5 00       		.byte	0
 3897 02e6 13       		.uleb128 0x13
 3898 02e7 F1000000 		.4byte	.LASF25
 3899 02eb 01       		.byte	0x1
 3900 02ec 4F       		.byte	0x4f
 3901 02ed A2000000 		.4byte	0xa2
 3902 02f1 03       		.byte	0x3
 3903 02f2 14030000 		.4byte	0x314
 3904 02f6 14       		.uleb128 0x14
 3905 02f7 63707500 		.ascii	"cpu\000"
 3906 02fb 01       		.byte	0x1
 3907 02fc 4F       		.byte	0x4f
 3908 02fd B9020000 		.4byte	0x2b9
 3909 0301 14       		.uleb128 0x14
 3910 0302 6100     		.ascii	"a\000"
 3911 0304 01       		.byte	0x1
 3912 0305 4F       		.byte	0x4f
 3913 0306 A2000000 		.4byte	0xa2
 3914 030a 14       		.uleb128 0x14
 3915 030b 6200     		.ascii	"b\000"
 3916 030d 01       		.byte	0x1
 3917 030e 4F       		.byte	0x4f
 3918 030f A2000000 		.4byte	0xa2
 3919 0313 00       		.byte	0
 3920 0314 13       		.uleb128 0x13
 3921 0315 0A000000 		.4byte	.LASF26
 3922 0319 01       		.byte	0x1
 3923 031a 33       		.byte	0x33
 3924 031b 97000000 		.4byte	0x97
 3925 031f 03       		.byte	0x3
 3926 0320 42030000 		.4byte	0x342
 3927 0324 14       		.uleb128 0x14
 3928 0325 63707500 		.ascii	"cpu\000"
 3929 0329 01       		.byte	0x1
 3930 032a 33       		.byte	0x33
 3931 032b B9020000 		.4byte	0x2b9
 3932 032f 14       		.uleb128 0x14
 3933 0330 6100     		.ascii	"a\000"
 3934 0332 01       		.byte	0x1
 3935 0333 33       		.byte	0x33
 3936 0334 97000000 		.4byte	0x97
 3937 0338 14       		.uleb128 0x14
 3938 0339 6200     		.ascii	"b\000"
 3939 033b 01       		.byte	0x1
 3940 033c 33       		.byte	0x33
 3941 033d 97000000 		.4byte	0x97
 3942 0341 00       		.byte	0
 3943 0342 13       		.uleb128 0x13
 3944 0343 F9010000 		.4byte	.LASF27
 3945 0347 01       		.byte	0x1
 3946 0348 37       		.byte	0x37
 3947 0349 97000000 		.4byte	0x97
 3948 034d 03       		.byte	0x3
ARM GAS  C:\Users\raytr\AppData\Local\Temp\ccu8NuaS.s 			page 95


 3949 034e 70030000 		.4byte	0x370
 3950 0352 14       		.uleb128 0x14
 3951 0353 63707500 		.ascii	"cpu\000"
 3952 0357 01       		.byte	0x1
 3953 0358 37       		.byte	0x37
 3954 0359 B9020000 		.4byte	0x2b9
 3955 035d 14       		.uleb128 0x14
 3956 035e 6100     		.ascii	"a\000"
 3957 0360 01       		.byte	0x1
 3958 0361 37       		.byte	0x37
 3959 0362 97000000 		.4byte	0x97
 3960 0366 14       		.uleb128 0x14
 3961 0367 6200     		.ascii	"b\000"
 3962 0369 01       		.byte	0x1
 3963 036a 37       		.byte	0x37
 3964 036b 97000000 		.4byte	0x97
 3965 036f 00       		.byte	0
 3966 0370 13       		.uleb128 0x13
 3967 0371 02010000 		.4byte	.LASF28
 3968 0375 01       		.byte	0x1
 3969 0376 3B       		.byte	0x3b
 3970 0377 97000000 		.4byte	0x97
 3971 037b 03       		.byte	0x3
 3972 037c 9E030000 		.4byte	0x39e
 3973 0380 14       		.uleb128 0x14
 3974 0381 63707500 		.ascii	"cpu\000"
 3975 0385 01       		.byte	0x1
 3976 0386 3B       		.byte	0x3b
 3977 0387 B9020000 		.4byte	0x2b9
 3978 038b 14       		.uleb128 0x14
 3979 038c 6100     		.ascii	"a\000"
 3980 038e 01       		.byte	0x1
 3981 038f 3B       		.byte	0x3b
 3982 0390 97000000 		.4byte	0x97
 3983 0394 14       		.uleb128 0x14
 3984 0395 6200     		.ascii	"b\000"
 3985 0397 01       		.byte	0x1
 3986 0398 3B       		.byte	0x3b
 3987 0399 97000000 		.4byte	0x97
 3988 039d 00       		.byte	0
 3989 039e 13       		.uleb128 0x13
 3990 039f 81030000 		.4byte	.LASF29
 3991 03a3 01       		.byte	0x1
 3992 03a4 3F       		.byte	0x3f
 3993 03a5 97000000 		.4byte	0x97
 3994 03a9 03       		.byte	0x3
 3995 03aa CC030000 		.4byte	0x3cc
 3996 03ae 14       		.uleb128 0x14
 3997 03af 63707500 		.ascii	"cpu\000"
 3998 03b3 01       		.byte	0x1
 3999 03b4 3F       		.byte	0x3f
 4000 03b5 B9020000 		.4byte	0x2b9
 4001 03b9 14       		.uleb128 0x14
 4002 03ba 6100     		.ascii	"a\000"
 4003 03bc 01       		.byte	0x1
 4004 03bd 3F       		.byte	0x3f
 4005 03be 97000000 		.4byte	0x97
ARM GAS  C:\Users\raytr\AppData\Local\Temp\ccu8NuaS.s 			page 96


 4006 03c2 14       		.uleb128 0x14
 4007 03c3 6200     		.ascii	"b\000"
 4008 03c5 01       		.byte	0x1
 4009 03c6 3F       		.byte	0x3f
 4010 03c7 97000000 		.4byte	0x97
 4011 03cb 00       		.byte	0
 4012 03cc 13       		.uleb128 0x13
 4013 03cd CF010000 		.4byte	.LASF30
 4014 03d1 01       		.byte	0x1
 4015 03d2 43       		.byte	0x43
 4016 03d3 97000000 		.4byte	0x97
 4017 03d7 03       		.byte	0x3
 4018 03d8 FA030000 		.4byte	0x3fa
 4019 03dc 14       		.uleb128 0x14
 4020 03dd 63707500 		.ascii	"cpu\000"
 4021 03e1 01       		.byte	0x1
 4022 03e2 43       		.byte	0x43
 4023 03e3 B9020000 		.4byte	0x2b9
 4024 03e7 14       		.uleb128 0x14
 4025 03e8 6100     		.ascii	"a\000"
 4026 03ea 01       		.byte	0x1
 4027 03eb 43       		.byte	0x43
 4028 03ec 97000000 		.4byte	0x97
 4029 03f0 14       		.uleb128 0x14
 4030 03f1 6200     		.ascii	"b\000"
 4031 03f3 01       		.byte	0x1
 4032 03f4 43       		.byte	0x43
 4033 03f5 97000000 		.4byte	0x97
 4034 03f9 00       		.byte	0
 4035 03fa 13       		.uleb128 0x13
 4036 03fb 6D030000 		.4byte	.LASF31
 4037 03ff 01       		.byte	0x1
 4038 0400 47       		.byte	0x47
 4039 0401 97000000 		.4byte	0x97
 4040 0405 03       		.byte	0x3
 4041 0406 28040000 		.4byte	0x428
 4042 040a 14       		.uleb128 0x14
 4043 040b 63707500 		.ascii	"cpu\000"
 4044 040f 01       		.byte	0x1
 4045 0410 47       		.byte	0x47
 4046 0411 B9020000 		.4byte	0x2b9
 4047 0415 14       		.uleb128 0x14
 4048 0416 6100     		.ascii	"a\000"
 4049 0418 01       		.byte	0x1
 4050 0419 47       		.byte	0x47
 4051 041a 97000000 		.4byte	0x97
 4052 041e 14       		.uleb128 0x14
 4053 041f 6200     		.ascii	"b\000"
 4054 0421 01       		.byte	0x1
 4055 0422 47       		.byte	0x47
 4056 0423 97000000 		.4byte	0x97
 4057 0427 00       		.byte	0
 4058 0428 13       		.uleb128 0x13
 4059 0429 A0030000 		.4byte	.LASF32
 4060 042d 01       		.byte	0x1
 4061 042e 4B       		.byte	0x4b
 4062 042f 97000000 		.4byte	0x97
ARM GAS  C:\Users\raytr\AppData\Local\Temp\ccu8NuaS.s 			page 97


 4063 0433 03       		.byte	0x3
 4064 0434 56040000 		.4byte	0x456
 4065 0438 14       		.uleb128 0x14
 4066 0439 63707500 		.ascii	"cpu\000"
 4067 043d 01       		.byte	0x1
 4068 043e 4B       		.byte	0x4b
 4069 043f B9020000 		.4byte	0x2b9
 4070 0443 14       		.uleb128 0x14
 4071 0444 6100     		.ascii	"a\000"
 4072 0446 01       		.byte	0x1
 4073 0447 4B       		.byte	0x4b
 4074 0448 97000000 		.4byte	0x97
 4075 044c 14       		.uleb128 0x14
 4076 044d 6200     		.ascii	"b\000"
 4077 044f 01       		.byte	0x1
 4078 0450 4B       		.byte	0x4b
 4079 0451 97000000 		.4byte	0x97
 4080 0455 00       		.byte	0
 4081 0456 17       		.uleb128 0x17
 4082 0457 E3020000 		.4byte	.LASF33
 4083 045b 01       		.byte	0x1
 4084 045c 10       		.byte	0x10
 4085 045d 00000000 		.4byte	.LFB2
 4086 0461 20000000 		.4byte	.LFE2-.LFB2
 4087 0465 01       		.uleb128 0x1
 4088 0466 9C       		.byte	0x9c
 4089 0467 79040000 		.4byte	0x479
 4090 046b 18       		.uleb128 0x18
 4091 046c 63707500 		.ascii	"cpu\000"
 4092 0470 01       		.byte	0x1
 4093 0471 10       		.byte	0x10
 4094 0472 B9020000 		.4byte	0x2b9
 4095 0476 01       		.uleb128 0x1
 4096 0477 50       		.byte	0x50
 4097 0478 00       		.byte	0
 4098 0479 17       		.uleb128 0x17
 4099 047a C4000000 		.4byte	.LASF34
 4100 047e 01       		.byte	0x1
 4101 047f 17       		.byte	0x17
 4102 0480 00000000 		.4byte	.LFB3
 4103 0484 14000000 		.4byte	.LFE3-.LFB3
 4104 0488 01       		.uleb128 0x1
 4105 0489 9C       		.byte	0x9c
 4106 048a AB040000 		.4byte	0x4ab
 4107 048e 18       		.uleb128 0x18
 4108 048f 63707500 		.ascii	"cpu\000"
 4109 0493 01       		.byte	0x1
 4110 0494 17       		.byte	0x17
 4111 0495 B9020000 		.4byte	0x2b9
 4112 0499 01       		.uleb128 0x1
 4113 049a 50       		.byte	0x50
 4114 049b 19       		.uleb128 0x19
 4115 049c 09010000 		.4byte	.LASF35
 4116 04a0 01       		.byte	0x1
 4117 04a1 17       		.byte	0x17
 4118 04a2 8C000000 		.4byte	0x8c
 4119 04a6 00000000 		.4byte	.LLST0
ARM GAS  C:\Users\raytr\AppData\Local\Temp\ccu8NuaS.s 			page 98


 4120 04aa 00       		.byte	0
 4121 04ab 1A       		.uleb128 0x1a
 4122 04ac 3C030000 		.4byte	.LASF36
 4123 04b0 01       		.byte	0x1
 4124 04b1 1F       		.byte	0x1f
 4125 04b2 97000000 		.4byte	0x97
 4126 04b6 00000000 		.4byte	.LFB4
 4127 04ba 1E000000 		.4byte	.LFE4-.LFB4
 4128 04be 01       		.uleb128 0x1
 4129 04bf 9C       		.byte	0x9c
 4130 04c0 05050000 		.4byte	0x505
 4131 04c4 1B       		.uleb128 0x1b
 4132 04c5 63707500 		.ascii	"cpu\000"
 4133 04c9 01       		.byte	0x1
 4134 04ca 1F       		.byte	0x1f
 4135 04cb B9020000 		.4byte	0x2b9
 4136 04cf 21000000 		.4byte	.LLST1
 4137 04d3 1C       		.uleb128 0x1c
 4138 04d4 F0020000 		.4byte	.LASF38
 4139 04d8 01       		.byte	0x1
 4140 04d9 20       		.byte	0x20
 4141 04da 97000000 		.4byte	0x97
 4142 04de 01       		.uleb128 0x1
 4143 04df 55       		.byte	0x55
 4144 04e0 1D       		.uleb128 0x1d
 4145 04e1 12000000 		.4byte	.LVL5
 4146 04e5 261A0000 		.4byte	0x1a26
 4147 04e9 F4040000 		.4byte	0x4f4
 4148 04ed 1E       		.uleb128 0x1e
 4149 04ee 01       		.uleb128 0x1
 4150 04ef 50       		.byte	0x50
 4151 04f0 02       		.uleb128 0x2
 4152 04f1 74       		.byte	0x74
 4153 04f2 0C       		.sleb128 12
 4154 04f3 00       		.byte	0
 4155 04f4 1F       		.uleb128 0x1f
 4156 04f5 1A000000 		.4byte	.LVL7
 4157 04f9 56040000 		.4byte	0x456
 4158 04fd 1E       		.uleb128 0x1e
 4159 04fe 01       		.uleb128 0x1
 4160 04ff 50       		.byte	0x50
 4161 0500 02       		.uleb128 0x2
 4162 0501 74       		.byte	0x74
 4163 0502 00       		.sleb128 0
 4164 0503 00       		.byte	0
 4165 0504 00       		.byte	0
 4166 0505 1A       		.uleb128 0x1a
 4167 0506 8C000000 		.4byte	.LASF37
 4168 050a 01       		.byte	0x1
 4169 050b 25       		.byte	0x25
 4170 050c A2000000 		.4byte	0xa2
 4171 0510 00000000 		.4byte	.LFB5
 4172 0514 18000000 		.4byte	.LFE5-.LFB5
 4173 0518 01       		.uleb128 0x1
 4174 0519 9C       		.byte	0x9c
 4175 051a 6E050000 		.4byte	0x56e
 4176 051e 1B       		.uleb128 0x1b
ARM GAS  C:\Users\raytr\AppData\Local\Temp\ccu8NuaS.s 			page 99


 4177 051f 63707500 		.ascii	"cpu\000"
 4178 0523 01       		.byte	0x1
 4179 0524 25       		.byte	0x25
 4180 0525 B9020000 		.4byte	0x2b9
 4181 0529 3F000000 		.4byte	.LLST2
 4182 052d 1C       		.uleb128 0x1c
 4183 052e CE000000 		.4byte	.LASF39
 4184 0532 01       		.byte	0x1
 4185 0533 26       		.byte	0x26
 4186 0534 97000000 		.4byte	0x97
 4187 0538 01       		.uleb128 0x1
 4188 0539 54       		.byte	0x54
 4189 053a 20       		.uleb128 0x20
 4190 053b 11000000 		.4byte	.LASF40
 4191 053f 01       		.byte	0x1
 4192 0540 27       		.byte	0x27
 4193 0541 97000000 		.4byte	0x97
 4194 0545 5D000000 		.4byte	.LLST3
 4195 0549 1D       		.uleb128 0x1d
 4196 054a 08000000 		.4byte	.LVL9
 4197 054e AB040000 		.4byte	0x4ab
 4198 0552 5D050000 		.4byte	0x55d
 4199 0556 1E       		.uleb128 0x1e
 4200 0557 01       		.uleb128 0x1
 4201 0558 50       		.byte	0x50
 4202 0559 02       		.uleb128 0x2
 4203 055a 75       		.byte	0x75
 4204 055b 00       		.sleb128 0
 4205 055c 00       		.byte	0
 4206 055d 1F       		.uleb128 0x1f
 4207 055e 10000000 		.4byte	.LVL11
 4208 0562 AB040000 		.4byte	0x4ab
 4209 0566 1E       		.uleb128 0x1e
 4210 0567 01       		.uleb128 0x1
 4211 0568 50       		.byte	0x50
 4212 0569 02       		.uleb128 0x2
 4213 056a 75       		.byte	0x75
 4214 056b 00       		.sleb128 0
 4215 056c 00       		.byte	0
 4216 056d 00       		.byte	0
 4217 056e 21       		.uleb128 0x21
 4218 056f 10010000 		.4byte	.LASF41
 4219 0573 01       		.byte	0x1
 4220 0574 06       		.byte	0x6
 4221 0575 8C000000 		.4byte	0x8c
 4222 0579 00000000 		.4byte	.LFB0
 4223 057d 04000000 		.4byte	.LFE0-.LFB0
 4224 0581 01       		.uleb128 0x1
 4225 0582 9C       		.byte	0x9c
 4226 0583 93050000 		.4byte	0x593
 4227 0587 18       		.uleb128 0x18
 4228 0588 7800     		.ascii	"x\000"
 4229 058a 01       		.byte	0x1
 4230 058b 06       		.byte	0x6
 4231 058c 97000000 		.4byte	0x97
 4232 0590 01       		.uleb128 0x1
 4233 0591 50       		.byte	0x50
ARM GAS  C:\Users\raytr\AppData\Local\Temp\ccu8NuaS.s 			page 100


 4234 0592 00       		.byte	0
 4235 0593 22       		.uleb128 0x22
 4236 0594 53030000 		.4byte	.LASF69
 4237 0598 01       		.byte	0x1
 4238 0599 0A       		.byte	0xa
 4239 059a 00000000 		.4byte	.LFB1
 4240 059e 1A000000 		.4byte	.LFE1-.LFB1
 4241 05a2 01       		.uleb128 0x1
 4242 05a3 9C       		.byte	0x9c
 4243 05a4 DC050000 		.4byte	0x5dc
 4244 05a8 1B       		.uleb128 0x1b
 4245 05a9 63707500 		.ascii	"cpu\000"
 4246 05ad 01       		.byte	0x1
 4247 05ae 0A       		.byte	0xa
 4248 05af B9020000 		.4byte	0x2b9
 4249 05b3 70000000 		.4byte	.LLST4
 4250 05b7 1D       		.uleb128 0x1d
 4251 05b8 12000000 		.4byte	.LVL16
 4252 05bc 4B1A0000 		.4byte	0x1a4b
 4253 05c0 CB050000 		.4byte	0x5cb
 4254 05c4 1E       		.uleb128 0x1e
 4255 05c5 01       		.uleb128 0x1
 4256 05c6 50       		.byte	0x50
 4257 05c7 02       		.uleb128 0x2
 4258 05c8 74       		.byte	0x74
 4259 05c9 0C       		.sleb128 12
 4260 05ca 00       		.byte	0
 4261 05cb 1F       		.uleb128 0x1f
 4262 05cc 18000000 		.4byte	.LVL17
 4263 05d0 5C1A0000 		.4byte	0x1a5c
 4264 05d4 1E       		.uleb128 0x1e
 4265 05d5 01       		.uleb128 0x1
 4266 05d6 50       		.byte	0x50
 4267 05d7 02       		.uleb128 0x2
 4268 05d8 74       		.byte	0x74
 4269 05d9 00       		.sleb128 0
 4270 05da 00       		.byte	0
 4271 05db 00       		.byte	0
 4272 05dc 21       		.uleb128 0x21
 4273 05dd 42000000 		.4byte	.LASF42
 4274 05e1 01       		.byte	0x1
 4275 05e2 54       		.byte	0x54
 4276 05e3 7E000000 		.4byte	0x7e
 4277 05e7 00000000 		.4byte	.LFB16
 4278 05eb B20B0000 		.4byte	.LFE16-.LFB16
 4279 05ef 01       		.uleb128 0x1
 4280 05f0 9C       		.byte	0x9c
 4281 05f1 AD180000 		.4byte	0x18ad
 4282 05f5 1B       		.uleb128 0x1b
 4283 05f6 63707500 		.ascii	"cpu\000"
 4284 05fa 01       		.byte	0x1
 4285 05fb 54       		.byte	0x54
 4286 05fc B9020000 		.4byte	0x2b9
 4287 0600 8E000000 		.4byte	.LLST5
 4288 0604 19       		.uleb128 0x19
 4289 0605 A6030000 		.4byte	.LASF43
 4290 0609 01       		.byte	0x1
ARM GAS  C:\Users\raytr\AppData\Local\Temp\ccu8NuaS.s 			page 101


 4291 060a 54       		.byte	0x54
 4292 060b 97000000 		.4byte	0x97
 4293 060f B0110000 		.4byte	.LLST6
 4294 0613 20       		.uleb128 0x20
 4295 0614 67000000 		.4byte	.LASF44
 4296 0618 01       		.byte	0x1
 4297 0619 55       		.byte	0x55
 4298 061a 7E000000 		.4byte	0x7e
 4299 061e D1110000 		.4byte	.LLST7
 4300 0622 23       		.uleb128 0x23
 4301 0623 12020000 		.4byte	.LBB181
 4302 0627 9E090000 		.4byte	.LBE181-.LBB181
 4303 062b 20       		.uleb128 0x20
 4304 062c 23030000 		.4byte	.LASF45
 4305 0630 01       		.byte	0x1
 4306 0631 78       		.byte	0x78
 4307 0632 A2000000 		.4byte	0xa2
 4308 0636 58160000 		.4byte	.LLST8
 4309 063a 20       		.uleb128 0x20
 4310 063b 30030000 		.4byte	.LASF46
 4311 063f 01       		.byte	0x1
 4312 0640 B9       		.byte	0xb9
 4313 0641 8C000000 		.4byte	0x8c
 4314 0645 6B160000 		.4byte	.LLST9
 4315 0649 20       		.uleb128 0x20
 4316 064a 47010000 		.4byte	.LASF47
 4317 064e 01       		.byte	0x1
 4318 064f D9       		.byte	0xd9
 4319 0650 8C000000 		.4byte	0x8c
 4320 0654 7E160000 		.4byte	.LLST10
 4321 0658 20       		.uleb128 0x20
 4322 0659 8C010000 		.4byte	.LASF48
 4323 065d 01       		.byte	0x1
 4324 065e FE       		.byte	0xfe
 4325 065f 8C000000 		.4byte	0x8c
 4326 0663 9C160000 		.4byte	.LLST11
 4327 0667 24       		.uleb128 0x24
 4328 0668 A9000000 		.4byte	.LASF49
 4329 066c 01       		.byte	0x1
 4330 066d 2201     		.2byte	0x122
 4331 066f 8C000000 		.4byte	0x8c
 4332 0673 BA160000 		.4byte	.LLST12
 4333 0677 24       		.uleb128 0x24
 4334 0678 B7000000 		.4byte	.LASF50
 4335 067c 01       		.byte	0x1
 4336 067d 4401     		.2byte	0x144
 4337 067f 8C000000 		.4byte	0x8c
 4338 0683 D8160000 		.4byte	.LLST13
 4339 0687 24       		.uleb128 0x24
 4340 0688 EC010000 		.4byte	.LASF51
 4341 068c 01       		.byte	0x1
 4342 068d 6803     		.2byte	0x368
 4343 068f A2000000 		.4byte	0xa2
 4344 0693 F6160000 		.4byte	.LLST14
 4345 0697 24       		.uleb128 0x24
 4346 0698 2D010000 		.4byte	.LASF52
 4347 069c 01       		.byte	0x1
ARM GAS  C:\Users\raytr\AppData\Local\Temp\ccu8NuaS.s 			page 102


 4348 069d 7003     		.2byte	0x370
 4349 069f A2000000 		.4byte	0xa2
 4350 06a3 14170000 		.4byte	.LLST15
 4351 06a7 25       		.uleb128 0x25
 4352 06a8 38010000 		.4byte	.LASF70
 4353 06ac 01       		.byte	0x1
 4354 06ad 7503     		.2byte	0x375
 4355 06af A2000000 		.4byte	0xa2
 4356 06b3 24       		.uleb128 0x24
 4357 06b4 B7030000 		.4byte	.LASF53
 4358 06b8 01       		.byte	0x1
 4359 06b9 AF03     		.2byte	0x3af
 4360 06bb A2000000 		.4byte	0xa2
 4361 06bf 33170000 		.4byte	.LLST16
 4362 06c3 24       		.uleb128 0x24
 4363 06c4 C3010000 		.4byte	.LASF54
 4364 06c8 01       		.byte	0x1
 4365 06c9 D103     		.2byte	0x3d1
 4366 06cb A2000000 		.4byte	0xa2
 4367 06cf 51170000 		.4byte	.LLST17
 4368 06d3 26       		.uleb128 0x26
 4369 06d4 E6020000 		.4byte	0x2e6
 4370 06d8 6E020000 		.4byte	.LBB182
 4371 06dc 02000000 		.4byte	.LBE182-.LBB182
 4372 06e0 01       		.byte	0x1
 4373 06e1 7E       		.byte	0x7e
 4374 06e2 02070000 		.4byte	0x702
 4375 06e6 27       		.uleb128 0x27
 4376 06e7 0A030000 		.4byte	0x30a
 4377 06eb 6F170000 		.4byte	.LLST18
 4378 06ef 27       		.uleb128 0x27
 4379 06f0 01030000 		.4byte	0x301
 4380 06f4 9A170000 		.4byte	.LLST19
 4381 06f8 27       		.uleb128 0x27
 4382 06f9 F6020000 		.4byte	0x2f6
 4383 06fd AD170000 		.4byte	.LLST20
 4384 0701 00       		.byte	0
 4385 0702 26       		.uleb128 0x26
 4386 0703 E6020000 		.4byte	0x2e6
 4387 0707 EA020000 		.4byte	.LBB184
 4388 070b 02000000 		.4byte	.LBE184-.LBB184
 4389 070f 01       		.byte	0x1
 4390 0710 BE       		.byte	0xbe
 4391 0711 31070000 		.4byte	0x731
 4392 0715 27       		.uleb128 0x27
 4393 0716 0A030000 		.4byte	0x30a
 4394 071a CB170000 		.4byte	.LLST21
 4395 071e 27       		.uleb128 0x27
 4396 071f 01030000 		.4byte	0x301
 4397 0723 F6170000 		.4byte	.LLST22
 4398 0727 27       		.uleb128 0x27
 4399 0728 F6020000 		.4byte	0x2f6
 4400 072c 09180000 		.4byte	.LLST23
 4401 0730 00       		.byte	0
 4402 0731 28       		.uleb128 0x28
 4403 0732 E6020000 		.4byte	0x2e6
 4404 0736 9A030000 		.4byte	.LBB186
ARM GAS  C:\Users\raytr\AppData\Local\Temp\ccu8NuaS.s 			page 103


 4405 073a 02000000 		.4byte	.LBE186-.LBB186
 4406 073e 01       		.byte	0x1
 4407 073f 0601     		.2byte	0x106
 4408 0741 61070000 		.4byte	0x761
 4409 0745 27       		.uleb128 0x27
 4410 0746 0A030000 		.4byte	0x30a
 4411 074a 27180000 		.4byte	.LLST24
 4412 074e 27       		.uleb128 0x27
 4413 074f 01030000 		.4byte	0x301
 4414 0753 27180000 		.4byte	.LLST24
 4415 0757 27       		.uleb128 0x27
 4416 0758 F6020000 		.4byte	0x2f6
 4417 075c 46180000 		.4byte	.LLST26
 4418 0760 00       		.byte	0
 4419 0761 28       		.uleb128 0x28
 4420 0762 E6020000 		.4byte	0x2e6
 4421 0766 56040000 		.4byte	.LBB188
 4422 076a 02000000 		.4byte	.LBE188-.LBB188
 4423 076e 01       		.byte	0x1
 4424 076f 4C01     		.2byte	0x14c
 4425 0771 91070000 		.4byte	0x791
 4426 0775 27       		.uleb128 0x27
 4427 0776 0A030000 		.4byte	0x30a
 4428 077a 64180000 		.4byte	.LLST27
 4429 077e 27       		.uleb128 0x27
 4430 077f 01030000 		.4byte	0x301
 4431 0783 8F180000 		.4byte	.LLST28
 4432 0787 27       		.uleb128 0x27
 4433 0788 F6020000 		.4byte	0x2f6
 4434 078c A2180000 		.4byte	.LLST29
 4435 0790 00       		.byte	0
 4436 0791 28       		.uleb128 0x28
 4437 0792 14030000 		.4byte	0x314
 4438 0796 CE060000 		.4byte	.LBB190
 4439 079a 02000000 		.4byte	.LBE190-.LBB190
 4440 079e 01       		.byte	0x1
 4441 079f 6002     		.2byte	0x260
 4442 07a1 C1070000 		.4byte	0x7c1
 4443 07a5 27       		.uleb128 0x27
 4444 07a6 38030000 		.4byte	0x338
 4445 07aa C0180000 		.4byte	.LLST30
 4446 07ae 27       		.uleb128 0x27
 4447 07af 2F030000 		.4byte	0x32f
 4448 07b3 EB180000 		.4byte	.LLST31
 4449 07b7 27       		.uleb128 0x27
 4450 07b8 24030000 		.4byte	0x324
 4451 07bc FE180000 		.4byte	.LLST32
 4452 07c0 00       		.byte	0
 4453 07c1 28       		.uleb128 0x28
 4454 07c2 14030000 		.4byte	0x314
 4455 07c6 DA060000 		.4byte	.LBB192
 4456 07ca 02000000 		.4byte	.LBE192-.LBB192
 4457 07ce 01       		.byte	0x1
 4458 07cf 6402     		.2byte	0x264
 4459 07d1 F1070000 		.4byte	0x7f1
 4460 07d5 27       		.uleb128 0x27
 4461 07d6 38030000 		.4byte	0x338
ARM GAS  C:\Users\raytr\AppData\Local\Temp\ccu8NuaS.s 			page 104


 4462 07da 1C190000 		.4byte	.LLST33
 4463 07de 27       		.uleb128 0x27
 4464 07df 2F030000 		.4byte	0x32f
 4465 07e3 47190000 		.4byte	.LLST34
 4466 07e7 27       		.uleb128 0x27
 4467 07e8 24030000 		.4byte	0x324
 4468 07ec 5A190000 		.4byte	.LLST35
 4469 07f0 00       		.byte	0
 4470 07f1 28       		.uleb128 0x28
 4471 07f2 14030000 		.4byte	0x314
 4472 07f6 E6060000 		.4byte	.LBB194
 4473 07fa 02000000 		.4byte	.LBE194-.LBB194
 4474 07fe 01       		.byte	0x1
 4475 07ff 6802     		.2byte	0x268
 4476 0801 21080000 		.4byte	0x821
 4477 0805 27       		.uleb128 0x27
 4478 0806 38030000 		.4byte	0x338
 4479 080a 78190000 		.4byte	.LLST36
 4480 080e 27       		.uleb128 0x27
 4481 080f 2F030000 		.4byte	0x32f
 4482 0813 A3190000 		.4byte	.LLST37
 4483 0817 27       		.uleb128 0x27
 4484 0818 24030000 		.4byte	0x324
 4485 081c B6190000 		.4byte	.LLST38
 4486 0820 00       		.byte	0
 4487 0821 28       		.uleb128 0x28
 4488 0822 14030000 		.4byte	0x314
 4489 0826 F2060000 		.4byte	.LBB196
 4490 082a 02000000 		.4byte	.LBE196-.LBB196
 4491 082e 01       		.byte	0x1
 4492 082f 6C02     		.2byte	0x26c
 4493 0831 51080000 		.4byte	0x851
 4494 0835 27       		.uleb128 0x27
 4495 0836 38030000 		.4byte	0x338
 4496 083a D4190000 		.4byte	.LLST39
 4497 083e 27       		.uleb128 0x27
 4498 083f 2F030000 		.4byte	0x32f
 4499 0843 FF190000 		.4byte	.LLST40
 4500 0847 27       		.uleb128 0x27
 4501 0848 24030000 		.4byte	0x324
 4502 084c 121A0000 		.4byte	.LLST41
 4503 0850 00       		.byte	0
 4504 0851 28       		.uleb128 0x28
 4505 0852 14030000 		.4byte	0x314
 4506 0856 FE060000 		.4byte	.LBB198
 4507 085a 02000000 		.4byte	.LBE198-.LBB198
 4508 085e 01       		.byte	0x1
 4509 085f 7002     		.2byte	0x270
 4510 0861 81080000 		.4byte	0x881
 4511 0865 27       		.uleb128 0x27
 4512 0866 38030000 		.4byte	0x338
 4513 086a 301A0000 		.4byte	.LLST42
 4514 086e 27       		.uleb128 0x27
 4515 086f 2F030000 		.4byte	0x32f
 4516 0873 5B1A0000 		.4byte	.LLST43
 4517 0877 27       		.uleb128 0x27
 4518 0878 24030000 		.4byte	0x324
ARM GAS  C:\Users\raytr\AppData\Local\Temp\ccu8NuaS.s 			page 105


 4519 087c 6E1A0000 		.4byte	.LLST44
 4520 0880 00       		.byte	0
 4521 0881 28       		.uleb128 0x28
 4522 0882 14030000 		.4byte	0x314
 4523 0886 0A070000 		.4byte	.LBB200
 4524 088a 02000000 		.4byte	.LBE200-.LBB200
 4525 088e 01       		.byte	0x1
 4526 088f 7402     		.2byte	0x274
 4527 0891 B1080000 		.4byte	0x8b1
 4528 0895 27       		.uleb128 0x27
 4529 0896 38030000 		.4byte	0x338
 4530 089a 8C1A0000 		.4byte	.LLST45
 4531 089e 27       		.uleb128 0x27
 4532 089f 2F030000 		.4byte	0x32f
 4533 08a3 B71A0000 		.4byte	.LLST46
 4534 08a7 27       		.uleb128 0x27
 4535 08a8 24030000 		.4byte	0x324
 4536 08ac CA1A0000 		.4byte	.LLST47
 4537 08b0 00       		.byte	0
 4538 08b1 28       		.uleb128 0x28
 4539 08b2 14030000 		.4byte	0x314
 4540 08b6 22070000 		.4byte	.LBB202
 4541 08ba 02000000 		.4byte	.LBE202-.LBB202
 4542 08be 01       		.byte	0x1
 4543 08bf 7802     		.2byte	0x278
 4544 08c1 E1080000 		.4byte	0x8e1
 4545 08c5 27       		.uleb128 0x27
 4546 08c6 38030000 		.4byte	0x338
 4547 08ca E81A0000 		.4byte	.LLST48
 4548 08ce 27       		.uleb128 0x27
 4549 08cf 2F030000 		.4byte	0x32f
 4550 08d3 FB1A0000 		.4byte	.LLST49
 4551 08d7 27       		.uleb128 0x27
 4552 08d8 24030000 		.4byte	0x324
 4553 08dc 0E1B0000 		.4byte	.LLST50
 4554 08e0 00       		.byte	0
 4555 08e1 28       		.uleb128 0x28
 4556 08e2 14030000 		.4byte	0x314
 4557 08e6 2C070000 		.4byte	.LBB204
 4558 08ea 02000000 		.4byte	.LBE204-.LBB204
 4559 08ee 01       		.byte	0x1
 4560 08ef 7C02     		.2byte	0x27c
 4561 08f1 11090000 		.4byte	0x911
 4562 08f5 27       		.uleb128 0x27
 4563 08f6 38030000 		.4byte	0x338
 4564 08fa 211B0000 		.4byte	.LLST51
 4565 08fe 27       		.uleb128 0x27
 4566 08ff 2F030000 		.4byte	0x32f
 4567 0903 211B0000 		.4byte	.LLST51
 4568 0907 27       		.uleb128 0x27
 4569 0908 24030000 		.4byte	0x324
 4570 090c 401B0000 		.4byte	.LLST53
 4571 0910 00       		.byte	0
 4572 0911 28       		.uleb128 0x28
 4573 0912 42030000 		.4byte	0x342
 4574 0916 38070000 		.4byte	.LBB206
 4575 091a 02000000 		.4byte	.LBE206-.LBB206
ARM GAS  C:\Users\raytr\AppData\Local\Temp\ccu8NuaS.s 			page 106


 4576 091e 01       		.byte	0x1
 4577 091f 8002     		.2byte	0x280
 4578 0921 41090000 		.4byte	0x941
 4579 0925 27       		.uleb128 0x27
 4580 0926 66030000 		.4byte	0x366
 4581 092a 5E1B0000 		.4byte	.LLST54
 4582 092e 27       		.uleb128 0x27
 4583 092f 5D030000 		.4byte	0x35d
 4584 0933 891B0000 		.4byte	.LLST55
 4585 0937 27       		.uleb128 0x27
 4586 0938 52030000 		.4byte	0x352
 4587 093c 9C1B0000 		.4byte	.LLST56
 4588 0940 00       		.byte	0
 4589 0941 28       		.uleb128 0x28
 4590 0942 42030000 		.4byte	0x342
 4591 0946 44070000 		.4byte	.LBB208
 4592 094a 02000000 		.4byte	.LBE208-.LBB208
 4593 094e 01       		.byte	0x1
 4594 094f 8402     		.2byte	0x284
 4595 0951 71090000 		.4byte	0x971
 4596 0955 27       		.uleb128 0x27
 4597 0956 66030000 		.4byte	0x366
 4598 095a BA1B0000 		.4byte	.LLST57
 4599 095e 27       		.uleb128 0x27
 4600 095f 5D030000 		.4byte	0x35d
 4601 0963 E51B0000 		.4byte	.LLST58
 4602 0967 27       		.uleb128 0x27
 4603 0968 52030000 		.4byte	0x352
 4604 096c F81B0000 		.4byte	.LLST59
 4605 0970 00       		.byte	0
 4606 0971 28       		.uleb128 0x28
 4607 0972 42030000 		.4byte	0x342
 4608 0976 50070000 		.4byte	.LBB210
 4609 097a 02000000 		.4byte	.LBE210-.LBB210
 4610 097e 01       		.byte	0x1
 4611 097f 8802     		.2byte	0x288
 4612 0981 A1090000 		.4byte	0x9a1
 4613 0985 27       		.uleb128 0x27
 4614 0986 66030000 		.4byte	0x366
 4615 098a 161C0000 		.4byte	.LLST60
 4616 098e 27       		.uleb128 0x27
 4617 098f 5D030000 		.4byte	0x35d
 4618 0993 411C0000 		.4byte	.LLST61
 4619 0997 27       		.uleb128 0x27
 4620 0998 52030000 		.4byte	0x352
 4621 099c 541C0000 		.4byte	.LLST62
 4622 09a0 00       		.byte	0
 4623 09a1 28       		.uleb128 0x28
 4624 09a2 42030000 		.4byte	0x342
 4625 09a6 5C070000 		.4byte	.LBB212
 4626 09aa 02000000 		.4byte	.LBE212-.LBB212
 4627 09ae 01       		.byte	0x1
 4628 09af 8C02     		.2byte	0x28c
 4629 09b1 D1090000 		.4byte	0x9d1
 4630 09b5 27       		.uleb128 0x27
 4631 09b6 66030000 		.4byte	0x366
 4632 09ba 721C0000 		.4byte	.LLST63
ARM GAS  C:\Users\raytr\AppData\Local\Temp\ccu8NuaS.s 			page 107


 4633 09be 27       		.uleb128 0x27
 4634 09bf 5D030000 		.4byte	0x35d
 4635 09c3 9D1C0000 		.4byte	.LLST64
 4636 09c7 27       		.uleb128 0x27
 4637 09c8 52030000 		.4byte	0x352
 4638 09cc B01C0000 		.4byte	.LLST65
 4639 09d0 00       		.byte	0
 4640 09d1 28       		.uleb128 0x28
 4641 09d2 42030000 		.4byte	0x342
 4642 09d6 68070000 		.4byte	.LBB214
 4643 09da 02000000 		.4byte	.LBE214-.LBB214
 4644 09de 01       		.byte	0x1
 4645 09df 9002     		.2byte	0x290
 4646 09e1 010A0000 		.4byte	0xa01
 4647 09e5 27       		.uleb128 0x27
 4648 09e6 66030000 		.4byte	0x366
 4649 09ea CE1C0000 		.4byte	.LLST66
 4650 09ee 27       		.uleb128 0x27
 4651 09ef 5D030000 		.4byte	0x35d
 4652 09f3 F91C0000 		.4byte	.LLST67
 4653 09f7 27       		.uleb128 0x27
 4654 09f8 52030000 		.4byte	0x352
 4655 09fc 0C1D0000 		.4byte	.LLST68
 4656 0a00 00       		.byte	0
 4657 0a01 28       		.uleb128 0x28
 4658 0a02 42030000 		.4byte	0x342
 4659 0a06 74070000 		.4byte	.LBB216
 4660 0a0a 02000000 		.4byte	.LBE216-.LBB216
 4661 0a0e 01       		.byte	0x1
 4662 0a0f 9402     		.2byte	0x294
 4663 0a11 310A0000 		.4byte	0xa31
 4664 0a15 27       		.uleb128 0x27
 4665 0a16 66030000 		.4byte	0x366
 4666 0a1a 2A1D0000 		.4byte	.LLST69
 4667 0a1e 27       		.uleb128 0x27
 4668 0a1f 5D030000 		.4byte	0x35d
 4669 0a23 551D0000 		.4byte	.LLST70
 4670 0a27 27       		.uleb128 0x27
 4671 0a28 52030000 		.4byte	0x352
 4672 0a2c 681D0000 		.4byte	.LLST71
 4673 0a30 00       		.byte	0
 4674 0a31 28       		.uleb128 0x28
 4675 0a32 42030000 		.4byte	0x342
 4676 0a36 8C070000 		.4byte	.LBB218
 4677 0a3a 02000000 		.4byte	.LBE218-.LBB218
 4678 0a3e 01       		.byte	0x1
 4679 0a3f 9802     		.2byte	0x298
 4680 0a41 610A0000 		.4byte	0xa61
 4681 0a45 27       		.uleb128 0x27
 4682 0a46 66030000 		.4byte	0x366
 4683 0a4a 861D0000 		.4byte	.LLST72
 4684 0a4e 27       		.uleb128 0x27
 4685 0a4f 5D030000 		.4byte	0x35d
 4686 0a53 991D0000 		.4byte	.LLST73
 4687 0a57 27       		.uleb128 0x27
 4688 0a58 52030000 		.4byte	0x352
 4689 0a5c AC1D0000 		.4byte	.LLST74
ARM GAS  C:\Users\raytr\AppData\Local\Temp\ccu8NuaS.s 			page 108


 4690 0a60 00       		.byte	0
 4691 0a61 28       		.uleb128 0x28
 4692 0a62 42030000 		.4byte	0x342
 4693 0a66 96070000 		.4byte	.LBB220
 4694 0a6a 02000000 		.4byte	.LBE220-.LBB220
 4695 0a6e 01       		.byte	0x1
 4696 0a6f 9C02     		.2byte	0x29c
 4697 0a71 910A0000 		.4byte	0xa91
 4698 0a75 27       		.uleb128 0x27
 4699 0a76 66030000 		.4byte	0x366
 4700 0a7a BF1D0000 		.4byte	.LLST75
 4701 0a7e 27       		.uleb128 0x27
 4702 0a7f 5D030000 		.4byte	0x35d
 4703 0a83 BF1D0000 		.4byte	.LLST75
 4704 0a87 27       		.uleb128 0x27
 4705 0a88 52030000 		.4byte	0x352
 4706 0a8c DE1D0000 		.4byte	.LLST77
 4707 0a90 00       		.byte	0
 4708 0a91 28       		.uleb128 0x28
 4709 0a92 70030000 		.4byte	0x370
 4710 0a96 A2070000 		.4byte	.LBB222
 4711 0a9a 02000000 		.4byte	.LBE222-.LBB222
 4712 0a9e 01       		.byte	0x1
 4713 0a9f A002     		.2byte	0x2a0
 4714 0aa1 C10A0000 		.4byte	0xac1
 4715 0aa5 27       		.uleb128 0x27
 4716 0aa6 94030000 		.4byte	0x394
 4717 0aaa FC1D0000 		.4byte	.LLST78
 4718 0aae 27       		.uleb128 0x27
 4719 0aaf 8B030000 		.4byte	0x38b
 4720 0ab3 0F1E0000 		.4byte	.LLST79
 4721 0ab7 27       		.uleb128 0x27
 4722 0ab8 80030000 		.4byte	0x380
 4723 0abc 2E1E0000 		.4byte	.LLST80
 4724 0ac0 00       		.byte	0
 4725 0ac1 28       		.uleb128 0x28
 4726 0ac2 70030000 		.4byte	0x370
 4727 0ac6 AE070000 		.4byte	.LBB224
 4728 0aca 02000000 		.4byte	.LBE224-.LBB224
 4729 0ace 01       		.byte	0x1
 4730 0acf A402     		.2byte	0x2a4
 4731 0ad1 F10A0000 		.4byte	0xaf1
 4732 0ad5 27       		.uleb128 0x27
 4733 0ad6 94030000 		.4byte	0x394
 4734 0ada 4C1E0000 		.4byte	.LLST81
 4735 0ade 27       		.uleb128 0x27
 4736 0adf 8B030000 		.4byte	0x38b
 4737 0ae3 5F1E0000 		.4byte	.LLST82
 4738 0ae7 27       		.uleb128 0x27
 4739 0ae8 80030000 		.4byte	0x380
 4740 0aec 7E1E0000 		.4byte	.LLST83
 4741 0af0 00       		.byte	0
 4742 0af1 28       		.uleb128 0x28
 4743 0af2 70030000 		.4byte	0x370
 4744 0af6 BA070000 		.4byte	.LBB226
 4745 0afa 02000000 		.4byte	.LBE226-.LBB226
 4746 0afe 01       		.byte	0x1
ARM GAS  C:\Users\raytr\AppData\Local\Temp\ccu8NuaS.s 			page 109


 4747 0aff A802     		.2byte	0x2a8
 4748 0b01 210B0000 		.4byte	0xb21
 4749 0b05 27       		.uleb128 0x27
 4750 0b06 94030000 		.4byte	0x394
 4751 0b0a 9C1E0000 		.4byte	.LLST84
 4752 0b0e 27       		.uleb128 0x27
 4753 0b0f 8B030000 		.4byte	0x38b
 4754 0b13 AF1E0000 		.4byte	.LLST85
 4755 0b17 27       		.uleb128 0x27
 4756 0b18 80030000 		.4byte	0x380
 4757 0b1c CE1E0000 		.4byte	.LLST86
 4758 0b20 00       		.byte	0
 4759 0b21 28       		.uleb128 0x28
 4760 0b22 70030000 		.4byte	0x370
 4761 0b26 C6070000 		.4byte	.LBB228
 4762 0b2a 02000000 		.4byte	.LBE228-.LBB228
 4763 0b2e 01       		.byte	0x1
 4764 0b2f AC02     		.2byte	0x2ac
 4765 0b31 510B0000 		.4byte	0xb51
 4766 0b35 27       		.uleb128 0x27
 4767 0b36 94030000 		.4byte	0x394
 4768 0b3a EC1E0000 		.4byte	.LLST87
 4769 0b3e 27       		.uleb128 0x27
 4770 0b3f 8B030000 		.4byte	0x38b
 4771 0b43 FF1E0000 		.4byte	.LLST88
 4772 0b47 27       		.uleb128 0x27
 4773 0b48 80030000 		.4byte	0x380
 4774 0b4c 1E1F0000 		.4byte	.LLST89
 4775 0b50 00       		.byte	0
 4776 0b51 28       		.uleb128 0x28
 4777 0b52 70030000 		.4byte	0x370
 4778 0b56 D2070000 		.4byte	.LBB230
 4779 0b5a 02000000 		.4byte	.LBE230-.LBB230
 4780 0b5e 01       		.byte	0x1
 4781 0b5f B002     		.2byte	0x2b0
 4782 0b61 810B0000 		.4byte	0xb81
 4783 0b65 27       		.uleb128 0x27
 4784 0b66 94030000 		.4byte	0x394
 4785 0b6a 3C1F0000 		.4byte	.LLST90
 4786 0b6e 27       		.uleb128 0x27
 4787 0b6f 8B030000 		.4byte	0x38b
 4788 0b73 4F1F0000 		.4byte	.LLST91
 4789 0b77 27       		.uleb128 0x27
 4790 0b78 80030000 		.4byte	0x380
 4791 0b7c 6E1F0000 		.4byte	.LLST92
 4792 0b80 00       		.byte	0
 4793 0b81 28       		.uleb128 0x28
 4794 0b82 70030000 		.4byte	0x370
 4795 0b86 DE070000 		.4byte	.LBB232
 4796 0b8a 02000000 		.4byte	.LBE232-.LBB232
 4797 0b8e 01       		.byte	0x1
 4798 0b8f B402     		.2byte	0x2b4
 4799 0b91 B10B0000 		.4byte	0xbb1
 4800 0b95 27       		.uleb128 0x27
 4801 0b96 94030000 		.4byte	0x394
 4802 0b9a 8C1F0000 		.4byte	.LLST93
 4803 0b9e 27       		.uleb128 0x27
ARM GAS  C:\Users\raytr\AppData\Local\Temp\ccu8NuaS.s 			page 110


 4804 0b9f 8B030000 		.4byte	0x38b
 4805 0ba3 9F1F0000 		.4byte	.LLST94
 4806 0ba7 27       		.uleb128 0x27
 4807 0ba8 80030000 		.4byte	0x380
 4808 0bac BE1F0000 		.4byte	.LLST95
 4809 0bb0 00       		.byte	0
 4810 0bb1 28       		.uleb128 0x28
 4811 0bb2 70030000 		.4byte	0x370
 4812 0bb6 F6070000 		.4byte	.LBB234
 4813 0bba 02000000 		.4byte	.LBE234-.LBB234
 4814 0bbe 01       		.byte	0x1
 4815 0bbf B802     		.2byte	0x2b8
 4816 0bc1 E10B0000 		.4byte	0xbe1
 4817 0bc5 27       		.uleb128 0x27
 4818 0bc6 94030000 		.4byte	0x394
 4819 0bca DC1F0000 		.4byte	.LLST96
 4820 0bce 27       		.uleb128 0x27
 4821 0bcf 8B030000 		.4byte	0x38b
 4822 0bd3 EF1F0000 		.4byte	.LLST97
 4823 0bd7 27       		.uleb128 0x27
 4824 0bd8 80030000 		.4byte	0x380
 4825 0bdc 02200000 		.4byte	.LLST98
 4826 0be0 00       		.byte	0
 4827 0be1 28       		.uleb128 0x28
 4828 0be2 9E030000 		.4byte	0x39e
 4829 0be6 0A080000 		.4byte	.LBB236
 4830 0bea 02000000 		.4byte	.LBE236-.LBB236
 4831 0bee 01       		.byte	0x1
 4832 0bef C002     		.2byte	0x2c0
 4833 0bf1 110C0000 		.4byte	0xc11
 4834 0bf5 27       		.uleb128 0x27
 4835 0bf6 C2030000 		.4byte	0x3c2
 4836 0bfa 15200000 		.4byte	.LLST99
 4837 0bfe 27       		.uleb128 0x27
 4838 0bff B9030000 		.4byte	0x3b9
 4839 0c03 28200000 		.4byte	.LLST100
 4840 0c07 27       		.uleb128 0x27
 4841 0c08 AE030000 		.4byte	0x3ae
 4842 0c0c 47200000 		.4byte	.LLST101
 4843 0c10 00       		.byte	0
 4844 0c11 28       		.uleb128 0x28
 4845 0c12 9E030000 		.4byte	0x39e
 4846 0c16 16080000 		.4byte	.LBB238
 4847 0c1a 02000000 		.4byte	.LBE238-.LBB238
 4848 0c1e 01       		.byte	0x1
 4849 0c1f C402     		.2byte	0x2c4
 4850 0c21 410C0000 		.4byte	0xc41
 4851 0c25 27       		.uleb128 0x27
 4852 0c26 C2030000 		.4byte	0x3c2
 4853 0c2a 65200000 		.4byte	.LLST102
 4854 0c2e 27       		.uleb128 0x27
 4855 0c2f B9030000 		.4byte	0x3b9
 4856 0c33 78200000 		.4byte	.LLST103
 4857 0c37 27       		.uleb128 0x27
 4858 0c38 AE030000 		.4byte	0x3ae
 4859 0c3c 97200000 		.4byte	.LLST104
 4860 0c40 00       		.byte	0
ARM GAS  C:\Users\raytr\AppData\Local\Temp\ccu8NuaS.s 			page 111


 4861 0c41 28       		.uleb128 0x28
 4862 0c42 9E030000 		.4byte	0x39e
 4863 0c46 22080000 		.4byte	.LBB240
 4864 0c4a 02000000 		.4byte	.LBE240-.LBB240
 4865 0c4e 01       		.byte	0x1
 4866 0c4f C802     		.2byte	0x2c8
 4867 0c51 710C0000 		.4byte	0xc71
 4868 0c55 27       		.uleb128 0x27
 4869 0c56 C2030000 		.4byte	0x3c2
 4870 0c5a B5200000 		.4byte	.LLST105
 4871 0c5e 27       		.uleb128 0x27
 4872 0c5f B9030000 		.4byte	0x3b9
 4873 0c63 C8200000 		.4byte	.LLST106
 4874 0c67 27       		.uleb128 0x27
 4875 0c68 AE030000 		.4byte	0x3ae
 4876 0c6c E7200000 		.4byte	.LLST107
 4877 0c70 00       		.byte	0
 4878 0c71 28       		.uleb128 0x28
 4879 0c72 9E030000 		.4byte	0x39e
 4880 0c76 2E080000 		.4byte	.LBB242
 4881 0c7a 02000000 		.4byte	.LBE242-.LBB242
 4882 0c7e 01       		.byte	0x1
 4883 0c7f CC02     		.2byte	0x2cc
 4884 0c81 A10C0000 		.4byte	0xca1
 4885 0c85 27       		.uleb128 0x27
 4886 0c86 C2030000 		.4byte	0x3c2
 4887 0c8a 05210000 		.4byte	.LLST108
 4888 0c8e 27       		.uleb128 0x27
 4889 0c8f B9030000 		.4byte	0x3b9
 4890 0c93 18210000 		.4byte	.LLST109
 4891 0c97 27       		.uleb128 0x27
 4892 0c98 AE030000 		.4byte	0x3ae
 4893 0c9c 37210000 		.4byte	.LLST110
 4894 0ca0 00       		.byte	0
 4895 0ca1 28       		.uleb128 0x28
 4896 0ca2 9E030000 		.4byte	0x39e
 4897 0ca6 3A080000 		.4byte	.LBB244
 4898 0caa 02000000 		.4byte	.LBE244-.LBB244
 4899 0cae 01       		.byte	0x1
 4900 0caf D002     		.2byte	0x2d0
 4901 0cb1 D10C0000 		.4byte	0xcd1
 4902 0cb5 27       		.uleb128 0x27
 4903 0cb6 C2030000 		.4byte	0x3c2
 4904 0cba 55210000 		.4byte	.LLST111
 4905 0cbe 27       		.uleb128 0x27
 4906 0cbf B9030000 		.4byte	0x3b9
 4907 0cc3 68210000 		.4byte	.LLST112
 4908 0cc7 27       		.uleb128 0x27
 4909 0cc8 AE030000 		.4byte	0x3ae
 4910 0ccc 87210000 		.4byte	.LLST113
 4911 0cd0 00       		.byte	0
 4912 0cd1 28       		.uleb128 0x28
 4913 0cd2 9E030000 		.4byte	0x39e
 4914 0cd6 46080000 		.4byte	.LBB246
 4915 0cda 02000000 		.4byte	.LBE246-.LBB246
 4916 0cde 01       		.byte	0x1
 4917 0cdf D402     		.2byte	0x2d4
ARM GAS  C:\Users\raytr\AppData\Local\Temp\ccu8NuaS.s 			page 112


 4918 0ce1 010D0000 		.4byte	0xd01
 4919 0ce5 27       		.uleb128 0x27
 4920 0ce6 C2030000 		.4byte	0x3c2
 4921 0cea A5210000 		.4byte	.LLST114
 4922 0cee 27       		.uleb128 0x27
 4923 0cef B9030000 		.4byte	0x3b9
 4924 0cf3 B8210000 		.4byte	.LLST115
 4925 0cf7 27       		.uleb128 0x27
 4926 0cf8 AE030000 		.4byte	0x3ae
 4927 0cfc D7210000 		.4byte	.LLST116
 4928 0d00 00       		.byte	0
 4929 0d01 28       		.uleb128 0x28
 4930 0d02 9E030000 		.4byte	0x39e
 4931 0d06 5E080000 		.4byte	.LBB248
 4932 0d0a 02000000 		.4byte	.LBE248-.LBB248
 4933 0d0e 01       		.byte	0x1
 4934 0d0f D802     		.2byte	0x2d8
 4935 0d11 310D0000 		.4byte	0xd31
 4936 0d15 27       		.uleb128 0x27
 4937 0d16 C2030000 		.4byte	0x3c2
 4938 0d1a F5210000 		.4byte	.LLST117
 4939 0d1e 27       		.uleb128 0x27
 4940 0d1f B9030000 		.4byte	0x3b9
 4941 0d23 08220000 		.4byte	.LLST118
 4942 0d27 27       		.uleb128 0x27
 4943 0d28 AE030000 		.4byte	0x3ae
 4944 0d2c 1B220000 		.4byte	.LLST119
 4945 0d30 00       		.byte	0
 4946 0d31 28       		.uleb128 0x28
 4947 0d32 CC030000 		.4byte	0x3cc
 4948 0d36 72080000 		.4byte	.LBB250
 4949 0d3a 02000000 		.4byte	.LBE250-.LBB250
 4950 0d3e 01       		.byte	0x1
 4951 0d3f E002     		.2byte	0x2e0
 4952 0d41 610D0000 		.4byte	0xd61
 4953 0d45 27       		.uleb128 0x27
 4954 0d46 F0030000 		.4byte	0x3f0
 4955 0d4a 2E220000 		.4byte	.LLST120
 4956 0d4e 27       		.uleb128 0x27
 4957 0d4f E7030000 		.4byte	0x3e7
 4958 0d53 59220000 		.4byte	.LLST121
 4959 0d57 27       		.uleb128 0x27
 4960 0d58 DC030000 		.4byte	0x3dc
 4961 0d5c 6C220000 		.4byte	.LLST122
 4962 0d60 00       		.byte	0
 4963 0d61 28       		.uleb128 0x28
 4964 0d62 CC030000 		.4byte	0x3cc
 4965 0d66 7E080000 		.4byte	.LBB252
 4966 0d6a 02000000 		.4byte	.LBE252-.LBB252
 4967 0d6e 01       		.byte	0x1
 4968 0d6f E402     		.2byte	0x2e4
 4969 0d71 910D0000 		.4byte	0xd91
 4970 0d75 27       		.uleb128 0x27
 4971 0d76 F0030000 		.4byte	0x3f0
 4972 0d7a 8A220000 		.4byte	.LLST123
 4973 0d7e 27       		.uleb128 0x27
 4974 0d7f E7030000 		.4byte	0x3e7
ARM GAS  C:\Users\raytr\AppData\Local\Temp\ccu8NuaS.s 			page 113


 4975 0d83 B5220000 		.4byte	.LLST124
 4976 0d87 27       		.uleb128 0x27
 4977 0d88 DC030000 		.4byte	0x3dc
 4978 0d8c C8220000 		.4byte	.LLST125
 4979 0d90 00       		.byte	0
 4980 0d91 28       		.uleb128 0x28
 4981 0d92 CC030000 		.4byte	0x3cc
 4982 0d96 8A080000 		.4byte	.LBB254
 4983 0d9a 02000000 		.4byte	.LBE254-.LBB254
 4984 0d9e 01       		.byte	0x1
 4985 0d9f E802     		.2byte	0x2e8
 4986 0da1 C10D0000 		.4byte	0xdc1
 4987 0da5 27       		.uleb128 0x27
 4988 0da6 F0030000 		.4byte	0x3f0
 4989 0daa E6220000 		.4byte	.LLST126
 4990 0dae 27       		.uleb128 0x27
 4991 0daf E7030000 		.4byte	0x3e7
 4992 0db3 11230000 		.4byte	.LLST127
 4993 0db7 27       		.uleb128 0x27
 4994 0db8 DC030000 		.4byte	0x3dc
 4995 0dbc 24230000 		.4byte	.LLST128
 4996 0dc0 00       		.byte	0
 4997 0dc1 28       		.uleb128 0x28
 4998 0dc2 CC030000 		.4byte	0x3cc
 4999 0dc6 96080000 		.4byte	.LBB256
 5000 0dca 02000000 		.4byte	.LBE256-.LBB256
 5001 0dce 01       		.byte	0x1
 5002 0dcf EC02     		.2byte	0x2ec
 5003 0dd1 F10D0000 		.4byte	0xdf1
 5004 0dd5 27       		.uleb128 0x27
 5005 0dd6 F0030000 		.4byte	0x3f0
 5006 0dda 42230000 		.4byte	.LLST129
 5007 0dde 27       		.uleb128 0x27
 5008 0ddf E7030000 		.4byte	0x3e7
 5009 0de3 6D230000 		.4byte	.LLST130
 5010 0de7 27       		.uleb128 0x27
 5011 0de8 DC030000 		.4byte	0x3dc
 5012 0dec 80230000 		.4byte	.LLST131
 5013 0df0 00       		.byte	0
 5014 0df1 28       		.uleb128 0x28
 5015 0df2 CC030000 		.4byte	0x3cc
 5016 0df6 A2080000 		.4byte	.LBB258
 5017 0dfa 02000000 		.4byte	.LBE258-.LBB258
 5018 0dfe 01       		.byte	0x1
 5019 0dff F002     		.2byte	0x2f0
 5020 0e01 210E0000 		.4byte	0xe21
 5021 0e05 27       		.uleb128 0x27
 5022 0e06 F0030000 		.4byte	0x3f0
 5023 0e0a 9E230000 		.4byte	.LLST132
 5024 0e0e 27       		.uleb128 0x27
 5025 0e0f E7030000 		.4byte	0x3e7
 5026 0e13 C9230000 		.4byte	.LLST133
 5027 0e17 27       		.uleb128 0x27
 5028 0e18 DC030000 		.4byte	0x3dc
 5029 0e1c DC230000 		.4byte	.LLST134
 5030 0e20 00       		.byte	0
 5031 0e21 28       		.uleb128 0x28
ARM GAS  C:\Users\raytr\AppData\Local\Temp\ccu8NuaS.s 			page 114


 5032 0e22 CC030000 		.4byte	0x3cc
 5033 0e26 AE080000 		.4byte	.LBB260
 5034 0e2a 02000000 		.4byte	.LBE260-.LBB260
 5035 0e2e 01       		.byte	0x1
 5036 0e2f F402     		.2byte	0x2f4
 5037 0e31 510E0000 		.4byte	0xe51
 5038 0e35 27       		.uleb128 0x27
 5039 0e36 F0030000 		.4byte	0x3f0
 5040 0e3a FA230000 		.4byte	.LLST135
 5041 0e3e 27       		.uleb128 0x27
 5042 0e3f E7030000 		.4byte	0x3e7
 5043 0e43 25240000 		.4byte	.LLST136
 5044 0e47 27       		.uleb128 0x27
 5045 0e48 DC030000 		.4byte	0x3dc
 5046 0e4c 38240000 		.4byte	.LLST137
 5047 0e50 00       		.byte	0
 5048 0e51 28       		.uleb128 0x28
 5049 0e52 CC030000 		.4byte	0x3cc
 5050 0e56 C6080000 		.4byte	.LBB262
 5051 0e5a 02000000 		.4byte	.LBE262-.LBB262
 5052 0e5e 01       		.byte	0x1
 5053 0e5f F802     		.2byte	0x2f8
 5054 0e61 810E0000 		.4byte	0xe81
 5055 0e65 27       		.uleb128 0x27
 5056 0e66 F0030000 		.4byte	0x3f0
 5057 0e6a 56240000 		.4byte	.LLST138
 5058 0e6e 27       		.uleb128 0x27
 5059 0e6f E7030000 		.4byte	0x3e7
 5060 0e73 69240000 		.4byte	.LLST139
 5061 0e77 27       		.uleb128 0x27
 5062 0e78 DC030000 		.4byte	0x3dc
 5063 0e7c 7C240000 		.4byte	.LLST140
 5064 0e80 00       		.byte	0
 5065 0e81 28       		.uleb128 0x28
 5066 0e82 FA030000 		.4byte	0x3fa
 5067 0e86 D2080000 		.4byte	.LBB264
 5068 0e8a 02000000 		.4byte	.LBE264-.LBB264
 5069 0e8e 01       		.byte	0x1
 5070 0e8f 0003     		.2byte	0x300
 5071 0e91 B10E0000 		.4byte	0xeb1
 5072 0e95 27       		.uleb128 0x27
 5073 0e96 1E040000 		.4byte	0x41e
 5074 0e9a 8F240000 		.4byte	.LLST141
 5075 0e9e 27       		.uleb128 0x27
 5076 0e9f 15040000 		.4byte	0x415
 5077 0ea3 BA240000 		.4byte	.LLST142
 5078 0ea7 27       		.uleb128 0x27
 5079 0ea8 0A040000 		.4byte	0x40a
 5080 0eac CD240000 		.4byte	.LLST143
 5081 0eb0 00       		.byte	0
 5082 0eb1 28       		.uleb128 0x28
 5083 0eb2 FA030000 		.4byte	0x3fa
 5084 0eb6 DE080000 		.4byte	.LBB266
 5085 0eba 02000000 		.4byte	.LBE266-.LBB266
 5086 0ebe 01       		.byte	0x1
 5087 0ebf 0403     		.2byte	0x304
 5088 0ec1 E10E0000 		.4byte	0xee1
ARM GAS  C:\Users\raytr\AppData\Local\Temp\ccu8NuaS.s 			page 115


 5089 0ec5 27       		.uleb128 0x27
 5090 0ec6 1E040000 		.4byte	0x41e
 5091 0eca EB240000 		.4byte	.LLST144
 5092 0ece 27       		.uleb128 0x27
 5093 0ecf 15040000 		.4byte	0x415
 5094 0ed3 16250000 		.4byte	.LLST145
 5095 0ed7 27       		.uleb128 0x27
 5096 0ed8 0A040000 		.4byte	0x40a
 5097 0edc 29250000 		.4byte	.LLST146
 5098 0ee0 00       		.byte	0
 5099 0ee1 28       		.uleb128 0x28
 5100 0ee2 FA030000 		.4byte	0x3fa
 5101 0ee6 EA080000 		.4byte	.LBB268
 5102 0eea 02000000 		.4byte	.LBE268-.LBB268
 5103 0eee 01       		.byte	0x1
 5104 0eef 0803     		.2byte	0x308
 5105 0ef1 110F0000 		.4byte	0xf11
 5106 0ef5 27       		.uleb128 0x27
 5107 0ef6 1E040000 		.4byte	0x41e
 5108 0efa 47250000 		.4byte	.LLST147
 5109 0efe 27       		.uleb128 0x27
 5110 0eff 15040000 		.4byte	0x415
 5111 0f03 72250000 		.4byte	.LLST148
 5112 0f07 27       		.uleb128 0x27
 5113 0f08 0A040000 		.4byte	0x40a
 5114 0f0c 85250000 		.4byte	.LLST149
 5115 0f10 00       		.byte	0
 5116 0f11 28       		.uleb128 0x28
 5117 0f12 FA030000 		.4byte	0x3fa
 5118 0f16 F6080000 		.4byte	.LBB270
 5119 0f1a 02000000 		.4byte	.LBE270-.LBB270
 5120 0f1e 01       		.byte	0x1
 5121 0f1f 0C03     		.2byte	0x30c
 5122 0f21 410F0000 		.4byte	0xf41
 5123 0f25 27       		.uleb128 0x27
 5124 0f26 1E040000 		.4byte	0x41e
 5125 0f2a A3250000 		.4byte	.LLST150
 5126 0f2e 27       		.uleb128 0x27
 5127 0f2f 15040000 		.4byte	0x415
 5128 0f33 CE250000 		.4byte	.LLST151
 5129 0f37 27       		.uleb128 0x27
 5130 0f38 0A040000 		.4byte	0x40a
 5131 0f3c E1250000 		.4byte	.LLST152
 5132 0f40 00       		.byte	0
 5133 0f41 28       		.uleb128 0x28
 5134 0f42 FA030000 		.4byte	0x3fa
 5135 0f46 02090000 		.4byte	.LBB272
 5136 0f4a 02000000 		.4byte	.LBE272-.LBB272
 5137 0f4e 01       		.byte	0x1
 5138 0f4f 1003     		.2byte	0x310
 5139 0f51 710F0000 		.4byte	0xf71
 5140 0f55 27       		.uleb128 0x27
 5141 0f56 1E040000 		.4byte	0x41e
 5142 0f5a FF250000 		.4byte	.LLST153
 5143 0f5e 27       		.uleb128 0x27
 5144 0f5f 15040000 		.4byte	0x415
 5145 0f63 2A260000 		.4byte	.LLST154
ARM GAS  C:\Users\raytr\AppData\Local\Temp\ccu8NuaS.s 			page 116


 5146 0f67 27       		.uleb128 0x27
 5147 0f68 0A040000 		.4byte	0x40a
 5148 0f6c 3D260000 		.4byte	.LLST155
 5149 0f70 00       		.byte	0
 5150 0f71 28       		.uleb128 0x28
 5151 0f72 FA030000 		.4byte	0x3fa
 5152 0f76 0E090000 		.4byte	.LBB274
 5153 0f7a 02000000 		.4byte	.LBE274-.LBB274
 5154 0f7e 01       		.byte	0x1
 5155 0f7f 1403     		.2byte	0x314
 5156 0f81 A10F0000 		.4byte	0xfa1
 5157 0f85 27       		.uleb128 0x27
 5158 0f86 1E040000 		.4byte	0x41e
 5159 0f8a 5B260000 		.4byte	.LLST156
 5160 0f8e 27       		.uleb128 0x27
 5161 0f8f 15040000 		.4byte	0x415
 5162 0f93 86260000 		.4byte	.LLST157
 5163 0f97 27       		.uleb128 0x27
 5164 0f98 0A040000 		.4byte	0x40a
 5165 0f9c 99260000 		.4byte	.LLST158
 5166 0fa0 00       		.byte	0
 5167 0fa1 28       		.uleb128 0x28
 5168 0fa2 FA030000 		.4byte	0x3fa
 5169 0fa6 26090000 		.4byte	.LBB276
 5170 0faa 02000000 		.4byte	.LBE276-.LBB276
 5171 0fae 01       		.byte	0x1
 5172 0faf 1803     		.2byte	0x318
 5173 0fb1 D10F0000 		.4byte	0xfd1
 5174 0fb5 27       		.uleb128 0x27
 5175 0fb6 1E040000 		.4byte	0x41e
 5176 0fba B7260000 		.4byte	.LLST159
 5177 0fbe 27       		.uleb128 0x27
 5178 0fbf 15040000 		.4byte	0x415
 5179 0fc3 CA260000 		.4byte	.LLST160
 5180 0fc7 27       		.uleb128 0x27
 5181 0fc8 0A040000 		.4byte	0x40a
 5182 0fcc DD260000 		.4byte	.LLST161
 5183 0fd0 00       		.byte	0
 5184 0fd1 28       		.uleb128 0x28
 5185 0fd2 28040000 		.4byte	0x428
 5186 0fd6 3A090000 		.4byte	.LBB278
 5187 0fda 02000000 		.4byte	.LBE278-.LBB278
 5188 0fde 01       		.byte	0x1
 5189 0fdf 2003     		.2byte	0x320
 5190 0fe1 01100000 		.4byte	0x1001
 5191 0fe5 27       		.uleb128 0x27
 5192 0fe6 4C040000 		.4byte	0x44c
 5193 0fea F0260000 		.4byte	.LLST162
 5194 0fee 27       		.uleb128 0x27
 5195 0fef 43040000 		.4byte	0x443
 5196 0ff3 1B270000 		.4byte	.LLST163
 5197 0ff7 27       		.uleb128 0x27
 5198 0ff8 38040000 		.4byte	0x438
 5199 0ffc 2E270000 		.4byte	.LLST164
 5200 1000 00       		.byte	0
 5201 1001 28       		.uleb128 0x28
 5202 1002 28040000 		.4byte	0x428
ARM GAS  C:\Users\raytr\AppData\Local\Temp\ccu8NuaS.s 			page 117


 5203 1006 46090000 		.4byte	.LBB280
 5204 100a 02000000 		.4byte	.LBE280-.LBB280
 5205 100e 01       		.byte	0x1
 5206 100f 2403     		.2byte	0x324
 5207 1011 31100000 		.4byte	0x1031
 5208 1015 27       		.uleb128 0x27
 5209 1016 4C040000 		.4byte	0x44c
 5210 101a 4C270000 		.4byte	.LLST165
 5211 101e 27       		.uleb128 0x27
 5212 101f 43040000 		.4byte	0x443
 5213 1023 77270000 		.4byte	.LLST166
 5214 1027 27       		.uleb128 0x27
 5215 1028 38040000 		.4byte	0x438
 5216 102c 8A270000 		.4byte	.LLST167
 5217 1030 00       		.byte	0
 5218 1031 28       		.uleb128 0x28
 5219 1032 28040000 		.4byte	0x428
 5220 1036 52090000 		.4byte	.LBB282
 5221 103a 02000000 		.4byte	.LBE282-.LBB282
 5222 103e 01       		.byte	0x1
 5223 103f 2803     		.2byte	0x328
 5224 1041 61100000 		.4byte	0x1061
 5225 1045 27       		.uleb128 0x27
 5226 1046 4C040000 		.4byte	0x44c
 5227 104a A8270000 		.4byte	.LLST168
 5228 104e 27       		.uleb128 0x27
 5229 104f 43040000 		.4byte	0x443
 5230 1053 D3270000 		.4byte	.LLST169
 5231 1057 27       		.uleb128 0x27
 5232 1058 38040000 		.4byte	0x438
 5233 105c E6270000 		.4byte	.LLST170
 5234 1060 00       		.byte	0
 5235 1061 28       		.uleb128 0x28
 5236 1062 28040000 		.4byte	0x428
 5237 1066 5E090000 		.4byte	.LBB284
 5238 106a 02000000 		.4byte	.LBE284-.LBB284
 5239 106e 01       		.byte	0x1
 5240 106f 2C03     		.2byte	0x32c
 5241 1071 91100000 		.4byte	0x1091
 5242 1075 27       		.uleb128 0x27
 5243 1076 4C040000 		.4byte	0x44c
 5244 107a 04280000 		.4byte	.LLST171
 5245 107e 27       		.uleb128 0x27
 5246 107f 43040000 		.4byte	0x443
 5247 1083 2F280000 		.4byte	.LLST172
 5248 1087 27       		.uleb128 0x27
 5249 1088 38040000 		.4byte	0x438
 5250 108c 42280000 		.4byte	.LLST173
 5251 1090 00       		.byte	0
 5252 1091 28       		.uleb128 0x28
 5253 1092 28040000 		.4byte	0x428
 5254 1096 6A090000 		.4byte	.LBB286
 5255 109a 02000000 		.4byte	.LBE286-.LBB286
 5256 109e 01       		.byte	0x1
 5257 109f 3003     		.2byte	0x330
 5258 10a1 C1100000 		.4byte	0x10c1
 5259 10a5 27       		.uleb128 0x27
ARM GAS  C:\Users\raytr\AppData\Local\Temp\ccu8NuaS.s 			page 118


 5260 10a6 4C040000 		.4byte	0x44c
 5261 10aa 60280000 		.4byte	.LLST174
 5262 10ae 27       		.uleb128 0x27
 5263 10af 43040000 		.4byte	0x443
 5264 10b3 8B280000 		.4byte	.LLST175
 5265 10b7 27       		.uleb128 0x27
 5266 10b8 38040000 		.4byte	0x438
 5267 10bc 9E280000 		.4byte	.LLST176
 5268 10c0 00       		.byte	0
 5269 10c1 28       		.uleb128 0x28
 5270 10c2 28040000 		.4byte	0x428
 5271 10c6 76090000 		.4byte	.LBB288
 5272 10ca 02000000 		.4byte	.LBE288-.LBB288
 5273 10ce 01       		.byte	0x1
 5274 10cf 3403     		.2byte	0x334
 5275 10d1 F1100000 		.4byte	0x10f1
 5276 10d5 27       		.uleb128 0x27
 5277 10d6 4C040000 		.4byte	0x44c
 5278 10da BC280000 		.4byte	.LLST177
 5279 10de 27       		.uleb128 0x27
 5280 10df 43040000 		.4byte	0x443
 5281 10e3 E7280000 		.4byte	.LLST178
 5282 10e7 27       		.uleb128 0x27
 5283 10e8 38040000 		.4byte	0x438
 5284 10ec FA280000 		.4byte	.LLST179
 5285 10f0 00       		.byte	0
 5286 10f1 28       		.uleb128 0x28
 5287 10f2 28040000 		.4byte	0x428
 5288 10f6 8E090000 		.4byte	.LBB290
 5289 10fa 02000000 		.4byte	.LBE290-.LBB290
 5290 10fe 01       		.byte	0x1
 5291 10ff 3803     		.2byte	0x338
 5292 1101 21110000 		.4byte	0x1121
 5293 1105 27       		.uleb128 0x27
 5294 1106 4C040000 		.4byte	0x44c
 5295 110a 18290000 		.4byte	.LLST180
 5296 110e 27       		.uleb128 0x27
 5297 110f 43040000 		.4byte	0x443
 5298 1113 2B290000 		.4byte	.LLST181
 5299 1117 27       		.uleb128 0x27
 5300 1118 38040000 		.4byte	0x438
 5301 111c 3E290000 		.4byte	.LLST182
 5302 1120 00       		.byte	0
 5303 1121 28       		.uleb128 0x28
 5304 1122 14030000 		.4byte	0x314
 5305 1126 EA090000 		.4byte	.LBB292
 5306 112a 02000000 		.4byte	.LBE292-.LBB292
 5307 112e 01       		.byte	0x1
 5308 112f 8003     		.2byte	0x380
 5309 1131 51110000 		.4byte	0x1151
 5310 1135 27       		.uleb128 0x27
 5311 1136 38030000 		.4byte	0x338
 5312 113a 51290000 		.4byte	.LLST183
 5313 113e 27       		.uleb128 0x27
 5314 113f 2F030000 		.4byte	0x32f
 5315 1143 64290000 		.4byte	.LLST184
 5316 1147 27       		.uleb128 0x27
ARM GAS  C:\Users\raytr\AppData\Local\Temp\ccu8NuaS.s 			page 119


 5317 1148 24030000 		.4byte	0x324
 5318 114c 77290000 		.4byte	.LLST185
 5319 1150 00       		.byte	0
 5320 1151 28       		.uleb128 0x28
 5321 1152 70030000 		.4byte	0x370
 5322 1156 3C0A0000 		.4byte	.LBB294
 5323 115a 02000000 		.4byte	.LBE294-.LBB294
 5324 115e 01       		.byte	0x1
 5325 115f C103     		.2byte	0x3c1
 5326 1161 81110000 		.4byte	0x1181
 5327 1165 27       		.uleb128 0x27
 5328 1166 94030000 		.4byte	0x394
 5329 116a 8A290000 		.4byte	.LLST186
 5330 116e 27       		.uleb128 0x27
 5331 116f 8B030000 		.4byte	0x38b
 5332 1173 9D290000 		.4byte	.LLST187
 5333 1177 27       		.uleb128 0x27
 5334 1178 80030000 		.4byte	0x380
 5335 117c B0290000 		.4byte	.LLST188
 5336 1180 00       		.byte	0
 5337 1181 28       		.uleb128 0x28
 5338 1182 9E030000 		.4byte	0x39e
 5339 1186 720A0000 		.4byte	.LBB296
 5340 118a 02000000 		.4byte	.LBE296-.LBB296
 5341 118e 01       		.byte	0x1
 5342 118f E303     		.2byte	0x3e3
 5343 1191 B1110000 		.4byte	0x11b1
 5344 1195 27       		.uleb128 0x27
 5345 1196 C2030000 		.4byte	0x3c2
 5346 119a C3290000 		.4byte	.LLST189
 5347 119e 27       		.uleb128 0x27
 5348 119f B9030000 		.4byte	0x3b9
 5349 11a3 D6290000 		.4byte	.LLST190
 5350 11a7 27       		.uleb128 0x27
 5351 11a8 AE030000 		.4byte	0x3ae
 5352 11ac E9290000 		.4byte	.LLST191
 5353 11b0 00       		.byte	0
 5354 11b1 28       		.uleb128 0x28
 5355 11b2 CC030000 		.4byte	0x3cc
 5356 11b6 B80A0000 		.4byte	.LBB298
 5357 11ba 02000000 		.4byte	.LBE298-.LBB298
 5358 11be 01       		.byte	0x1
 5359 11bf 0104     		.2byte	0x401
 5360 11c1 E1110000 		.4byte	0x11e1
 5361 11c5 27       		.uleb128 0x27
 5362 11c6 F0030000 		.4byte	0x3f0
 5363 11ca FC290000 		.4byte	.LLST192
 5364 11ce 27       		.uleb128 0x27
 5365 11cf E7030000 		.4byte	0x3e7
 5366 11d3 0F2A0000 		.4byte	.LLST193
 5367 11d7 27       		.uleb128 0x27
 5368 11d8 DC030000 		.4byte	0x3dc
 5369 11dc 222A0000 		.4byte	.LLST194
 5370 11e0 00       		.byte	0
 5371 11e1 28       		.uleb128 0x28
 5372 11e2 FA030000 		.4byte	0x3fa
 5373 11e6 F20A0000 		.4byte	.LBB300
ARM GAS  C:\Users\raytr\AppData\Local\Temp\ccu8NuaS.s 			page 120


 5374 11ea 02000000 		.4byte	.LBE300-.LBB300
 5375 11ee 01       		.byte	0x1
 5376 11ef 1E04     		.2byte	0x41e
 5377 11f1 11120000 		.4byte	0x1211
 5378 11f5 27       		.uleb128 0x27
 5379 11f6 1E040000 		.4byte	0x41e
 5380 11fa 352A0000 		.4byte	.LLST195
 5381 11fe 27       		.uleb128 0x27
 5382 11ff 15040000 		.4byte	0x415
 5383 1203 482A0000 		.4byte	.LLST196
 5384 1207 27       		.uleb128 0x27
 5385 1208 0A040000 		.4byte	0x40a
 5386 120c 5B2A0000 		.4byte	.LLST197
 5387 1210 00       		.byte	0
 5388 1211 28       		.uleb128 0x28
 5389 1212 28040000 		.4byte	0x428
 5390 1216 440B0000 		.4byte	.LBB302
 5391 121a 02000000 		.4byte	.LBE302-.LBB302
 5392 121e 01       		.byte	0x1
 5393 121f 3D04     		.2byte	0x43d
 5394 1221 41120000 		.4byte	0x1241
 5395 1225 27       		.uleb128 0x27
 5396 1226 4C040000 		.4byte	0x44c
 5397 122a 6E2A0000 		.4byte	.LLST198
 5398 122e 27       		.uleb128 0x27
 5399 122f 43040000 		.4byte	0x443
 5400 1233 812A0000 		.4byte	.LLST199
 5401 1237 27       		.uleb128 0x27
 5402 1238 38040000 		.4byte	0x438
 5403 123c 942A0000 		.4byte	.LLST200
 5404 1240 00       		.byte	0
 5405 1241 29       		.uleb128 0x29
 5406 1242 16020000 		.4byte	.LVL23
 5407 1246 AB040000 		.4byte	0x4ab
 5408 124a 1D       		.uleb128 0x1d
 5409 124b 1E020000 		.4byte	.LVL24
 5410 124f AB040000 		.4byte	0x4ab
 5411 1253 5E120000 		.4byte	0x125e
 5412 1257 1E       		.uleb128 0x1e
 5413 1258 01       		.uleb128 0x1
 5414 1259 50       		.byte	0x50
 5415 125a 02       		.uleb128 0x2
 5416 125b 74       		.byte	0x74
 5417 125c 00       		.sleb128 0
 5418 125d 00       		.byte	0
 5419 125e 1D       		.uleb128 0x1d
 5420 125f 2E020000 		.4byte	.LVL27
 5421 1263 731A0000 		.4byte	0x1a73
 5422 1267 72120000 		.4byte	0x1272
 5423 126b 1E       		.uleb128 0x1e
 5424 126c 01       		.uleb128 0x1
 5425 126d 50       		.byte	0x50
 5426 126e 02       		.uleb128 0x2
 5427 126f 74       		.byte	0x74
 5428 1270 0C       		.sleb128 12
 5429 1271 00       		.byte	0
 5430 1272 29       		.uleb128 0x29
ARM GAS  C:\Users\raytr\AppData\Local\Temp\ccu8NuaS.s 			page 121


 5431 1273 40020000 		.4byte	.LVL31
 5432 1277 AB040000 		.4byte	0x4ab
 5433 127b 29       		.uleb128 0x29
 5434 127c 4A020000 		.4byte	.LVL33
 5435 1280 05050000 		.4byte	0x505
 5436 1284 1D       		.uleb128 0x1d
 5437 1285 5A020000 		.4byte	.LVL35
 5438 1289 731A0000 		.4byte	0x1a73
 5439 128d 9E120000 		.4byte	0x129e
 5440 1291 1E       		.uleb128 0x1e
 5441 1292 01       		.uleb128 0x1
 5442 1293 51       		.byte	0x51
 5443 1294 02       		.uleb128 0x2
 5444 1295 75       		.byte	0x75
 5445 1296 00       		.sleb128 0
 5446 1297 1E       		.uleb128 0x1e
 5447 1298 01       		.uleb128 0x1
 5448 1299 50       		.byte	0x50
 5449 129a 02       		.uleb128 0x2
 5450 129b 76       		.byte	0x76
 5451 129c 00       		.sleb128 0
 5452 129d 00       		.byte	0
 5453 129e 1D       		.uleb128 0x1d
 5454 129f 66020000 		.4byte	.LVL36
 5455 12a3 731A0000 		.4byte	0x1a73
 5456 12a7 BD120000 		.4byte	0x12bd
 5457 12ab 1E       		.uleb128 0x1e
 5458 12ac 01       		.uleb128 0x1
 5459 12ad 52       		.byte	0x52
 5460 12ae 01       		.uleb128 0x1
 5461 12af 30       		.byte	0x30
 5462 12b0 1E       		.uleb128 0x1e
 5463 12b1 01       		.uleb128 0x1
 5464 12b2 51       		.byte	0x51
 5465 12b3 02       		.uleb128 0x2
 5466 12b4 75       		.byte	0x75
 5467 12b5 01       		.sleb128 1
 5468 12b6 1E       		.uleb128 0x1e
 5469 12b7 01       		.uleb128 0x1
 5470 12b8 50       		.byte	0x50
 5471 12b9 02       		.uleb128 0x2
 5472 12ba 76       		.byte	0x76
 5473 12bb 00       		.sleb128 0
 5474 12bc 00       		.byte	0
 5475 12bd 1D       		.uleb128 0x1d
 5476 12be 84020000 		.4byte	.LVL43
 5477 12c2 261A0000 		.4byte	0x1a26
 5478 12c6 D1120000 		.4byte	0x12d1
 5479 12ca 1E       		.uleb128 0x1e
 5480 12cb 01       		.uleb128 0x1
 5481 12cc 50       		.byte	0x50
 5482 12cd 02       		.uleb128 0x2
 5483 12ce 74       		.byte	0x74
 5484 12cf 0C       		.sleb128 12
 5485 12d0 00       		.byte	0
 5486 12d1 29       		.uleb128 0x29
 5487 12d2 98020000 		.4byte	.LVL47
ARM GAS  C:\Users\raytr\AppData\Local\Temp\ccu8NuaS.s 			page 122


 5488 12d6 AB040000 		.4byte	0x4ab
 5489 12da 29       		.uleb128 0x29
 5490 12db A2020000 		.4byte	.LVL49
 5491 12df AB040000 		.4byte	0x4ab
 5492 12e3 1D       		.uleb128 0x1d
 5493 12e4 AA020000 		.4byte	.LVL50
 5494 12e8 AB040000 		.4byte	0x4ab
 5495 12ec F7120000 		.4byte	0x12f7
 5496 12f0 1E       		.uleb128 0x1e
 5497 12f1 01       		.uleb128 0x1
 5498 12f2 50       		.byte	0x50
 5499 12f3 02       		.uleb128 0x2
 5500 12f4 74       		.byte	0x74
 5501 12f5 00       		.sleb128 0
 5502 12f6 00       		.byte	0
 5503 12f7 1D       		.uleb128 0x1d
 5504 12f8 BA020000 		.4byte	.LVL53
 5505 12fc 731A0000 		.4byte	0x1a73
 5506 1300 0B130000 		.4byte	0x130b
 5507 1304 1E       		.uleb128 0x1e
 5508 1305 01       		.uleb128 0x1
 5509 1306 50       		.byte	0x50
 5510 1307 02       		.uleb128 0x2
 5511 1308 74       		.byte	0x74
 5512 1309 0C       		.sleb128 12
 5513 130a 00       		.byte	0
 5514 130b 29       		.uleb128 0x29
 5515 130c CC020000 		.4byte	.LVL57
 5516 1310 AB040000 		.4byte	0x4ab
 5517 1314 29       		.uleb128 0x29
 5518 1315 D6020000 		.4byte	.LVL59
 5519 1319 AB040000 		.4byte	0x4ab
 5520 131d 29       		.uleb128 0x29
 5521 131e DA020000 		.4byte	.LVL60
 5522 1322 6E050000 		.4byte	0x56e
 5523 1326 1D       		.uleb128 0x1d
 5524 1327 E2020000 		.4byte	.LVL62
 5525 132b 79040000 		.4byte	0x479
 5526 132f 3A130000 		.4byte	0x133a
 5527 1333 1E       		.uleb128 0x1e
 5528 1334 01       		.uleb128 0x1
 5529 1335 50       		.byte	0x50
 5530 1336 02       		.uleb128 0x2
 5531 1337 74       		.byte	0x74
 5532 1338 00       		.sleb128 0
 5533 1339 00       		.byte	0
 5534 133a 1D       		.uleb128 0x1d
 5535 133b 00030000 		.4byte	.LVL69
 5536 133f 261A0000 		.4byte	0x1a26
 5537 1343 4E130000 		.4byte	0x134e
 5538 1347 1E       		.uleb128 0x1e
 5539 1348 01       		.uleb128 0x1
 5540 1349 50       		.byte	0x50
 5541 134a 02       		.uleb128 0x2
 5542 134b 74       		.byte	0x74
 5543 134c 0C       		.sleb128 12
 5544 134d 00       		.byte	0
ARM GAS  C:\Users\raytr\AppData\Local\Temp\ccu8NuaS.s 			page 123


 5545 134e 29       		.uleb128 0x29
 5546 134f 14030000 		.4byte	.LVL73
 5547 1353 AB040000 		.4byte	0x4ab
 5548 1357 29       		.uleb128 0x29
 5549 1358 1E030000 		.4byte	.LVL75
 5550 135c AB040000 		.4byte	0x4ab
 5551 1360 29       		.uleb128 0x29
 5552 1361 22030000 		.4byte	.LVL76
 5553 1365 6E050000 		.4byte	0x56e
 5554 1369 1D       		.uleb128 0x1d
 5555 136a 2A030000 		.4byte	.LVL78
 5556 136e 8E1A0000 		.4byte	0x1a8e
 5557 1372 7D130000 		.4byte	0x137d
 5558 1376 1E       		.uleb128 0x1e
 5559 1377 01       		.uleb128 0x1
 5560 1378 50       		.byte	0x50
 5561 1379 02       		.uleb128 0x2
 5562 137a 74       		.byte	0x74
 5563 137b 00       		.sleb128 0
 5564 137c 00       		.byte	0
 5565 137d 1D       		.uleb128 0x1d
 5566 137e 38030000 		.4byte	.LVL80
 5567 1382 79040000 		.4byte	0x479
 5568 1386 97130000 		.4byte	0x1397
 5569 138a 1E       		.uleb128 0x1e
 5570 138b 01       		.uleb128 0x1
 5571 138c 51       		.byte	0x51
 5572 138d 02       		.uleb128 0x2
 5573 138e 75       		.byte	0x75
 5574 138f 00       		.sleb128 0
 5575 1390 1E       		.uleb128 0x1e
 5576 1391 01       		.uleb128 0x1
 5577 1392 50       		.byte	0x50
 5578 1393 02       		.uleb128 0x2
 5579 1394 74       		.byte	0x74
 5580 1395 00       		.sleb128 0
 5581 1396 00       		.byte	0
 5582 1397 29       		.uleb128 0x29
 5583 1398 40030000 		.4byte	.LVL82
 5584 139c AB040000 		.4byte	0x4ab
 5585 13a0 1D       		.uleb128 0x1d
 5586 13a1 48030000 		.4byte	.LVL83
 5587 13a5 AB040000 		.4byte	0x4ab
 5588 13a9 B4130000 		.4byte	0x13b4
 5589 13ad 1E       		.uleb128 0x1e
 5590 13ae 01       		.uleb128 0x1
 5591 13af 50       		.byte	0x50
 5592 13b0 02       		.uleb128 0x2
 5593 13b1 74       		.byte	0x74
 5594 13b2 00       		.sleb128 0
 5595 13b3 00       		.byte	0
 5596 13b4 1D       		.uleb128 0x1d
 5597 13b5 58030000 		.4byte	.LVL86
 5598 13b9 731A0000 		.4byte	0x1a73
 5599 13bd C8130000 		.4byte	0x13c8
 5600 13c1 1E       		.uleb128 0x1e
 5601 13c2 01       		.uleb128 0x1
ARM GAS  C:\Users\raytr\AppData\Local\Temp\ccu8NuaS.s 			page 124


 5602 13c3 50       		.byte	0x50
 5603 13c4 02       		.uleb128 0x2
 5604 13c5 74       		.byte	0x74
 5605 13c6 0C       		.sleb128 12
 5606 13c7 00       		.byte	0
 5607 13c8 29       		.uleb128 0x29
 5608 13c9 70030000 		.4byte	.LVL90
 5609 13cd AB040000 		.4byte	0x4ab
 5610 13d1 29       		.uleb128 0x29
 5611 13d2 7A030000 		.4byte	.LVL92
 5612 13d6 AB040000 		.4byte	0x4ab
 5613 13da 29       		.uleb128 0x29
 5614 13db 7E030000 		.4byte	.LVL93
 5615 13df 6E050000 		.4byte	0x56e
 5616 13e3 1D       		.uleb128 0x1d
 5617 13e4 86030000 		.4byte	.LVL95
 5618 13e8 8E1A0000 		.4byte	0x1a8e
 5619 13ec F7130000 		.4byte	0x13f7
 5620 13f0 1E       		.uleb128 0x1e
 5621 13f1 01       		.uleb128 0x1
 5622 13f2 50       		.byte	0x50
 5623 13f3 02       		.uleb128 0x2
 5624 13f4 74       		.byte	0x74
 5625 13f5 00       		.sleb128 0
 5626 13f6 00       		.byte	0
 5627 13f7 1D       		.uleb128 0x1d
 5628 13f8 94030000 		.4byte	.LVL97
 5629 13fc 79040000 		.4byte	0x479
 5630 1400 11140000 		.4byte	0x1411
 5631 1404 1E       		.uleb128 0x1e
 5632 1405 01       		.uleb128 0x1
 5633 1406 51       		.byte	0x51
 5634 1407 02       		.uleb128 0x2
 5635 1408 75       		.byte	0x75
 5636 1409 00       		.sleb128 0
 5637 140a 1E       		.uleb128 0x1e
 5638 140b 01       		.uleb128 0x1
 5639 140c 50       		.byte	0x50
 5640 140d 02       		.uleb128 0x2
 5641 140e 74       		.byte	0x74
 5642 140f 00       		.sleb128 0
 5643 1410 00       		.byte	0
 5644 1411 1D       		.uleb128 0x1d
 5645 1412 B0030000 		.4byte	.LVL105
 5646 1416 261A0000 		.4byte	0x1a26
 5647 141a 25140000 		.4byte	0x1425
 5648 141e 1E       		.uleb128 0x1e
 5649 141f 01       		.uleb128 0x1
 5650 1420 50       		.byte	0x50
 5651 1421 02       		.uleb128 0x2
 5652 1422 74       		.byte	0x74
 5653 1423 0C       		.sleb128 12
 5654 1424 00       		.byte	0
 5655 1425 29       		.uleb128 0x29
 5656 1426 CA030000 		.4byte	.LVL109
 5657 142a AB040000 		.4byte	0x4ab
 5658 142e 29       		.uleb128 0x29
ARM GAS  C:\Users\raytr\AppData\Local\Temp\ccu8NuaS.s 			page 125


 5659 142f D4030000 		.4byte	.LVL111
 5660 1433 AB040000 		.4byte	0x4ab
 5661 1437 29       		.uleb128 0x29
 5662 1438 D8030000 		.4byte	.LVL112
 5663 143c 6E050000 		.4byte	0x56e
 5664 1440 1D       		.uleb128 0x1d
 5665 1441 E0030000 		.4byte	.LVL114
 5666 1445 8E1A0000 		.4byte	0x1a8e
 5667 1449 54140000 		.4byte	0x1454
 5668 144d 1E       		.uleb128 0x1e
 5669 144e 01       		.uleb128 0x1
 5670 144f 50       		.byte	0x50
 5671 1450 02       		.uleb128 0x2
 5672 1451 74       		.byte	0x74
 5673 1452 00       		.sleb128 0
 5674 1453 00       		.byte	0
 5675 1454 1D       		.uleb128 0x1d
 5676 1455 EE030000 		.4byte	.LVL116
 5677 1459 79040000 		.4byte	0x479
 5678 145d 6E140000 		.4byte	0x146e
 5679 1461 1E       		.uleb128 0x1e
 5680 1462 01       		.uleb128 0x1
 5681 1463 51       		.byte	0x51
 5682 1464 02       		.uleb128 0x2
 5683 1465 75       		.byte	0x75
 5684 1466 00       		.sleb128 0
 5685 1467 1E       		.uleb128 0x1e
 5686 1468 01       		.uleb128 0x1
 5687 1469 50       		.byte	0x50
 5688 146a 02       		.uleb128 0x2
 5689 146b 74       		.byte	0x74
 5690 146c 00       		.sleb128 0
 5691 146d 00       		.byte	0
 5692 146e 29       		.uleb128 0x29
 5693 146f F6030000 		.4byte	.LVL118
 5694 1473 05050000 		.4byte	0x505
 5695 1477 1D       		.uleb128 0x1d
 5696 1478 06040000 		.4byte	.LVL121
 5697 147c 731A0000 		.4byte	0x1a73
 5698 1480 8B140000 		.4byte	0x148b
 5699 1484 1E       		.uleb128 0x1e
 5700 1485 01       		.uleb128 0x1
 5701 1486 50       		.byte	0x50
 5702 1487 02       		.uleb128 0x2
 5703 1488 74       		.byte	0x74
 5704 1489 0C       		.sleb128 12
 5705 148a 00       		.byte	0
 5706 148b 1D       		.uleb128 0x1d
 5707 148c 20040000 		.4byte	.LVL125
 5708 1490 AB040000 		.4byte	0x4ab
 5709 1494 9F140000 		.4byte	0x149f
 5710 1498 1E       		.uleb128 0x1e
 5711 1499 01       		.uleb128 0x1
 5712 149a 50       		.byte	0x50
 5713 149b 02       		.uleb128 0x2
 5714 149c 74       		.byte	0x74
 5715 149d 00       		.sleb128 0
ARM GAS  C:\Users\raytr\AppData\Local\Temp\ccu8NuaS.s 			page 126


 5716 149e 00       		.byte	0
 5717 149f 1D       		.uleb128 0x1d
 5718 14a0 2C040000 		.4byte	.LVL126
 5719 14a4 731A0000 		.4byte	0x1a73
 5720 14a8 B9140000 		.4byte	0x14b9
 5721 14ac 1E       		.uleb128 0x1e
 5722 14ad 01       		.uleb128 0x1
 5723 14ae 51       		.byte	0x51
 5724 14af 02       		.uleb128 0x2
 5725 14b0 75       		.byte	0x75
 5726 14b1 00       		.sleb128 0
 5727 14b2 1E       		.uleb128 0x1e
 5728 14b3 01       		.uleb128 0x1
 5729 14b4 50       		.byte	0x50
 5730 14b5 02       		.uleb128 0x2
 5731 14b6 74       		.byte	0x74
 5732 14b7 0C       		.sleb128 12
 5733 14b8 00       		.byte	0
 5734 14b9 29       		.uleb128 0x29
 5735 14ba 34040000 		.4byte	.LVL128
 5736 14be AB040000 		.4byte	0x4ab
 5737 14c2 29       		.uleb128 0x29
 5738 14c3 38040000 		.4byte	.LVL129
 5739 14c7 6E050000 		.4byte	0x56e
 5740 14cb 1D       		.uleb128 0x1d
 5741 14cc 40040000 		.4byte	.LVL131
 5742 14d0 A31A0000 		.4byte	0x1aa3
 5743 14d4 DF140000 		.4byte	0x14df
 5744 14d8 1E       		.uleb128 0x1e
 5745 14d9 01       		.uleb128 0x1
 5746 14da 50       		.byte	0x50
 5747 14db 02       		.uleb128 0x2
 5748 14dc 74       		.byte	0x74
 5749 14dd 00       		.sleb128 0
 5750 14de 00       		.byte	0
 5751 14df 1D       		.uleb128 0x1d
 5752 14e0 4E040000 		.4byte	.LVL133
 5753 14e4 79040000 		.4byte	0x479
 5754 14e8 F9140000 		.4byte	0x14f9
 5755 14ec 1E       		.uleb128 0x1e
 5756 14ed 01       		.uleb128 0x1
 5757 14ee 51       		.byte	0x51
 5758 14ef 02       		.uleb128 0x2
 5759 14f0 75       		.byte	0x75
 5760 14f1 00       		.sleb128 0
 5761 14f2 1E       		.uleb128 0x1e
 5762 14f3 01       		.uleb128 0x1
 5763 14f4 50       		.byte	0x50
 5764 14f5 02       		.uleb128 0x2
 5765 14f6 74       		.byte	0x74
 5766 14f7 00       		.sleb128 0
 5767 14f8 00       		.byte	0
 5768 14f9 1D       		.uleb128 0x1d
 5769 14fa 6C040000 		.4byte	.LVL140
 5770 14fe 261A0000 		.4byte	0x1a26
 5771 1502 0D150000 		.4byte	0x150d
 5772 1506 1E       		.uleb128 0x1e
ARM GAS  C:\Users\raytr\AppData\Local\Temp\ccu8NuaS.s 			page 127


 5773 1507 01       		.uleb128 0x1
 5774 1508 50       		.byte	0x50
 5775 1509 02       		.uleb128 0x2
 5776 150a 74       		.byte	0x74
 5777 150b 0C       		.sleb128 12
 5778 150c 00       		.byte	0
 5779 150d 29       		.uleb128 0x29
 5780 150e 86040000 		.4byte	.LVL144
 5781 1512 AB040000 		.4byte	0x4ab
 5782 1516 1D       		.uleb128 0x1d
 5783 1517 C2040000 		.4byte	.LVL157
 5784 151b 261A0000 		.4byte	0x1a26
 5785 151f 2A150000 		.4byte	0x152a
 5786 1523 1E       		.uleb128 0x1e
 5787 1524 01       		.uleb128 0x1
 5788 1525 50       		.byte	0x50
 5789 1526 02       		.uleb128 0x2
 5790 1527 74       		.byte	0x74
 5791 1528 0C       		.sleb128 12
 5792 1529 00       		.byte	0
 5793 152a 1D       		.uleb128 0x1d
 5794 152b 06050000 		.4byte	.LVL172
 5795 152f 261A0000 		.4byte	0x1a26
 5796 1533 3E150000 		.4byte	0x153e
 5797 1537 1E       		.uleb128 0x1e
 5798 1538 01       		.uleb128 0x1
 5799 1539 50       		.byte	0x50
 5800 153a 02       		.uleb128 0x2
 5801 153b 74       		.byte	0x74
 5802 153c 0C       		.sleb128 12
 5803 153d 00       		.byte	0
 5804 153e 1D       		.uleb128 0x1d
 5805 153f 4A050000 		.4byte	.LVL187
 5806 1543 261A0000 		.4byte	0x1a26
 5807 1547 52150000 		.4byte	0x1552
 5808 154b 1E       		.uleb128 0x1e
 5809 154c 01       		.uleb128 0x1
 5810 154d 50       		.byte	0x50
 5811 154e 02       		.uleb128 0x2
 5812 154f 74       		.byte	0x74
 5813 1550 0C       		.sleb128 12
 5814 1551 00       		.byte	0
 5815 1552 1D       		.uleb128 0x1d
 5816 1553 8E050000 		.4byte	.LVL202
 5817 1557 261A0000 		.4byte	0x1a26
 5818 155b 66150000 		.4byte	0x1566
 5819 155f 1E       		.uleb128 0x1e
 5820 1560 01       		.uleb128 0x1
 5821 1561 50       		.byte	0x50
 5822 1562 02       		.uleb128 0x2
 5823 1563 74       		.byte	0x74
 5824 1564 0C       		.sleb128 12
 5825 1565 00       		.byte	0
 5826 1566 1D       		.uleb128 0x1d
 5827 1567 D2050000 		.4byte	.LVL217
 5828 156b 261A0000 		.4byte	0x1a26
 5829 156f 7A150000 		.4byte	0x157a
ARM GAS  C:\Users\raytr\AppData\Local\Temp\ccu8NuaS.s 			page 128


 5830 1573 1E       		.uleb128 0x1e
 5831 1574 01       		.uleb128 0x1
 5832 1575 50       		.byte	0x50
 5833 1576 02       		.uleb128 0x2
 5834 1577 74       		.byte	0x74
 5835 1578 0C       		.sleb128 12
 5836 1579 00       		.byte	0
 5837 157a 1D       		.uleb128 0x1d
 5838 157b 16060000 		.4byte	.LVL232
 5839 157f 261A0000 		.4byte	0x1a26
 5840 1583 8E150000 		.4byte	0x158e
 5841 1587 1E       		.uleb128 0x1e
 5842 1588 01       		.uleb128 0x1
 5843 1589 50       		.byte	0x50
 5844 158a 02       		.uleb128 0x2
 5845 158b 74       		.byte	0x74
 5846 158c 0C       		.sleb128 12
 5847 158d 00       		.byte	0
 5848 158e 1D       		.uleb128 0x1d
 5849 158f 2E060000 		.4byte	.LVL237
 5850 1593 731A0000 		.4byte	0x1a73
 5851 1597 A2150000 		.4byte	0x15a2
 5852 159b 1E       		.uleb128 0x1e
 5853 159c 01       		.uleb128 0x1
 5854 159d 50       		.byte	0x50
 5855 159e 02       		.uleb128 0x2
 5856 159f 74       		.byte	0x74
 5857 15a0 0C       		.sleb128 12
 5858 15a1 00       		.byte	0
 5859 15a2 1D       		.uleb128 0x1d
 5860 15a3 3C060000 		.4byte	.LVL240
 5861 15a7 731A0000 		.4byte	0x1a73
 5862 15ab B6150000 		.4byte	0x15b6
 5863 15af 1E       		.uleb128 0x1e
 5864 15b0 01       		.uleb128 0x1
 5865 15b1 50       		.byte	0x50
 5866 15b2 02       		.uleb128 0x2
 5867 15b3 74       		.byte	0x74
 5868 15b4 0C       		.sleb128 12
 5869 15b5 00       		.byte	0
 5870 15b6 1D       		.uleb128 0x1d
 5871 15b7 4A060000 		.4byte	.LVL243
 5872 15bb 731A0000 		.4byte	0x1a73
 5873 15bf CA150000 		.4byte	0x15ca
 5874 15c3 1E       		.uleb128 0x1e
 5875 15c4 01       		.uleb128 0x1
 5876 15c5 50       		.byte	0x50
 5877 15c6 02       		.uleb128 0x2
 5878 15c7 74       		.byte	0x74
 5879 15c8 0C       		.sleb128 12
 5880 15c9 00       		.byte	0
 5881 15ca 1D       		.uleb128 0x1d
 5882 15cb 58060000 		.4byte	.LVL246
 5883 15cf 731A0000 		.4byte	0x1a73
 5884 15d3 DE150000 		.4byte	0x15de
 5885 15d7 1E       		.uleb128 0x1e
 5886 15d8 01       		.uleb128 0x1
ARM GAS  C:\Users\raytr\AppData\Local\Temp\ccu8NuaS.s 			page 129


 5887 15d9 50       		.byte	0x50
 5888 15da 02       		.uleb128 0x2
 5889 15db 74       		.byte	0x74
 5890 15dc 0C       		.sleb128 12
 5891 15dd 00       		.byte	0
 5892 15de 1D       		.uleb128 0x1d
 5893 15df 66060000 		.4byte	.LVL249
 5894 15e3 731A0000 		.4byte	0x1a73
 5895 15e7 F2150000 		.4byte	0x15f2
 5896 15eb 1E       		.uleb128 0x1e
 5897 15ec 01       		.uleb128 0x1
 5898 15ed 50       		.byte	0x50
 5899 15ee 02       		.uleb128 0x2
 5900 15ef 74       		.byte	0x74
 5901 15f0 0C       		.sleb128 12
 5902 15f1 00       		.byte	0
 5903 15f2 1D       		.uleb128 0x1d
 5904 15f3 74060000 		.4byte	.LVL252
 5905 15f7 731A0000 		.4byte	0x1a73
 5906 15fb 06160000 		.4byte	0x1606
 5907 15ff 1E       		.uleb128 0x1e
 5908 1600 01       		.uleb128 0x1
 5909 1601 50       		.byte	0x50
 5910 1602 02       		.uleb128 0x2
 5911 1603 74       		.byte	0x74
 5912 1604 0C       		.sleb128 12
 5913 1605 00       		.byte	0
 5914 1606 1D       		.uleb128 0x1d
 5915 1607 82060000 		.4byte	.LVL255
 5916 160b 731A0000 		.4byte	0x1a73
 5917 160f 1A160000 		.4byte	0x161a
 5918 1613 1E       		.uleb128 0x1e
 5919 1614 01       		.uleb128 0x1
 5920 1615 50       		.byte	0x50
 5921 1616 02       		.uleb128 0x2
 5922 1617 74       		.byte	0x74
 5923 1618 0C       		.sleb128 12
 5924 1619 00       		.byte	0
 5925 161a 1D       		.uleb128 0x1d
 5926 161b C4060000 		.4byte	.LVL270
 5927 161f 261A0000 		.4byte	0x1a26
 5928 1623 2E160000 		.4byte	0x162e
 5929 1627 1E       		.uleb128 0x1e
 5930 1628 01       		.uleb128 0x1
 5931 1629 50       		.byte	0x50
 5932 162a 02       		.uleb128 0x2
 5933 162b 74       		.byte	0x74
 5934 162c 0C       		.sleb128 12
 5935 162d 00       		.byte	0
 5936 162e 1D       		.uleb128 0x1d
 5937 162f 22070000 		.4byte	.LVL297
 5938 1633 261A0000 		.4byte	0x1a26
 5939 1637 42160000 		.4byte	0x1642
 5940 163b 1E       		.uleb128 0x1e
 5941 163c 01       		.uleb128 0x1
 5942 163d 50       		.byte	0x50
 5943 163e 02       		.uleb128 0x2
ARM GAS  C:\Users\raytr\AppData\Local\Temp\ccu8NuaS.s 			page 130


 5944 163f 74       		.byte	0x74
 5945 1640 0C       		.sleb128 12
 5946 1641 00       		.byte	0
 5947 1642 1D       		.uleb128 0x1d
 5948 1643 8C070000 		.4byte	.LVL330
 5949 1647 261A0000 		.4byte	0x1a26
 5950 164b 56160000 		.4byte	0x1656
 5951 164f 1E       		.uleb128 0x1e
 5952 1650 01       		.uleb128 0x1
 5953 1651 50       		.byte	0x50
 5954 1652 02       		.uleb128 0x2
 5955 1653 74       		.byte	0x74
 5956 1654 0C       		.sleb128 12
 5957 1655 00       		.byte	0
 5958 1656 1D       		.uleb128 0x1d
 5959 1657 F6070000 		.4byte	.LVL369
 5960 165b 261A0000 		.4byte	0x1a26
 5961 165f 6A160000 		.4byte	0x166a
 5962 1663 1E       		.uleb128 0x1e
 5963 1664 01       		.uleb128 0x1
 5964 1665 50       		.byte	0x50
 5965 1666 02       		.uleb128 0x2
 5966 1667 74       		.byte	0x74
 5967 1668 0C       		.sleb128 12
 5968 1669 00       		.byte	0
 5969 166a 1D       		.uleb128 0x1d
 5970 166b 5E080000 		.4byte	.LVL406
 5971 166f 261A0000 		.4byte	0x1a26
 5972 1673 7E160000 		.4byte	0x167e
 5973 1677 1E       		.uleb128 0x1e
 5974 1678 01       		.uleb128 0x1
 5975 1679 50       		.byte	0x50
 5976 167a 02       		.uleb128 0x2
 5977 167b 74       		.byte	0x74
 5978 167c 0C       		.sleb128 12
 5979 167d 00       		.byte	0
 5980 167e 1D       		.uleb128 0x1d
 5981 167f C6080000 		.4byte	.LVL437
 5982 1683 261A0000 		.4byte	0x1a26
 5983 1687 92160000 		.4byte	0x1692
 5984 168b 1E       		.uleb128 0x1e
 5985 168c 01       		.uleb128 0x1
 5986 168d 50       		.byte	0x50
 5987 168e 02       		.uleb128 0x2
 5988 168f 74       		.byte	0x74
 5989 1690 0C       		.sleb128 12
 5990 1691 00       		.byte	0
 5991 1692 1D       		.uleb128 0x1d
 5992 1693 26090000 		.4byte	.LVL465
 5993 1697 261A0000 		.4byte	0x1a26
 5994 169b A6160000 		.4byte	0x16a6
 5995 169f 1E       		.uleb128 0x1e
 5996 16a0 01       		.uleb128 0x1
 5997 16a1 50       		.byte	0x50
 5998 16a2 02       		.uleb128 0x2
 5999 16a3 74       		.byte	0x74
 6000 16a4 0C       		.sleb128 12
ARM GAS  C:\Users\raytr\AppData\Local\Temp\ccu8NuaS.s 			page 131


 6001 16a5 00       		.byte	0
 6002 16a6 1D       		.uleb128 0x1d
 6003 16a7 8E090000 		.4byte	.LVL496
 6004 16ab 261A0000 		.4byte	0x1a26
 6005 16af BA160000 		.4byte	0x16ba
 6006 16b3 1E       		.uleb128 0x1e
 6007 16b4 01       		.uleb128 0x1
 6008 16b5 50       		.byte	0x50
 6009 16b6 02       		.uleb128 0x2
 6010 16b7 74       		.byte	0x74
 6011 16b8 0C       		.sleb128 12
 6012 16b9 00       		.byte	0
 6013 16ba 1D       		.uleb128 0x1d
 6014 16bb A4090000 		.4byte	.LVL500
 6015 16bf 261A0000 		.4byte	0x1a26
 6016 16c3 CE160000 		.4byte	0x16ce
 6017 16c7 1E       		.uleb128 0x1e
 6018 16c8 01       		.uleb128 0x1
 6019 16c9 50       		.byte	0x50
 6020 16ca 02       		.uleb128 0x2
 6021 16cb 74       		.byte	0x74
 6022 16cc 0C       		.sleb128 12
 6023 16cd 00       		.byte	0
 6024 16ce 29       		.uleb128 0x29
 6025 16cf B4090000 		.4byte	.LVL506
 6026 16d3 05050000 		.4byte	0x505
 6027 16d7 1D       		.uleb128 0x1d
 6028 16d8 BC090000 		.4byte	.LVL508
 6029 16dc 8E1A0000 		.4byte	0x1a8e
 6030 16e0 EB160000 		.4byte	0x16eb
 6031 16e4 1E       		.uleb128 0x1e
 6032 16e5 01       		.uleb128 0x1
 6033 16e6 50       		.byte	0x50
 6034 16e7 02       		.uleb128 0x2
 6035 16e8 74       		.byte	0x74
 6036 16e9 00       		.sleb128 0
 6037 16ea 00       		.byte	0
 6038 16eb 29       		.uleb128 0x29
 6039 16ec CC090000 		.4byte	.LVL511
 6040 16f0 05050000 		.4byte	0x505
 6041 16f4 29       		.uleb128 0x29
 6042 16f5 D6090000 		.4byte	.LVL514
 6043 16f9 05050000 		.4byte	0x505
 6044 16fd 1D       		.uleb128 0x1d
 6045 16fe DC090000 		.4byte	.LVL515
 6046 1702 8E1A0000 		.4byte	0x1a8e
 6047 1706 11170000 		.4byte	0x1711
 6048 170a 1E       		.uleb128 0x1e
 6049 170b 01       		.uleb128 0x1
 6050 170c 50       		.byte	0x50
 6051 170d 02       		.uleb128 0x2
 6052 170e 74       		.byte	0x74
 6053 170f 00       		.sleb128 0
 6054 1710 00       		.byte	0
 6055 1711 1D       		.uleb128 0x1d
 6056 1712 EA090000 		.4byte	.LVL519
 6057 1716 AB040000 		.4byte	0x4ab
ARM GAS  C:\Users\raytr\AppData\Local\Temp\ccu8NuaS.s 			page 132


 6058 171a 25170000 		.4byte	0x1725
 6059 171e 1E       		.uleb128 0x1e
 6060 171f 01       		.uleb128 0x1
 6061 1720 50       		.byte	0x50
 6062 1721 02       		.uleb128 0x2
 6063 1722 74       		.byte	0x74
 6064 1723 00       		.sleb128 0
 6065 1724 00       		.byte	0
 6066 1725 29       		.uleb128 0x29
 6067 1726 1A0A0000 		.4byte	.LVL540
 6068 172a 05050000 		.4byte	0x505
 6069 172e 1D       		.uleb128 0x1d
 6070 172f 220A0000 		.4byte	.LVL542
 6071 1733 A31A0000 		.4byte	0x1aa3
 6072 1737 42170000 		.4byte	0x1742
 6073 173b 1E       		.uleb128 0x1e
 6074 173c 01       		.uleb128 0x1
 6075 173d 50       		.byte	0x50
 6076 173e 02       		.uleb128 0x2
 6077 173f 74       		.byte	0x74
 6078 1740 00       		.sleb128 0
 6079 1741 00       		.byte	0
 6080 1742 1D       		.uleb128 0x1d
 6081 1743 3C0A0000 		.4byte	.LVL549
 6082 1747 AB040000 		.4byte	0x4ab
 6083 174b 56170000 		.4byte	0x1756
 6084 174f 1E       		.uleb128 0x1e
 6085 1750 01       		.uleb128 0x1
 6086 1751 50       		.byte	0x50
 6087 1752 02       		.uleb128 0x2
 6088 1753 74       		.byte	0x74
 6089 1754 00       		.sleb128 0
 6090 1755 00       		.byte	0
 6091 1756 29       		.uleb128 0x29
 6092 1757 540A0000 		.4byte	.LVL558
 6093 175b 05050000 		.4byte	0x505
 6094 175f 1D       		.uleb128 0x1d
 6095 1760 5C0A0000 		.4byte	.LVL560
 6096 1764 A31A0000 		.4byte	0x1aa3
 6097 1768 73170000 		.4byte	0x1773
 6098 176c 1E       		.uleb128 0x1e
 6099 176d 01       		.uleb128 0x1
 6100 176e 50       		.byte	0x50
 6101 176f 02       		.uleb128 0x2
 6102 1770 74       		.byte	0x74
 6103 1771 00       		.sleb128 0
 6104 1772 00       		.byte	0
 6105 1773 1D       		.uleb128 0x1d
 6106 1774 720A0000 		.4byte	.LVL565
 6107 1778 AB040000 		.4byte	0x4ab
 6108 177c 87170000 		.4byte	0x1787
 6109 1780 1E       		.uleb128 0x1e
 6110 1781 01       		.uleb128 0x1
 6111 1782 50       		.byte	0x50
 6112 1783 02       		.uleb128 0x2
 6113 1784 74       		.byte	0x74
 6114 1785 00       		.sleb128 0
ARM GAS  C:\Users\raytr\AppData\Local\Temp\ccu8NuaS.s 			page 133


 6115 1786 00       		.byte	0
 6116 1787 29       		.uleb128 0x29
 6117 1788 820A0000 		.4byte	.LVL570
 6118 178c AB040000 		.4byte	0x4ab
 6119 1790 1D       		.uleb128 0x1d
 6120 1791 920A0000 		.4byte	.LVL571
 6121 1795 731A0000 		.4byte	0x1a73
 6122 1799 A4170000 		.4byte	0x17a4
 6123 179d 1E       		.uleb128 0x1e
 6124 179e 01       		.uleb128 0x1
 6125 179f 50       		.byte	0x50
 6126 17a0 02       		.uleb128 0x2
 6127 17a1 74       		.byte	0x74
 6128 17a2 0C       		.sleb128 12
 6129 17a3 00       		.byte	0
 6130 17a4 1D       		.uleb128 0x1d
 6131 17a5 AA0A0000 		.4byte	.LVL576
 6132 17a9 731A0000 		.4byte	0x1a73
 6133 17ad B8170000 		.4byte	0x17b8
 6134 17b1 1E       		.uleb128 0x1e
 6135 17b2 01       		.uleb128 0x1
 6136 17b3 50       		.byte	0x50
 6137 17b4 02       		.uleb128 0x2
 6138 17b5 74       		.byte	0x74
 6139 17b6 0C       		.sleb128 12
 6140 17b7 00       		.byte	0
 6141 17b8 1D       		.uleb128 0x1d
 6142 17b9 B80A0000 		.4byte	.LVL580
 6143 17bd AB040000 		.4byte	0x4ab
 6144 17c1 CC170000 		.4byte	0x17cc
 6145 17c5 1E       		.uleb128 0x1e
 6146 17c6 01       		.uleb128 0x1
 6147 17c7 50       		.byte	0x50
 6148 17c8 02       		.uleb128 0x2
 6149 17c9 74       		.byte	0x74
 6150 17ca 00       		.sleb128 0
 6151 17cb 00       		.byte	0
 6152 17cc 29       		.uleb128 0x29
 6153 17cd C80A0000 		.4byte	.LVL585
 6154 17d1 AB040000 		.4byte	0x4ab
 6155 17d5 29       		.uleb128 0x29
 6156 17d6 CC0A0000 		.4byte	.LVL586
 6157 17da 6E050000 		.4byte	0x56e
 6158 17de 1D       		.uleb128 0x1d
 6159 17df D40A0000 		.4byte	.LVL587
 6160 17e3 79040000 		.4byte	0x479
 6161 17e7 F2170000 		.4byte	0x17f2
 6162 17eb 1E       		.uleb128 0x1e
 6163 17ec 01       		.uleb128 0x1
 6164 17ed 50       		.byte	0x50
 6165 17ee 02       		.uleb128 0x2
 6166 17ef 74       		.byte	0x74
 6167 17f0 00       		.sleb128 0
 6168 17f1 00       		.byte	0
 6169 17f2 29       		.uleb128 0x29
 6170 17f3 DC0A0000 		.4byte	.LVL589
 6171 17f7 05050000 		.4byte	0x505
ARM GAS  C:\Users\raytr\AppData\Local\Temp\ccu8NuaS.s 			page 134


 6172 17fb 1D       		.uleb128 0x1d
 6173 17fc E80A0000 		.4byte	.LVL590
 6174 1800 731A0000 		.4byte	0x1a73
 6175 1804 0F180000 		.4byte	0x180f
 6176 1808 1E       		.uleb128 0x1e
 6177 1809 01       		.uleb128 0x1
 6178 180a 50       		.byte	0x50
 6179 180b 02       		.uleb128 0x2
 6180 180c 74       		.byte	0x74
 6181 180d 0C       		.sleb128 12
 6182 180e 00       		.byte	0
 6183 180f 1D       		.uleb128 0x1d
 6184 1810 F20A0000 		.4byte	.LVL592
 6185 1814 AB040000 		.4byte	0x4ab
 6186 1818 23180000 		.4byte	0x1823
 6187 181c 1E       		.uleb128 0x1e
 6188 181d 01       		.uleb128 0x1
 6189 181e 50       		.byte	0x50
 6190 181f 02       		.uleb128 0x2
 6191 1820 74       		.byte	0x74
 6192 1821 00       		.sleb128 0
 6193 1822 00       		.byte	0
 6194 1823 29       		.uleb128 0x29
 6195 1824 020B0000 		.4byte	.LVL597
 6196 1828 AB040000 		.4byte	0x4ab
 6197 182c 1D       		.uleb128 0x1d
 6198 182d 160B0000 		.4byte	.LVL598
 6199 1831 261A0000 		.4byte	0x1a26
 6200 1835 40180000 		.4byte	0x1840
 6201 1839 1E       		.uleb128 0x1e
 6202 183a 01       		.uleb128 0x1
 6203 183b 50       		.byte	0x50
 6204 183c 02       		.uleb128 0x2
 6205 183d 74       		.byte	0x74
 6206 183e 0C       		.sleb128 12
 6207 183f 00       		.byte	0
 6208 1840 1D       		.uleb128 0x1d
 6209 1841 340B0000 		.4byte	.LVL603
 6210 1845 261A0000 		.4byte	0x1a26
 6211 1849 54180000 		.4byte	0x1854
 6212 184d 1E       		.uleb128 0x1e
 6213 184e 01       		.uleb128 0x1
 6214 184f 50       		.byte	0x50
 6215 1850 02       		.uleb128 0x2
 6216 1851 74       		.byte	0x74
 6217 1852 0C       		.sleb128 12
 6218 1853 00       		.byte	0
 6219 1854 1D       		.uleb128 0x1d
 6220 1855 440B0000 		.4byte	.LVL607
 6221 1859 AB040000 		.4byte	0x4ab
 6222 185d 68180000 		.4byte	0x1868
 6223 1861 1E       		.uleb128 0x1e
 6224 1862 01       		.uleb128 0x1
 6225 1863 50       		.byte	0x50
 6226 1864 02       		.uleb128 0x2
 6227 1865 74       		.byte	0x74
 6228 1866 00       		.sleb128 0
ARM GAS  C:\Users\raytr\AppData\Local\Temp\ccu8NuaS.s 			page 135


 6229 1867 00       		.byte	0
 6230 1868 1D       		.uleb128 0x1d
 6231 1869 560B0000 		.4byte	.LVL612
 6232 186d 05050000 		.4byte	0x505
 6233 1871 7C180000 		.4byte	0x187c
 6234 1875 1E       		.uleb128 0x1e
 6235 1876 01       		.uleb128 0x1
 6236 1877 50       		.byte	0x50
 6237 1878 02       		.uleb128 0x2
 6238 1879 74       		.byte	0x74
 6239 187a 00       		.sleb128 0
 6240 187b 00       		.byte	0
 6241 187c 29       		.uleb128 0x29
 6242 187d 5C0B0000 		.4byte	.LVL613
 6243 1881 6E050000 		.4byte	0x56e
 6244 1885 29       		.uleb128 0x29
 6245 1886 700B0000 		.4byte	.LVL617
 6246 188a 05050000 		.4byte	0x505
 6247 188e 1D       		.uleb128 0x1d
 6248 188f 800B0000 		.4byte	.LVL618
 6249 1893 261A0000 		.4byte	0x1a26
 6250 1897 A2180000 		.4byte	0x18a2
 6251 189b 1E       		.uleb128 0x1e
 6252 189c 01       		.uleb128 0x1
 6253 189d 50       		.byte	0x50
 6254 189e 02       		.uleb128 0x2
 6255 189f 74       		.byte	0x74
 6256 18a0 0C       		.sleb128 12
 6257 18a1 00       		.byte	0
 6258 18a2 29       		.uleb128 0x29
 6259 18a3 8A0B0000 		.4byte	.LVL620
 6260 18a7 AB040000 		.4byte	0x4ab
 6261 18ab 00       		.byte	0
 6262 18ac 00       		.byte	0
 6263 18ad 2A       		.uleb128 0x2a
 6264 18ae CB020000 		.4byte	.LASF55
 6265 18b2 01       		.byte	0x1
 6266 18b3 6504     		.2byte	0x465
 6267 18b5 7E000000 		.4byte	0x7e
 6268 18b9 00000000 		.4byte	.LFB17
 6269 18bd 0A000000 		.4byte	.LFE17-.LFB17
 6270 18c1 01       		.uleb128 0x1
 6271 18c2 9C       		.byte	0x9c
 6272 18c3 F6180000 		.4byte	0x18f6
 6273 18c7 2B       		.uleb128 0x2b
 6274 18c8 63707500 		.ascii	"cpu\000"
 6275 18cc 01       		.byte	0x1
 6276 18cd 6504     		.2byte	0x465
 6277 18cf B9020000 		.4byte	0x2b9
 6278 18d3 A72A0000 		.4byte	.LLST201
 6279 18d7 2C       		.uleb128 0x2c
 6280 18d8 A6030000 		.4byte	.LASF43
 6281 18dc 01       		.byte	0x1
 6282 18dd 6504     		.2byte	0x465
 6283 18df 97000000 		.4byte	0x97
 6284 18e3 01       		.uleb128 0x1
 6285 18e4 51       		.byte	0x51
ARM GAS  C:\Users\raytr\AppData\Local\Temp\ccu8NuaS.s 			page 136


 6286 18e5 24       		.uleb128 0x24
 6287 18e6 93030000 		.4byte	.LASF56
 6288 18ea 01       		.byte	0x1
 6289 18eb 6604     		.2byte	0x466
 6290 18ed 7E000000 		.4byte	0x7e
 6291 18f1 E12A0000 		.4byte	.LLST202
 6292 18f5 00       		.byte	0
 6293 18f6 2A       		.uleb128 0x2a
 6294 18f7 79030000 		.4byte	.LASF57
 6295 18fb 01       		.byte	0x1
 6296 18fc 7404     		.2byte	0x474
 6297 18fe 7E000000 		.4byte	0x7e
 6298 1902 00000000 		.4byte	.LFB18
 6299 1906 3A000000 		.4byte	.LFE18-.LFB18
 6300 190a 01       		.uleb128 0x1
 6301 190b 9C       		.byte	0x9c
 6302 190c C7190000 		.4byte	0x19c7
 6303 1910 2B       		.uleb128 0x2b
 6304 1911 63707500 		.ascii	"cpu\000"
 6305 1915 01       		.byte	0x1
 6306 1916 7404     		.2byte	0x474
 6307 1918 B9020000 		.4byte	0x2b9
 6308 191c 002B0000 		.4byte	.LLST203
 6309 1920 2D       		.uleb128 0x2d
 6310 1921 A6030000 		.4byte	.LASF43
 6311 1925 01       		.byte	0x1
 6312 1926 7404     		.2byte	0x474
 6313 1928 97000000 		.4byte	0x97
 6314 192c 1E2B0000 		.4byte	.LLST204
 6315 1930 24       		.uleb128 0x24
 6316 1931 93030000 		.4byte	.LASF56
 6317 1935 01       		.byte	0x1
 6318 1936 7504     		.2byte	0x475
 6319 1938 7E000000 		.4byte	0x7e
 6320 193c 3F2B0000 		.4byte	.LLST205
 6321 1940 2E       		.uleb128 0x2e
 6322 1941 0E000000 		.4byte	.LBB304
 6323 1945 20000000 		.4byte	.LBE304-.LBB304
 6324 1949 9C190000 		.4byte	0x199c
 6325 194d 24       		.uleb128 0x24
 6326 194e C2020000 		.4byte	.LASF58
 6327 1952 01       		.byte	0x1
 6328 1953 7C04     		.2byte	0x47c
 6329 1955 97000000 		.4byte	0x97
 6330 1959 5D2B0000 		.4byte	.LLST206
 6331 195d 1D       		.uleb128 0x1d
 6332 195e 1E000000 		.4byte	.LVL639
 6333 1962 261A0000 		.4byte	0x1a26
 6334 1966 71190000 		.4byte	0x1971
 6335 196a 1E       		.uleb128 0x1e
 6336 196b 01       		.uleb128 0x1
 6337 196c 50       		.byte	0x50
 6338 196d 02       		.uleb128 0x2
 6339 196e 75       		.byte	0x75
 6340 196f 0C       		.sleb128 12
 6341 1970 00       		.byte	0
 6342 1971 1D       		.uleb128 0x1d
ARM GAS  C:\Users\raytr\AppData\Local\Temp\ccu8NuaS.s 			page 137


 6343 1972 26000000 		.4byte	.LVL641
 6344 1976 56040000 		.4byte	0x456
 6345 197a 85190000 		.4byte	0x1985
 6346 197e 1E       		.uleb128 0x1e
 6347 197f 01       		.uleb128 0x1
 6348 1980 50       		.byte	0x50
 6349 1981 02       		.uleb128 0x2
 6350 1982 75       		.byte	0x75
 6351 1983 00       		.sleb128 0
 6352 1984 00       		.byte	0
 6353 1985 1F       		.uleb128 0x1f
 6354 1986 2E000000 		.4byte	.LVL642
 6355 198a AD180000 		.4byte	0x18ad
 6356 198e 1E       		.uleb128 0x1e
 6357 198f 01       		.uleb128 0x1
 6358 1990 51       		.byte	0x51
 6359 1991 02       		.uleb128 0x2
 6360 1992 74       		.byte	0x74
 6361 1993 00       		.sleb128 0
 6362 1994 1E       		.uleb128 0x1e
 6363 1995 01       		.uleb128 0x1
 6364 1996 50       		.byte	0x50
 6365 1997 02       		.uleb128 0x2
 6366 1998 75       		.byte	0x75
 6367 1999 00       		.sleb128 0
 6368 199a 00       		.byte	0
 6369 199b 00       		.byte	0
 6370 199c 1D       		.uleb128 0x1d
 6371 199d 0A000000 		.4byte	.LVL638
 6372 19a1 56040000 		.4byte	0x456
 6373 19a5 B0190000 		.4byte	0x19b0
 6374 19a9 1E       		.uleb128 0x1e
 6375 19aa 01       		.uleb128 0x1
 6376 19ab 50       		.byte	0x50
 6377 19ac 02       		.uleb128 0x2
 6378 19ad 75       		.byte	0x75
 6379 19ae 00       		.sleb128 0
 6380 19af 00       		.byte	0
 6381 19b0 1F       		.uleb128 0x1f
 6382 19b1 38000000 		.4byte	.LVL644
 6383 19b5 DC050000 		.4byte	0x5dc
 6384 19b9 1E       		.uleb128 0x1e
 6385 19ba 01       		.uleb128 0x1
 6386 19bb 51       		.byte	0x51
 6387 19bc 02       		.uleb128 0x2
 6388 19bd 74       		.byte	0x74
 6389 19be 00       		.sleb128 0
 6390 19bf 1E       		.uleb128 0x1e
 6391 19c0 01       		.uleb128 0x1
 6392 19c1 50       		.byte	0x50
 6393 19c2 02       		.uleb128 0x2
 6394 19c3 75       		.byte	0x75
 6395 19c4 00       		.sleb128 0
 6396 19c5 00       		.byte	0
 6397 19c6 00       		.byte	0
 6398 19c7 2A       		.uleb128 0x2a
 6399 19c8 B2030000 		.4byte	.LASF59
ARM GAS  C:\Users\raytr\AppData\Local\Temp\ccu8NuaS.s 			page 138


 6400 19cc 01       		.byte	0x1
 6401 19cd 8504     		.2byte	0x485
 6402 19cf 7E000000 		.4byte	0x7e
 6403 19d3 00000000 		.4byte	.LFB19
 6404 19d7 1C000000 		.4byte	.LFE19-.LFB19
 6405 19db 01       		.uleb128 0x1
 6406 19dc 9C       		.byte	0x9c
 6407 19dd 261A0000 		.4byte	0x1a26
 6408 19e1 2B       		.uleb128 0x2b
 6409 19e2 63707500 		.ascii	"cpu\000"
 6410 19e6 01       		.byte	0x1
 6411 19e7 8504     		.2byte	0x485
 6412 19e9 B9020000 		.4byte	0x2b9
 6413 19ed 702B0000 		.4byte	.LLST207
 6414 19f1 24       		.uleb128 0x24
 6415 19f2 A6030000 		.4byte	.LASF43
 6416 19f6 01       		.byte	0x1
 6417 19f7 8704     		.2byte	0x487
 6418 19f9 97000000 		.4byte	0x97
 6419 19fd 8E2B0000 		.4byte	.LLST208
 6420 1a01 1D       		.uleb128 0x1d
 6421 1a02 12000000 		.4byte	.LVL647
 6422 1a06 261A0000 		.4byte	0x1a26
 6423 1a0a 151A0000 		.4byte	0x1a15
 6424 1a0e 1E       		.uleb128 0x1e
 6425 1a0f 01       		.uleb128 0x1
 6426 1a10 50       		.byte	0x50
 6427 1a11 02       		.uleb128 0x2
 6428 1a12 74       		.byte	0x74
 6429 1a13 0C       		.sleb128 12
 6430 1a14 00       		.byte	0
 6431 1a15 1F       		.uleb128 0x1f
 6432 1a16 1A000000 		.4byte	.LVL649
 6433 1a1a F6180000 		.4byte	0x18f6
 6434 1a1e 1E       		.uleb128 0x1e
 6435 1a1f 01       		.uleb128 0x1
 6436 1a20 50       		.byte	0x50
 6437 1a21 02       		.uleb128 0x2
 6438 1a22 74       		.byte	0x74
 6439 1a23 00       		.sleb128 0
 6440 1a24 00       		.byte	0
 6441 1a25 00       		.byte	0
 6442 1a26 2F       		.uleb128 0x2f
 6443 1a27 27010000 		.4byte	.LASF63
 6444 1a2b 04       		.byte	0x4
 6445 1a2c 14       		.byte	0x14
 6446 1a2d 97000000 		.4byte	0x97
 6447 1a31 451A0000 		.4byte	0x1a45
 6448 1a35 30       		.uleb128 0x30
 6449 1a36 451A0000 		.4byte	0x1a45
 6450 1a3a 30       		.uleb128 0x30
 6451 1a3b A2000000 		.4byte	0xa2
 6452 1a3f 30       		.uleb128 0x30
 6453 1a40 80020000 		.4byte	0x280
 6454 1a44 00       		.byte	0
 6455 1a45 16       		.uleb128 0x16
 6456 1a46 04       		.byte	0x4
ARM GAS  C:\Users\raytr\AppData\Local\Temp\ccu8NuaS.s 			page 139


 6457 1a47 EC000000 		.4byte	0xec
 6458 1a4b 31       		.uleb128 0x31
 6459 1a4c 27020000 		.4byte	.LASF60
 6460 1a50 04       		.byte	0x4
 6461 1a51 18       		.byte	0x18
 6462 1a52 5C1A0000 		.4byte	0x1a5c
 6463 1a56 30       		.uleb128 0x30
 6464 1a57 451A0000 		.4byte	0x1a45
 6465 1a5b 00       		.byte	0
 6466 1a5c 31       		.uleb128 0x31
 6467 1a5d 5D030000 		.4byte	.LASF61
 6468 1a61 05       		.byte	0x5
 6469 1a62 31       		.byte	0x31
 6470 1a63 6D1A0000 		.4byte	0x1a6d
 6471 1a67 30       		.uleb128 0x30
 6472 1a68 6D1A0000 		.4byte	0x1a6d
 6473 1a6c 00       		.byte	0
 6474 1a6d 16       		.uleb128 0x16
 6475 1a6e 04       		.byte	0x4
 6476 1a6f 42020000 		.4byte	0x242
 6477 1a73 31       		.uleb128 0x31
 6478 1a74 1E000000 		.4byte	.LASF62
 6479 1a78 04       		.byte	0x4
 6480 1a79 16       		.byte	0x16
 6481 1a7a 8E1A0000 		.4byte	0x1a8e
 6482 1a7e 30       		.uleb128 0x30
 6483 1a7f 451A0000 		.4byte	0x1a45
 6484 1a83 30       		.uleb128 0x30
 6485 1a84 A2000000 		.4byte	0xa2
 6486 1a88 30       		.uleb128 0x30
 6487 1a89 97000000 		.4byte	0x97
 6488 1a8d 00       		.byte	0
 6489 1a8e 2F       		.uleb128 0x2f
 6490 1a8f 15030000 		.4byte	.LASF64
 6491 1a93 05       		.byte	0x5
 6492 1a94 32       		.byte	0x32
 6493 1a95 80020000 		.4byte	0x280
 6494 1a99 A31A0000 		.4byte	0x1aa3
 6495 1a9d 30       		.uleb128 0x30
 6496 1a9e 6D1A0000 		.4byte	0x1a6d
 6497 1aa2 00       		.byte	0
 6498 1aa3 32       		.uleb128 0x32
 6499 1aa4 E2000000 		.4byte	.LASF65
 6500 1aa8 05       		.byte	0x5
 6501 1aa9 35       		.byte	0x35
 6502 1aaa 80020000 		.4byte	0x280
 6503 1aae 30       		.uleb128 0x30
 6504 1aaf 6D1A0000 		.4byte	0x1a6d
 6505 1ab3 00       		.byte	0
 6506 1ab4 00       		.byte	0
 6507              		.section	.debug_abbrev,"",%progbits
 6508              	.Ldebug_abbrev0:
 6509 0000 01       		.uleb128 0x1
 6510 0001 11       		.uleb128 0x11
 6511 0002 01       		.byte	0x1
 6512 0003 25       		.uleb128 0x25
 6513 0004 0E       		.uleb128 0xe
ARM GAS  C:\Users\raytr\AppData\Local\Temp\ccu8NuaS.s 			page 140


 6514 0005 13       		.uleb128 0x13
 6515 0006 0B       		.uleb128 0xb
 6516 0007 03       		.uleb128 0x3
 6517 0008 0E       		.uleb128 0xe
 6518 0009 1B       		.uleb128 0x1b
 6519 000a 0E       		.uleb128 0xe
 6520 000b 55       		.uleb128 0x55
 6521 000c 17       		.uleb128 0x17
 6522 000d 11       		.uleb128 0x11
 6523 000e 01       		.uleb128 0x1
 6524 000f 10       		.uleb128 0x10
 6525 0010 17       		.uleb128 0x17
 6526 0011 00       		.byte	0
 6527 0012 00       		.byte	0
 6528 0013 02       		.uleb128 0x2
 6529 0014 16       		.uleb128 0x16
 6530 0015 00       		.byte	0
 6531 0016 03       		.uleb128 0x3
 6532 0017 0E       		.uleb128 0xe
 6533 0018 3A       		.uleb128 0x3a
 6534 0019 0B       		.uleb128 0xb
 6535 001a 3B       		.uleb128 0x3b
 6536 001b 0B       		.uleb128 0xb
 6537 001c 49       		.uleb128 0x49
 6538 001d 13       		.uleb128 0x13
 6539 001e 00       		.byte	0
 6540 001f 00       		.byte	0
 6541 0020 03       		.uleb128 0x3
 6542 0021 24       		.uleb128 0x24
 6543 0022 00       		.byte	0
 6544 0023 0B       		.uleb128 0xb
 6545 0024 0B       		.uleb128 0xb
 6546 0025 3E       		.uleb128 0x3e
 6547 0026 0B       		.uleb128 0xb
 6548 0027 03       		.uleb128 0x3
 6549 0028 0E       		.uleb128 0xe
 6550 0029 00       		.byte	0
 6551 002a 00       		.byte	0
 6552 002b 04       		.uleb128 0x4
 6553 002c 24       		.uleb128 0x24
 6554 002d 00       		.byte	0
 6555 002e 0B       		.uleb128 0xb
 6556 002f 0B       		.uleb128 0xb
 6557 0030 3E       		.uleb128 0x3e
 6558 0031 0B       		.uleb128 0xb
 6559 0032 03       		.uleb128 0x3
 6560 0033 08       		.uleb128 0x8
 6561 0034 00       		.byte	0
 6562 0035 00       		.byte	0
 6563 0036 05       		.uleb128 0x5
 6564 0037 13       		.uleb128 0x13
 6565 0038 01       		.byte	0x1
 6566 0039 03       		.uleb128 0x3
 6567 003a 0E       		.uleb128 0xe
 6568 003b 0B       		.uleb128 0xb
 6569 003c 05       		.uleb128 0x5
 6570 003d 3A       		.uleb128 0x3a
ARM GAS  C:\Users\raytr\AppData\Local\Temp\ccu8NuaS.s 			page 141


 6571 003e 0B       		.uleb128 0xb
 6572 003f 3B       		.uleb128 0x3b
 6573 0040 0B       		.uleb128 0xb
 6574 0041 01       		.uleb128 0x1
 6575 0042 13       		.uleb128 0x13
 6576 0043 00       		.byte	0
 6577 0044 00       		.byte	0
 6578 0045 06       		.uleb128 0x6
 6579 0046 0D       		.uleb128 0xd
 6580 0047 00       		.byte	0
 6581 0048 03       		.uleb128 0x3
 6582 0049 0E       		.uleb128 0xe
 6583 004a 3A       		.uleb128 0x3a
 6584 004b 0B       		.uleb128 0xb
 6585 004c 3B       		.uleb128 0x3b
 6586 004d 0B       		.uleb128 0xb
 6587 004e 49       		.uleb128 0x49
 6588 004f 13       		.uleb128 0x13
 6589 0050 38       		.uleb128 0x38
 6590 0051 0B       		.uleb128 0xb
 6591 0052 00       		.byte	0
 6592 0053 00       		.byte	0
 6593 0054 07       		.uleb128 0x7
 6594 0055 0D       		.uleb128 0xd
 6595 0056 00       		.byte	0
 6596 0057 03       		.uleb128 0x3
 6597 0058 0E       		.uleb128 0xe
 6598 0059 3A       		.uleb128 0x3a
 6599 005a 0B       		.uleb128 0xb
 6600 005b 3B       		.uleb128 0x3b
 6601 005c 0B       		.uleb128 0xb
 6602 005d 49       		.uleb128 0x49
 6603 005e 13       		.uleb128 0x13
 6604 005f 38       		.uleb128 0x38
 6605 0060 05       		.uleb128 0x5
 6606 0061 00       		.byte	0
 6607 0062 00       		.byte	0
 6608 0063 08       		.uleb128 0x8
 6609 0064 01       		.uleb128 0x1
 6610 0065 01       		.byte	0x1
 6611 0066 49       		.uleb128 0x49
 6612 0067 13       		.uleb128 0x13
 6613 0068 01       		.uleb128 0x1
 6614 0069 13       		.uleb128 0x13
 6615 006a 00       		.byte	0
 6616 006b 00       		.byte	0
 6617 006c 09       		.uleb128 0x9
 6618 006d 21       		.uleb128 0x21
 6619 006e 00       		.byte	0
 6620 006f 49       		.uleb128 0x49
 6621 0070 13       		.uleb128 0x13
 6622 0071 2F       		.uleb128 0x2f
 6623 0072 05       		.uleb128 0x5
 6624 0073 00       		.byte	0
 6625 0074 00       		.byte	0
 6626 0075 0A       		.uleb128 0xa
 6627 0076 13       		.uleb128 0x13
ARM GAS  C:\Users\raytr\AppData\Local\Temp\ccu8NuaS.s 			page 142


 6628 0077 01       		.byte	0x1
 6629 0078 0B       		.uleb128 0xb
 6630 0079 0B       		.uleb128 0xb
 6631 007a 3A       		.uleb128 0x3a
 6632 007b 0B       		.uleb128 0xb
 6633 007c 3B       		.uleb128 0x3b
 6634 007d 0B       		.uleb128 0xb
 6635 007e 01       		.uleb128 0x1
 6636 007f 13       		.uleb128 0x13
 6637 0080 00       		.byte	0
 6638 0081 00       		.byte	0
 6639 0082 0B       		.uleb128 0xb
 6640 0083 0D       		.uleb128 0xd
 6641 0084 00       		.byte	0
 6642 0085 03       		.uleb128 0x3
 6643 0086 08       		.uleb128 0x8
 6644 0087 3A       		.uleb128 0x3a
 6645 0088 0B       		.uleb128 0xb
 6646 0089 3B       		.uleb128 0x3b
 6647 008a 0B       		.uleb128 0xb
 6648 008b 49       		.uleb128 0x49
 6649 008c 13       		.uleb128 0x13
 6650 008d 38       		.uleb128 0x38
 6651 008e 0B       		.uleb128 0xb
 6652 008f 00       		.byte	0
 6653 0090 00       		.byte	0
 6654 0091 0C       		.uleb128 0xc
 6655 0092 17       		.uleb128 0x17
 6656 0093 01       		.byte	0x1
 6657 0094 0B       		.uleb128 0xb
 6658 0095 0B       		.uleb128 0xb
 6659 0096 3A       		.uleb128 0x3a
 6660 0097 0B       		.uleb128 0xb
 6661 0098 3B       		.uleb128 0x3b
 6662 0099 0B       		.uleb128 0xb
 6663 009a 01       		.uleb128 0x1
 6664 009b 13       		.uleb128 0x13
 6665 009c 00       		.byte	0
 6666 009d 00       		.byte	0
 6667 009e 0D       		.uleb128 0xd
 6668 009f 0D       		.uleb128 0xd
 6669 00a0 00       		.byte	0
 6670 00a1 49       		.uleb128 0x49
 6671 00a2 13       		.uleb128 0x13
 6672 00a3 00       		.byte	0
 6673 00a4 00       		.byte	0
 6674 00a5 0E       		.uleb128 0xe
 6675 00a6 0D       		.uleb128 0xd
 6676 00a7 00       		.byte	0
 6677 00a8 03       		.uleb128 0x3
 6678 00a9 08       		.uleb128 0x8
 6679 00aa 3A       		.uleb128 0x3a
 6680 00ab 0B       		.uleb128 0xb
 6681 00ac 3B       		.uleb128 0x3b
 6682 00ad 0B       		.uleb128 0xb
 6683 00ae 49       		.uleb128 0x49
 6684 00af 13       		.uleb128 0x13
ARM GAS  C:\Users\raytr\AppData\Local\Temp\ccu8NuaS.s 			page 143


 6685 00b0 00       		.byte	0
 6686 00b1 00       		.byte	0
 6687 00b2 0F       		.uleb128 0xf
 6688 00b3 0D       		.uleb128 0xd
 6689 00b4 00       		.byte	0
 6690 00b5 49       		.uleb128 0x49
 6691 00b6 13       		.uleb128 0x13
 6692 00b7 38       		.uleb128 0x38
 6693 00b8 0B       		.uleb128 0xb
 6694 00b9 00       		.byte	0
 6695 00ba 00       		.byte	0
 6696 00bb 10       		.uleb128 0x10
 6697 00bc 13       		.uleb128 0x13
 6698 00bd 01       		.byte	0x1
 6699 00be 03       		.uleb128 0x3
 6700 00bf 0E       		.uleb128 0xe
 6701 00c0 0B       		.uleb128 0xb
 6702 00c1 0B       		.uleb128 0xb
 6703 00c2 3A       		.uleb128 0x3a
 6704 00c3 0B       		.uleb128 0xb
 6705 00c4 3B       		.uleb128 0x3b
 6706 00c5 0B       		.uleb128 0xb
 6707 00c6 01       		.uleb128 0x1
 6708 00c7 13       		.uleb128 0x13
 6709 00c8 00       		.byte	0
 6710 00c9 00       		.byte	0
 6711 00ca 11       		.uleb128 0x11
 6712 00cb 13       		.uleb128 0x13
 6713 00cc 01       		.byte	0x1
 6714 00cd 03       		.uleb128 0x3
 6715 00ce 08       		.uleb128 0x8
 6716 00cf 0B       		.uleb128 0xb
 6717 00d0 05       		.uleb128 0x5
 6718 00d1 3A       		.uleb128 0x3a
 6719 00d2 0B       		.uleb128 0xb
 6720 00d3 3B       		.uleb128 0x3b
 6721 00d4 0B       		.uleb128 0xb
 6722 00d5 01       		.uleb128 0x1
 6723 00d6 13       		.uleb128 0x13
 6724 00d7 00       		.byte	0
 6725 00d8 00       		.byte	0
 6726 00d9 12       		.uleb128 0x12
 6727 00da 16       		.uleb128 0x16
 6728 00db 00       		.byte	0
 6729 00dc 03       		.uleb128 0x3
 6730 00dd 08       		.uleb128 0x8
 6731 00de 3A       		.uleb128 0x3a
 6732 00df 0B       		.uleb128 0xb
 6733 00e0 3B       		.uleb128 0x3b
 6734 00e1 0B       		.uleb128 0xb
 6735 00e2 49       		.uleb128 0x49
 6736 00e3 13       		.uleb128 0x13
 6737 00e4 00       		.byte	0
 6738 00e5 00       		.byte	0
 6739 00e6 13       		.uleb128 0x13
 6740 00e7 2E       		.uleb128 0x2e
 6741 00e8 01       		.byte	0x1
ARM GAS  C:\Users\raytr\AppData\Local\Temp\ccu8NuaS.s 			page 144


 6742 00e9 03       		.uleb128 0x3
 6743 00ea 0E       		.uleb128 0xe
 6744 00eb 3A       		.uleb128 0x3a
 6745 00ec 0B       		.uleb128 0xb
 6746 00ed 3B       		.uleb128 0x3b
 6747 00ee 0B       		.uleb128 0xb
 6748 00ef 27       		.uleb128 0x27
 6749 00f0 19       		.uleb128 0x19
 6750 00f1 49       		.uleb128 0x49
 6751 00f2 13       		.uleb128 0x13
 6752 00f3 20       		.uleb128 0x20
 6753 00f4 0B       		.uleb128 0xb
 6754 00f5 01       		.uleb128 0x1
 6755 00f6 13       		.uleb128 0x13
 6756 00f7 00       		.byte	0
 6757 00f8 00       		.byte	0
 6758 00f9 14       		.uleb128 0x14
 6759 00fa 05       		.uleb128 0x5
 6760 00fb 00       		.byte	0
 6761 00fc 03       		.uleb128 0x3
 6762 00fd 08       		.uleb128 0x8
 6763 00fe 3A       		.uleb128 0x3a
 6764 00ff 0B       		.uleb128 0xb
 6765 0100 3B       		.uleb128 0x3b
 6766 0101 0B       		.uleb128 0xb
 6767 0102 49       		.uleb128 0x49
 6768 0103 13       		.uleb128 0x13
 6769 0104 00       		.byte	0
 6770 0105 00       		.byte	0
 6771 0106 15       		.uleb128 0x15
 6772 0107 05       		.uleb128 0x5
 6773 0108 00       		.byte	0
 6774 0109 03       		.uleb128 0x3
 6775 010a 0E       		.uleb128 0xe
 6776 010b 3A       		.uleb128 0x3a
 6777 010c 0B       		.uleb128 0xb
 6778 010d 3B       		.uleb128 0x3b
 6779 010e 0B       		.uleb128 0xb
 6780 010f 49       		.uleb128 0x49
 6781 0110 13       		.uleb128 0x13
 6782 0111 00       		.byte	0
 6783 0112 00       		.byte	0
 6784 0113 16       		.uleb128 0x16
 6785 0114 0F       		.uleb128 0xf
 6786 0115 00       		.byte	0
 6787 0116 0B       		.uleb128 0xb
 6788 0117 0B       		.uleb128 0xb
 6789 0118 49       		.uleb128 0x49
 6790 0119 13       		.uleb128 0x13
 6791 011a 00       		.byte	0
 6792 011b 00       		.byte	0
 6793 011c 17       		.uleb128 0x17
 6794 011d 2E       		.uleb128 0x2e
 6795 011e 01       		.byte	0x1
 6796 011f 03       		.uleb128 0x3
 6797 0120 0E       		.uleb128 0xe
 6798 0121 3A       		.uleb128 0x3a
ARM GAS  C:\Users\raytr\AppData\Local\Temp\ccu8NuaS.s 			page 145


 6799 0122 0B       		.uleb128 0xb
 6800 0123 3B       		.uleb128 0x3b
 6801 0124 0B       		.uleb128 0xb
 6802 0125 27       		.uleb128 0x27
 6803 0126 19       		.uleb128 0x19
 6804 0127 11       		.uleb128 0x11
 6805 0128 01       		.uleb128 0x1
 6806 0129 12       		.uleb128 0x12
 6807 012a 06       		.uleb128 0x6
 6808 012b 40       		.uleb128 0x40
 6809 012c 18       		.uleb128 0x18
 6810 012d 9742     		.uleb128 0x2117
 6811 012f 19       		.uleb128 0x19
 6812 0130 01       		.uleb128 0x1
 6813 0131 13       		.uleb128 0x13
 6814 0132 00       		.byte	0
 6815 0133 00       		.byte	0
 6816 0134 18       		.uleb128 0x18
 6817 0135 05       		.uleb128 0x5
 6818 0136 00       		.byte	0
 6819 0137 03       		.uleb128 0x3
 6820 0138 08       		.uleb128 0x8
 6821 0139 3A       		.uleb128 0x3a
 6822 013a 0B       		.uleb128 0xb
 6823 013b 3B       		.uleb128 0x3b
 6824 013c 0B       		.uleb128 0xb
 6825 013d 49       		.uleb128 0x49
 6826 013e 13       		.uleb128 0x13
 6827 013f 02       		.uleb128 0x2
 6828 0140 18       		.uleb128 0x18
 6829 0141 00       		.byte	0
 6830 0142 00       		.byte	0
 6831 0143 19       		.uleb128 0x19
 6832 0144 05       		.uleb128 0x5
 6833 0145 00       		.byte	0
 6834 0146 03       		.uleb128 0x3
 6835 0147 0E       		.uleb128 0xe
 6836 0148 3A       		.uleb128 0x3a
 6837 0149 0B       		.uleb128 0xb
 6838 014a 3B       		.uleb128 0x3b
 6839 014b 0B       		.uleb128 0xb
 6840 014c 49       		.uleb128 0x49
 6841 014d 13       		.uleb128 0x13
 6842 014e 02       		.uleb128 0x2
 6843 014f 17       		.uleb128 0x17
 6844 0150 00       		.byte	0
 6845 0151 00       		.byte	0
 6846 0152 1A       		.uleb128 0x1a
 6847 0153 2E       		.uleb128 0x2e
 6848 0154 01       		.byte	0x1
 6849 0155 03       		.uleb128 0x3
 6850 0156 0E       		.uleb128 0xe
 6851 0157 3A       		.uleb128 0x3a
 6852 0158 0B       		.uleb128 0xb
 6853 0159 3B       		.uleb128 0x3b
 6854 015a 0B       		.uleb128 0xb
 6855 015b 27       		.uleb128 0x27
ARM GAS  C:\Users\raytr\AppData\Local\Temp\ccu8NuaS.s 			page 146


 6856 015c 19       		.uleb128 0x19
 6857 015d 49       		.uleb128 0x49
 6858 015e 13       		.uleb128 0x13
 6859 015f 11       		.uleb128 0x11
 6860 0160 01       		.uleb128 0x1
 6861 0161 12       		.uleb128 0x12
 6862 0162 06       		.uleb128 0x6
 6863 0163 40       		.uleb128 0x40
 6864 0164 18       		.uleb128 0x18
 6865 0165 9742     		.uleb128 0x2117
 6866 0167 19       		.uleb128 0x19
 6867 0168 01       		.uleb128 0x1
 6868 0169 13       		.uleb128 0x13
 6869 016a 00       		.byte	0
 6870 016b 00       		.byte	0
 6871 016c 1B       		.uleb128 0x1b
 6872 016d 05       		.uleb128 0x5
 6873 016e 00       		.byte	0
 6874 016f 03       		.uleb128 0x3
 6875 0170 08       		.uleb128 0x8
 6876 0171 3A       		.uleb128 0x3a
 6877 0172 0B       		.uleb128 0xb
 6878 0173 3B       		.uleb128 0x3b
 6879 0174 0B       		.uleb128 0xb
 6880 0175 49       		.uleb128 0x49
 6881 0176 13       		.uleb128 0x13
 6882 0177 02       		.uleb128 0x2
 6883 0178 17       		.uleb128 0x17
 6884 0179 00       		.byte	0
 6885 017a 00       		.byte	0
 6886 017b 1C       		.uleb128 0x1c
 6887 017c 34       		.uleb128 0x34
 6888 017d 00       		.byte	0
 6889 017e 03       		.uleb128 0x3
 6890 017f 0E       		.uleb128 0xe
 6891 0180 3A       		.uleb128 0x3a
 6892 0181 0B       		.uleb128 0xb
 6893 0182 3B       		.uleb128 0x3b
 6894 0183 0B       		.uleb128 0xb
 6895 0184 49       		.uleb128 0x49
 6896 0185 13       		.uleb128 0x13
 6897 0186 02       		.uleb128 0x2
 6898 0187 18       		.uleb128 0x18
 6899 0188 00       		.byte	0
 6900 0189 00       		.byte	0
 6901 018a 1D       		.uleb128 0x1d
 6902 018b 898201   		.uleb128 0x4109
 6903 018e 01       		.byte	0x1
 6904 018f 11       		.uleb128 0x11
 6905 0190 01       		.uleb128 0x1
 6906 0191 31       		.uleb128 0x31
 6907 0192 13       		.uleb128 0x13
 6908 0193 01       		.uleb128 0x1
 6909 0194 13       		.uleb128 0x13
 6910 0195 00       		.byte	0
 6911 0196 00       		.byte	0
 6912 0197 1E       		.uleb128 0x1e
ARM GAS  C:\Users\raytr\AppData\Local\Temp\ccu8NuaS.s 			page 147


 6913 0198 8A8201   		.uleb128 0x410a
 6914 019b 00       		.byte	0
 6915 019c 02       		.uleb128 0x2
 6916 019d 18       		.uleb128 0x18
 6917 019e 9142     		.uleb128 0x2111
 6918 01a0 18       		.uleb128 0x18
 6919 01a1 00       		.byte	0
 6920 01a2 00       		.byte	0
 6921 01a3 1F       		.uleb128 0x1f
 6922 01a4 898201   		.uleb128 0x4109
 6923 01a7 01       		.byte	0x1
 6924 01a8 11       		.uleb128 0x11
 6925 01a9 01       		.uleb128 0x1
 6926 01aa 31       		.uleb128 0x31
 6927 01ab 13       		.uleb128 0x13
 6928 01ac 00       		.byte	0
 6929 01ad 00       		.byte	0
 6930 01ae 20       		.uleb128 0x20
 6931 01af 34       		.uleb128 0x34
 6932 01b0 00       		.byte	0
 6933 01b1 03       		.uleb128 0x3
 6934 01b2 0E       		.uleb128 0xe
 6935 01b3 3A       		.uleb128 0x3a
 6936 01b4 0B       		.uleb128 0xb
 6937 01b5 3B       		.uleb128 0x3b
 6938 01b6 0B       		.uleb128 0xb
 6939 01b7 49       		.uleb128 0x49
 6940 01b8 13       		.uleb128 0x13
 6941 01b9 02       		.uleb128 0x2
 6942 01ba 17       		.uleb128 0x17
 6943 01bb 00       		.byte	0
 6944 01bc 00       		.byte	0
 6945 01bd 21       		.uleb128 0x21
 6946 01be 2E       		.uleb128 0x2e
 6947 01bf 01       		.byte	0x1
 6948 01c0 3F       		.uleb128 0x3f
 6949 01c1 19       		.uleb128 0x19
 6950 01c2 03       		.uleb128 0x3
 6951 01c3 0E       		.uleb128 0xe
 6952 01c4 3A       		.uleb128 0x3a
 6953 01c5 0B       		.uleb128 0xb
 6954 01c6 3B       		.uleb128 0x3b
 6955 01c7 0B       		.uleb128 0xb
 6956 01c8 27       		.uleb128 0x27
 6957 01c9 19       		.uleb128 0x19
 6958 01ca 49       		.uleb128 0x49
 6959 01cb 13       		.uleb128 0x13
 6960 01cc 11       		.uleb128 0x11
 6961 01cd 01       		.uleb128 0x1
 6962 01ce 12       		.uleb128 0x12
 6963 01cf 06       		.uleb128 0x6
 6964 01d0 40       		.uleb128 0x40
 6965 01d1 18       		.uleb128 0x18
 6966 01d2 9742     		.uleb128 0x2117
 6967 01d4 19       		.uleb128 0x19
 6968 01d5 01       		.uleb128 0x1
 6969 01d6 13       		.uleb128 0x13
ARM GAS  C:\Users\raytr\AppData\Local\Temp\ccu8NuaS.s 			page 148


 6970 01d7 00       		.byte	0
 6971 01d8 00       		.byte	0
 6972 01d9 22       		.uleb128 0x22
 6973 01da 2E       		.uleb128 0x2e
 6974 01db 01       		.byte	0x1
 6975 01dc 3F       		.uleb128 0x3f
 6976 01dd 19       		.uleb128 0x19
 6977 01de 03       		.uleb128 0x3
 6978 01df 0E       		.uleb128 0xe
 6979 01e0 3A       		.uleb128 0x3a
 6980 01e1 0B       		.uleb128 0xb
 6981 01e2 3B       		.uleb128 0x3b
 6982 01e3 0B       		.uleb128 0xb
 6983 01e4 27       		.uleb128 0x27
 6984 01e5 19       		.uleb128 0x19
 6985 01e6 11       		.uleb128 0x11
 6986 01e7 01       		.uleb128 0x1
 6987 01e8 12       		.uleb128 0x12
 6988 01e9 06       		.uleb128 0x6
 6989 01ea 40       		.uleb128 0x40
 6990 01eb 18       		.uleb128 0x18
 6991 01ec 9742     		.uleb128 0x2117
 6992 01ee 19       		.uleb128 0x19
 6993 01ef 01       		.uleb128 0x1
 6994 01f0 13       		.uleb128 0x13
 6995 01f1 00       		.byte	0
 6996 01f2 00       		.byte	0
 6997 01f3 23       		.uleb128 0x23
 6998 01f4 0B       		.uleb128 0xb
 6999 01f5 01       		.byte	0x1
 7000 01f6 11       		.uleb128 0x11
 7001 01f7 01       		.uleb128 0x1
 7002 01f8 12       		.uleb128 0x12
 7003 01f9 06       		.uleb128 0x6
 7004 01fa 00       		.byte	0
 7005 01fb 00       		.byte	0
 7006 01fc 24       		.uleb128 0x24
 7007 01fd 34       		.uleb128 0x34
 7008 01fe 00       		.byte	0
 7009 01ff 03       		.uleb128 0x3
 7010 0200 0E       		.uleb128 0xe
 7011 0201 3A       		.uleb128 0x3a
 7012 0202 0B       		.uleb128 0xb
 7013 0203 3B       		.uleb128 0x3b
 7014 0204 05       		.uleb128 0x5
 7015 0205 49       		.uleb128 0x49
 7016 0206 13       		.uleb128 0x13
 7017 0207 02       		.uleb128 0x2
 7018 0208 17       		.uleb128 0x17
 7019 0209 00       		.byte	0
 7020 020a 00       		.byte	0
 7021 020b 25       		.uleb128 0x25
 7022 020c 34       		.uleb128 0x34
 7023 020d 00       		.byte	0
 7024 020e 03       		.uleb128 0x3
 7025 020f 0E       		.uleb128 0xe
 7026 0210 3A       		.uleb128 0x3a
ARM GAS  C:\Users\raytr\AppData\Local\Temp\ccu8NuaS.s 			page 149


 7027 0211 0B       		.uleb128 0xb
 7028 0212 3B       		.uleb128 0x3b
 7029 0213 05       		.uleb128 0x5
 7030 0214 49       		.uleb128 0x49
 7031 0215 13       		.uleb128 0x13
 7032 0216 00       		.byte	0
 7033 0217 00       		.byte	0
 7034 0218 26       		.uleb128 0x26
 7035 0219 1D       		.uleb128 0x1d
 7036 021a 01       		.byte	0x1
 7037 021b 31       		.uleb128 0x31
 7038 021c 13       		.uleb128 0x13
 7039 021d 11       		.uleb128 0x11
 7040 021e 01       		.uleb128 0x1
 7041 021f 12       		.uleb128 0x12
 7042 0220 06       		.uleb128 0x6
 7043 0221 58       		.uleb128 0x58
 7044 0222 0B       		.uleb128 0xb
 7045 0223 59       		.uleb128 0x59
 7046 0224 0B       		.uleb128 0xb
 7047 0225 01       		.uleb128 0x1
 7048 0226 13       		.uleb128 0x13
 7049 0227 00       		.byte	0
 7050 0228 00       		.byte	0
 7051 0229 27       		.uleb128 0x27
 7052 022a 05       		.uleb128 0x5
 7053 022b 00       		.byte	0
 7054 022c 31       		.uleb128 0x31
 7055 022d 13       		.uleb128 0x13
 7056 022e 02       		.uleb128 0x2
 7057 022f 17       		.uleb128 0x17
 7058 0230 00       		.byte	0
 7059 0231 00       		.byte	0
 7060 0232 28       		.uleb128 0x28
 7061 0233 1D       		.uleb128 0x1d
 7062 0234 01       		.byte	0x1
 7063 0235 31       		.uleb128 0x31
 7064 0236 13       		.uleb128 0x13
 7065 0237 11       		.uleb128 0x11
 7066 0238 01       		.uleb128 0x1
 7067 0239 12       		.uleb128 0x12
 7068 023a 06       		.uleb128 0x6
 7069 023b 58       		.uleb128 0x58
 7070 023c 0B       		.uleb128 0xb
 7071 023d 59       		.uleb128 0x59
 7072 023e 05       		.uleb128 0x5
 7073 023f 01       		.uleb128 0x1
 7074 0240 13       		.uleb128 0x13
 7075 0241 00       		.byte	0
 7076 0242 00       		.byte	0
 7077 0243 29       		.uleb128 0x29
 7078 0244 898201   		.uleb128 0x4109
 7079 0247 00       		.byte	0
 7080 0248 11       		.uleb128 0x11
 7081 0249 01       		.uleb128 0x1
 7082 024a 31       		.uleb128 0x31
 7083 024b 13       		.uleb128 0x13
ARM GAS  C:\Users\raytr\AppData\Local\Temp\ccu8NuaS.s 			page 150


 7084 024c 00       		.byte	0
 7085 024d 00       		.byte	0
 7086 024e 2A       		.uleb128 0x2a
 7087 024f 2E       		.uleb128 0x2e
 7088 0250 01       		.byte	0x1
 7089 0251 3F       		.uleb128 0x3f
 7090 0252 19       		.uleb128 0x19
 7091 0253 03       		.uleb128 0x3
 7092 0254 0E       		.uleb128 0xe
 7093 0255 3A       		.uleb128 0x3a
 7094 0256 0B       		.uleb128 0xb
 7095 0257 3B       		.uleb128 0x3b
 7096 0258 05       		.uleb128 0x5
 7097 0259 27       		.uleb128 0x27
 7098 025a 19       		.uleb128 0x19
 7099 025b 49       		.uleb128 0x49
 7100 025c 13       		.uleb128 0x13
 7101 025d 11       		.uleb128 0x11
 7102 025e 01       		.uleb128 0x1
 7103 025f 12       		.uleb128 0x12
 7104 0260 06       		.uleb128 0x6
 7105 0261 40       		.uleb128 0x40
 7106 0262 18       		.uleb128 0x18
 7107 0263 9742     		.uleb128 0x2117
 7108 0265 19       		.uleb128 0x19
 7109 0266 01       		.uleb128 0x1
 7110 0267 13       		.uleb128 0x13
 7111 0268 00       		.byte	0
 7112 0269 00       		.byte	0
 7113 026a 2B       		.uleb128 0x2b
 7114 026b 05       		.uleb128 0x5
 7115 026c 00       		.byte	0
 7116 026d 03       		.uleb128 0x3
 7117 026e 08       		.uleb128 0x8
 7118 026f 3A       		.uleb128 0x3a
 7119 0270 0B       		.uleb128 0xb
 7120 0271 3B       		.uleb128 0x3b
 7121 0272 05       		.uleb128 0x5
 7122 0273 49       		.uleb128 0x49
 7123 0274 13       		.uleb128 0x13
 7124 0275 02       		.uleb128 0x2
 7125 0276 17       		.uleb128 0x17
 7126 0277 00       		.byte	0
 7127 0278 00       		.byte	0
 7128 0279 2C       		.uleb128 0x2c
 7129 027a 05       		.uleb128 0x5
 7130 027b 00       		.byte	0
 7131 027c 03       		.uleb128 0x3
 7132 027d 0E       		.uleb128 0xe
 7133 027e 3A       		.uleb128 0x3a
 7134 027f 0B       		.uleb128 0xb
 7135 0280 3B       		.uleb128 0x3b
 7136 0281 05       		.uleb128 0x5
 7137 0282 49       		.uleb128 0x49
 7138 0283 13       		.uleb128 0x13
 7139 0284 02       		.uleb128 0x2
 7140 0285 18       		.uleb128 0x18
ARM GAS  C:\Users\raytr\AppData\Local\Temp\ccu8NuaS.s 			page 151


 7141 0286 00       		.byte	0
 7142 0287 00       		.byte	0
 7143 0288 2D       		.uleb128 0x2d
 7144 0289 05       		.uleb128 0x5
 7145 028a 00       		.byte	0
 7146 028b 03       		.uleb128 0x3
 7147 028c 0E       		.uleb128 0xe
 7148 028d 3A       		.uleb128 0x3a
 7149 028e 0B       		.uleb128 0xb
 7150 028f 3B       		.uleb128 0x3b
 7151 0290 05       		.uleb128 0x5
 7152 0291 49       		.uleb128 0x49
 7153 0292 13       		.uleb128 0x13
 7154 0293 02       		.uleb128 0x2
 7155 0294 17       		.uleb128 0x17
 7156 0295 00       		.byte	0
 7157 0296 00       		.byte	0
 7158 0297 2E       		.uleb128 0x2e
 7159 0298 0B       		.uleb128 0xb
 7160 0299 01       		.byte	0x1
 7161 029a 11       		.uleb128 0x11
 7162 029b 01       		.uleb128 0x1
 7163 029c 12       		.uleb128 0x12
 7164 029d 06       		.uleb128 0x6
 7165 029e 01       		.uleb128 0x1
 7166 029f 13       		.uleb128 0x13
 7167 02a0 00       		.byte	0
 7168 02a1 00       		.byte	0
 7169 02a2 2F       		.uleb128 0x2f
 7170 02a3 2E       		.uleb128 0x2e
 7171 02a4 01       		.byte	0x1
 7172 02a5 3F       		.uleb128 0x3f
 7173 02a6 19       		.uleb128 0x19
 7174 02a7 03       		.uleb128 0x3
 7175 02a8 0E       		.uleb128 0xe
 7176 02a9 3A       		.uleb128 0x3a
 7177 02aa 0B       		.uleb128 0xb
 7178 02ab 3B       		.uleb128 0x3b
 7179 02ac 0B       		.uleb128 0xb
 7180 02ad 27       		.uleb128 0x27
 7181 02ae 19       		.uleb128 0x19
 7182 02af 49       		.uleb128 0x49
 7183 02b0 13       		.uleb128 0x13
 7184 02b1 3C       		.uleb128 0x3c
 7185 02b2 19       		.uleb128 0x19
 7186 02b3 01       		.uleb128 0x1
 7187 02b4 13       		.uleb128 0x13
 7188 02b5 00       		.byte	0
 7189 02b6 00       		.byte	0
 7190 02b7 30       		.uleb128 0x30
 7191 02b8 05       		.uleb128 0x5
 7192 02b9 00       		.byte	0
 7193 02ba 49       		.uleb128 0x49
 7194 02bb 13       		.uleb128 0x13
 7195 02bc 00       		.byte	0
 7196 02bd 00       		.byte	0
 7197 02be 31       		.uleb128 0x31
ARM GAS  C:\Users\raytr\AppData\Local\Temp\ccu8NuaS.s 			page 152


 7198 02bf 2E       		.uleb128 0x2e
 7199 02c0 01       		.byte	0x1
 7200 02c1 3F       		.uleb128 0x3f
 7201 02c2 19       		.uleb128 0x19
 7202 02c3 03       		.uleb128 0x3
 7203 02c4 0E       		.uleb128 0xe
 7204 02c5 3A       		.uleb128 0x3a
 7205 02c6 0B       		.uleb128 0xb
 7206 02c7 3B       		.uleb128 0x3b
 7207 02c8 0B       		.uleb128 0xb
 7208 02c9 27       		.uleb128 0x27
 7209 02ca 19       		.uleb128 0x19
 7210 02cb 3C       		.uleb128 0x3c
 7211 02cc 19       		.uleb128 0x19
 7212 02cd 01       		.uleb128 0x1
 7213 02ce 13       		.uleb128 0x13
 7214 02cf 00       		.byte	0
 7215 02d0 00       		.byte	0
 7216 02d1 32       		.uleb128 0x32
 7217 02d2 2E       		.uleb128 0x2e
 7218 02d3 01       		.byte	0x1
 7219 02d4 3F       		.uleb128 0x3f
 7220 02d5 19       		.uleb128 0x19
 7221 02d6 03       		.uleb128 0x3
 7222 02d7 0E       		.uleb128 0xe
 7223 02d8 3A       		.uleb128 0x3a
 7224 02d9 0B       		.uleb128 0xb
 7225 02da 3B       		.uleb128 0x3b
 7226 02db 0B       		.uleb128 0xb
 7227 02dc 27       		.uleb128 0x27
 7228 02dd 19       		.uleb128 0x19
 7229 02de 49       		.uleb128 0x49
 7230 02df 13       		.uleb128 0x13
 7231 02e0 3C       		.uleb128 0x3c
 7232 02e1 19       		.uleb128 0x19
 7233 02e2 00       		.byte	0
 7234 02e3 00       		.byte	0
 7235 02e4 00       		.byte	0
 7236              		.section	.debug_loc,"",%progbits
 7237              	.Ldebug_loc0:
 7238              	.LLST0:
 7239 0000 00000000 		.4byte	.LVL1
 7240 0004 02000000 		.4byte	.LVL2
 7241 0008 0100     		.2byte	0x1
 7242 000a 51       		.byte	0x51
 7243 000b 02000000 		.4byte	.LVL2
 7244 000f 14000000 		.4byte	.LFE3
 7245 0013 0400     		.2byte	0x4
 7246 0015 F3       		.byte	0xf3
 7247 0016 01       		.uleb128 0x1
 7248 0017 51       		.byte	0x51
 7249 0018 9F       		.byte	0x9f
 7250 0019 00000000 		.4byte	0
 7251 001d 00000000 		.4byte	0
 7252              	.LLST1:
 7253 0021 00000000 		.4byte	.LVL3
 7254 0025 06000000 		.4byte	.LVL4
ARM GAS  C:\Users\raytr\AppData\Local\Temp\ccu8NuaS.s 			page 153


 7255 0029 0100     		.2byte	0x1
 7256 002b 50       		.byte	0x50
 7257 002c 06000000 		.4byte	.LVL4
 7258 0030 1E000000 		.4byte	.LFE4
 7259 0034 0100     		.2byte	0x1
 7260 0036 54       		.byte	0x54
 7261 0037 00000000 		.4byte	0
 7262 003b 00000000 		.4byte	0
 7263              	.LLST2:
 7264 003f 00000000 		.4byte	.LVL8
 7265 0043 07000000 		.4byte	.LVL9-1
 7266 0047 0100     		.2byte	0x1
 7267 0049 50       		.byte	0x50
 7268 004a 07000000 		.4byte	.LVL9-1
 7269 004e 18000000 		.4byte	.LFE5
 7270 0052 0100     		.2byte	0x1
 7271 0054 55       		.byte	0x55
 7272 0055 00000000 		.4byte	0
 7273 0059 00000000 		.4byte	0
 7274              	.LLST3:
 7275 005d 10000000 		.4byte	.LVL11
 7276 0061 14000000 		.4byte	.LVL12
 7277 0065 0100     		.2byte	0x1
 7278 0067 50       		.byte	0x50
 7279 0068 00000000 		.4byte	0
 7280 006c 00000000 		.4byte	0
 7281              	.LLST4:
 7282 0070 00000000 		.4byte	.LVL14
 7283 0074 0E000000 		.4byte	.LVL15
 7284 0078 0100     		.2byte	0x1
 7285 007a 50       		.byte	0x50
 7286 007b 0E000000 		.4byte	.LVL15
 7287 007f 1A000000 		.4byte	.LFE1
 7288 0083 0100     		.2byte	0x1
 7289 0085 54       		.byte	0x54
 7290 0086 00000000 		.4byte	0
 7291 008a 00000000 		.4byte	0
 7292              	.LLST5:
 7293 008e 00000000 		.4byte	.LVL18
 7294 0092 10020000 		.4byte	.LVL21
 7295 0096 0100     		.2byte	0x1
 7296 0098 50       		.byte	0x50
 7297 0099 10020000 		.4byte	.LVL21
 7298 009d 12020000 		.4byte	.LVL22
 7299 00a1 0100     		.2byte	0x1
 7300 00a3 54       		.byte	0x54
 7301 00a4 12020000 		.4byte	.LVL22
 7302 00a8 15020000 		.4byte	.LVL23-1
 7303 00ac 0100     		.2byte	0x1
 7304 00ae 50       		.byte	0x50
 7305 00af 15020000 		.4byte	.LVL23-1
 7306 00b3 24020000 		.4byte	.LVL25
 7307 00b7 0100     		.2byte	0x1
 7308 00b9 54       		.byte	0x54
 7309 00ba 24020000 		.4byte	.LVL25
 7310 00be 26020000 		.4byte	.LVL26
 7311 00c2 0100     		.2byte	0x1
ARM GAS  C:\Users\raytr\AppData\Local\Temp\ccu8NuaS.s 			page 154


 7312 00c4 50       		.byte	0x50
 7313 00c5 26020000 		.4byte	.LVL26
 7314 00c9 32020000 		.4byte	.LVL28
 7315 00cd 0100     		.2byte	0x1
 7316 00cf 54       		.byte	0x54
 7317 00d0 32020000 		.4byte	.LVL28
 7318 00d4 3A020000 		.4byte	.LVL29
 7319 00d8 0100     		.2byte	0x1
 7320 00da 50       		.byte	0x50
 7321 00db 3A020000 		.4byte	.LVL29
 7322 00df 3C020000 		.4byte	.LVL30
 7323 00e3 0100     		.2byte	0x1
 7324 00e5 54       		.byte	0x54
 7325 00e6 3C020000 		.4byte	.LVL30
 7326 00ea 3F020000 		.4byte	.LVL31-1
 7327 00ee 0100     		.2byte	0x1
 7328 00f0 50       		.byte	0x50
 7329 00f1 3F020000 		.4byte	.LVL31-1
 7330 00f5 46020000 		.4byte	.LVL32
 7331 00f9 0100     		.2byte	0x1
 7332 00fb 54       		.byte	0x54
 7333 00fc 46020000 		.4byte	.LVL32
 7334 0100 49020000 		.4byte	.LVL33-1
 7335 0104 0100     		.2byte	0x1
 7336 0106 50       		.byte	0x50
 7337 0107 49020000 		.4byte	.LVL33-1
 7338 010b 6A020000 		.4byte	.LVL37
 7339 010f 0100     		.2byte	0x1
 7340 0111 54       		.byte	0x54
 7341 0112 6A020000 		.4byte	.LVL37
 7342 0116 74020000 		.4byte	.LVL40
 7343 011a 0100     		.2byte	0x1
 7344 011c 50       		.byte	0x50
 7345 011d 74020000 		.4byte	.LVL40
 7346 0121 76020000 		.4byte	.LVL41
 7347 0125 0100     		.2byte	0x1
 7348 0127 54       		.byte	0x54
 7349 0128 76020000 		.4byte	.LVL41
 7350 012c 78020000 		.4byte	.LVL42
 7351 0130 0100     		.2byte	0x1
 7352 0132 50       		.byte	0x50
 7353 0133 78020000 		.4byte	.LVL42
 7354 0137 8A020000 		.4byte	.LVL44
 7355 013b 0100     		.2byte	0x1
 7356 013d 54       		.byte	0x54
 7357 013e 8A020000 		.4byte	.LVL44
 7358 0142 92020000 		.4byte	.LVL45
 7359 0146 0100     		.2byte	0x1
 7360 0148 50       		.byte	0x50
 7361 0149 92020000 		.4byte	.LVL45
 7362 014d 94020000 		.4byte	.LVL46
 7363 0151 0100     		.2byte	0x1
 7364 0153 54       		.byte	0x54
 7365 0154 94020000 		.4byte	.LVL46
 7366 0158 97020000 		.4byte	.LVL47-1
 7367 015c 0100     		.2byte	0x1
 7368 015e 50       		.byte	0x50
ARM GAS  C:\Users\raytr\AppData\Local\Temp\ccu8NuaS.s 			page 155


 7369 015f 97020000 		.4byte	.LVL47-1
 7370 0163 9E020000 		.4byte	.LVL48
 7371 0167 0100     		.2byte	0x1
 7372 0169 54       		.byte	0x54
 7373 016a 9E020000 		.4byte	.LVL48
 7374 016e A1020000 		.4byte	.LVL49-1
 7375 0172 0100     		.2byte	0x1
 7376 0174 50       		.byte	0x50
 7377 0175 A1020000 		.4byte	.LVL49-1
 7378 0179 B0020000 		.4byte	.LVL51
 7379 017d 0100     		.2byte	0x1
 7380 017f 54       		.byte	0x54
 7381 0180 B0020000 		.4byte	.LVL51
 7382 0184 B2020000 		.4byte	.LVL52
 7383 0188 0100     		.2byte	0x1
 7384 018a 50       		.byte	0x50
 7385 018b B2020000 		.4byte	.LVL52
 7386 018f BE020000 		.4byte	.LVL54
 7387 0193 0100     		.2byte	0x1
 7388 0195 54       		.byte	0x54
 7389 0196 BE020000 		.4byte	.LVL54
 7390 019a C6020000 		.4byte	.LVL55
 7391 019e 0100     		.2byte	0x1
 7392 01a0 50       		.byte	0x50
 7393 01a1 C6020000 		.4byte	.LVL55
 7394 01a5 C8020000 		.4byte	.LVL56
 7395 01a9 0100     		.2byte	0x1
 7396 01ab 54       		.byte	0x54
 7397 01ac C8020000 		.4byte	.LVL56
 7398 01b0 CB020000 		.4byte	.LVL57-1
 7399 01b4 0100     		.2byte	0x1
 7400 01b6 50       		.byte	0x50
 7401 01b7 CB020000 		.4byte	.LVL57-1
 7402 01bb D2020000 		.4byte	.LVL58
 7403 01bf 0100     		.2byte	0x1
 7404 01c1 54       		.byte	0x54
 7405 01c2 D2020000 		.4byte	.LVL58
 7406 01c6 D5020000 		.4byte	.LVL59-1
 7407 01ca 0100     		.2byte	0x1
 7408 01cc 50       		.byte	0x50
 7409 01cd D5020000 		.4byte	.LVL59-1
 7410 01d1 E6020000 		.4byte	.LVL63
 7411 01d5 0100     		.2byte	0x1
 7412 01d7 54       		.byte	0x54
 7413 01d8 E6020000 		.4byte	.LVL63
 7414 01dc F0020000 		.4byte	.LVL66
 7415 01e0 0100     		.2byte	0x1
 7416 01e2 50       		.byte	0x50
 7417 01e3 F0020000 		.4byte	.LVL66
 7418 01e7 F2020000 		.4byte	.LVL67
 7419 01eb 0100     		.2byte	0x1
 7420 01ed 54       		.byte	0x54
 7421 01ee F2020000 		.4byte	.LVL67
 7422 01f2 F4020000 		.4byte	.LVL68
 7423 01f6 0100     		.2byte	0x1
 7424 01f8 50       		.byte	0x50
 7425 01f9 F4020000 		.4byte	.LVL68
ARM GAS  C:\Users\raytr\AppData\Local\Temp\ccu8NuaS.s 			page 156


 7426 01fd 06030000 		.4byte	.LVL70
 7427 0201 0100     		.2byte	0x1
 7428 0203 54       		.byte	0x54
 7429 0204 06030000 		.4byte	.LVL70
 7430 0208 0E030000 		.4byte	.LVL71
 7431 020c 0100     		.2byte	0x1
 7432 020e 50       		.byte	0x50
 7433 020f 0E030000 		.4byte	.LVL71
 7434 0213 10030000 		.4byte	.LVL72
 7435 0217 0100     		.2byte	0x1
 7436 0219 54       		.byte	0x54
 7437 021a 10030000 		.4byte	.LVL72
 7438 021e 13030000 		.4byte	.LVL73-1
 7439 0222 0100     		.2byte	0x1
 7440 0224 50       		.byte	0x50
 7441 0225 13030000 		.4byte	.LVL73-1
 7442 0229 1A030000 		.4byte	.LVL74
 7443 022d 0100     		.2byte	0x1
 7444 022f 54       		.byte	0x54
 7445 0230 1A030000 		.4byte	.LVL74
 7446 0234 1D030000 		.4byte	.LVL75-1
 7447 0238 0100     		.2byte	0x1
 7448 023a 50       		.byte	0x50
 7449 023b 1D030000 		.4byte	.LVL75-1
 7450 023f 3C030000 		.4byte	.LVL81
 7451 0243 0100     		.2byte	0x1
 7452 0245 54       		.byte	0x54
 7453 0246 3C030000 		.4byte	.LVL81
 7454 024a 3F030000 		.4byte	.LVL82-1
 7455 024e 0100     		.2byte	0x1
 7456 0250 50       		.byte	0x50
 7457 0251 3F030000 		.4byte	.LVL82-1
 7458 0255 4E030000 		.4byte	.LVL84
 7459 0259 0100     		.2byte	0x1
 7460 025b 54       		.byte	0x54
 7461 025c 4E030000 		.4byte	.LVL84
 7462 0260 50030000 		.4byte	.LVL85
 7463 0264 0100     		.2byte	0x1
 7464 0266 50       		.byte	0x50
 7465 0267 50030000 		.4byte	.LVL85
 7466 026b 62030000 		.4byte	.LVL87
 7467 026f 0100     		.2byte	0x1
 7468 0271 54       		.byte	0x54
 7469 0272 62030000 		.4byte	.LVL87
 7470 0276 6A030000 		.4byte	.LVL88
 7471 027a 0100     		.2byte	0x1
 7472 027c 50       		.byte	0x50
 7473 027d 6A030000 		.4byte	.LVL88
 7474 0281 6C030000 		.4byte	.LVL89
 7475 0285 0100     		.2byte	0x1
 7476 0287 54       		.byte	0x54
 7477 0288 6C030000 		.4byte	.LVL89
 7478 028c 6F030000 		.4byte	.LVL90-1
 7479 0290 0100     		.2byte	0x1
 7480 0292 50       		.byte	0x50
 7481 0293 6F030000 		.4byte	.LVL90-1
 7482 0297 76030000 		.4byte	.LVL91
ARM GAS  C:\Users\raytr\AppData\Local\Temp\ccu8NuaS.s 			page 157


 7483 029b 0100     		.2byte	0x1
 7484 029d 54       		.byte	0x54
 7485 029e 76030000 		.4byte	.LVL91
 7486 02a2 79030000 		.4byte	.LVL92-1
 7487 02a6 0100     		.2byte	0x1
 7488 02a8 50       		.byte	0x50
 7489 02a9 79030000 		.4byte	.LVL92-1
 7490 02ad 98030000 		.4byte	.LVL98
 7491 02b1 0100     		.2byte	0x1
 7492 02b3 54       		.byte	0x54
 7493 02b4 98030000 		.4byte	.LVL98
 7494 02b8 A0030000 		.4byte	.LVL102
 7495 02bc 0100     		.2byte	0x1
 7496 02be 50       		.byte	0x50
 7497 02bf A0030000 		.4byte	.LVL102
 7498 02c3 A2030000 		.4byte	.LVL103
 7499 02c7 0100     		.2byte	0x1
 7500 02c9 54       		.byte	0x54
 7501 02ca A2030000 		.4byte	.LVL103
 7502 02ce A4030000 		.4byte	.LVL104
 7503 02d2 0100     		.2byte	0x1
 7504 02d4 50       		.byte	0x50
 7505 02d5 A4030000 		.4byte	.LVL104
 7506 02d9 BC030000 		.4byte	.LVL106
 7507 02dd 0100     		.2byte	0x1
 7508 02df 54       		.byte	0x54
 7509 02e0 BC030000 		.4byte	.LVL106
 7510 02e4 C4030000 		.4byte	.LVL107
 7511 02e8 0100     		.2byte	0x1
 7512 02ea 50       		.byte	0x50
 7513 02eb C4030000 		.4byte	.LVL107
 7514 02ef C6030000 		.4byte	.LVL108
 7515 02f3 0100     		.2byte	0x1
 7516 02f5 54       		.byte	0x54
 7517 02f6 C6030000 		.4byte	.LVL108
 7518 02fa C9030000 		.4byte	.LVL109-1
 7519 02fe 0100     		.2byte	0x1
 7520 0300 50       		.byte	0x50
 7521 0301 C9030000 		.4byte	.LVL109-1
 7522 0305 D0030000 		.4byte	.LVL110
 7523 0309 0100     		.2byte	0x1
 7524 030b 54       		.byte	0x54
 7525 030c D0030000 		.4byte	.LVL110
 7526 0310 D3030000 		.4byte	.LVL111-1
 7527 0314 0100     		.2byte	0x1
 7528 0316 50       		.byte	0x50
 7529 0317 D3030000 		.4byte	.LVL111-1
 7530 031b F2030000 		.4byte	.LVL117
 7531 031f 0100     		.2byte	0x1
 7532 0321 54       		.byte	0x54
 7533 0322 F2030000 		.4byte	.LVL117
 7534 0326 F5030000 		.4byte	.LVL118-1
 7535 032a 0100     		.2byte	0x1
 7536 032c 50       		.byte	0x50
 7537 032d F5030000 		.4byte	.LVL118-1
 7538 0331 FC030000 		.4byte	.LVL119
 7539 0335 0100     		.2byte	0x1
ARM GAS  C:\Users\raytr\AppData\Local\Temp\ccu8NuaS.s 			page 158


 7540 0337 54       		.byte	0x54
 7541 0338 FC030000 		.4byte	.LVL119
 7542 033c FE030000 		.4byte	.LVL120
 7543 0340 0100     		.2byte	0x1
 7544 0342 50       		.byte	0x50
 7545 0343 FE030000 		.4byte	.LVL120
 7546 0347 10040000 		.4byte	.LVL122
 7547 034b 0100     		.2byte	0x1
 7548 034d 54       		.byte	0x54
 7549 034e 10040000 		.4byte	.LVL122
 7550 0352 18040000 		.4byte	.LVL123
 7551 0356 0100     		.2byte	0x1
 7552 0358 50       		.byte	0x50
 7553 0359 18040000 		.4byte	.LVL123
 7554 035d 1A040000 		.4byte	.LVL124
 7555 0361 0100     		.2byte	0x1
 7556 0363 54       		.byte	0x54
 7557 0364 1A040000 		.4byte	.LVL124
 7558 0368 1F040000 		.4byte	.LVL125-1
 7559 036c 0100     		.2byte	0x1
 7560 036e 50       		.byte	0x50
 7561 036f 1F040000 		.4byte	.LVL125-1
 7562 0373 30040000 		.4byte	.LVL127
 7563 0377 0100     		.2byte	0x1
 7564 0379 54       		.byte	0x54
 7565 037a 30040000 		.4byte	.LVL127
 7566 037e 33040000 		.4byte	.LVL128-1
 7567 0382 0100     		.2byte	0x1
 7568 0384 50       		.byte	0x50
 7569 0385 33040000 		.4byte	.LVL128-1
 7570 0389 52040000 		.4byte	.LVL134
 7571 038d 0100     		.2byte	0x1
 7572 038f 54       		.byte	0x54
 7573 0390 52040000 		.4byte	.LVL134
 7574 0394 5C040000 		.4byte	.LVL137
 7575 0398 0100     		.2byte	0x1
 7576 039a 50       		.byte	0x50
 7577 039b 5C040000 		.4byte	.LVL137
 7578 039f 5E040000 		.4byte	.LVL138
 7579 03a3 0100     		.2byte	0x1
 7580 03a5 54       		.byte	0x54
 7581 03a6 5E040000 		.4byte	.LVL138
 7582 03aa 60040000 		.4byte	.LVL139
 7583 03ae 0100     		.2byte	0x1
 7584 03b0 50       		.byte	0x50
 7585 03b1 60040000 		.4byte	.LVL139
 7586 03b5 78040000 		.4byte	.LVL141
 7587 03b9 0100     		.2byte	0x1
 7588 03bb 54       		.byte	0x54
 7589 03bc 78040000 		.4byte	.LVL141
 7590 03c0 80040000 		.4byte	.LVL142
 7591 03c4 0100     		.2byte	0x1
 7592 03c6 50       		.byte	0x50
 7593 03c7 80040000 		.4byte	.LVL142
 7594 03cb 82040000 		.4byte	.LVL143
 7595 03cf 0100     		.2byte	0x1
 7596 03d1 54       		.byte	0x54
ARM GAS  C:\Users\raytr\AppData\Local\Temp\ccu8NuaS.s 			page 159


 7597 03d2 82040000 		.4byte	.LVL143
 7598 03d6 85040000 		.4byte	.LVL144-1
 7599 03da 0100     		.2byte	0x1
 7600 03dc 50       		.byte	0x50
 7601 03dd 85040000 		.4byte	.LVL144-1
 7602 03e1 8C040000 		.4byte	.LVL145
 7603 03e5 0100     		.2byte	0x1
 7604 03e7 54       		.byte	0x54
 7605 03e8 8C040000 		.4byte	.LVL145
 7606 03ec 92040000 		.4byte	.LVL146
 7607 03f0 0100     		.2byte	0x1
 7608 03f2 50       		.byte	0x50
 7609 03f3 92040000 		.4byte	.LVL146
 7610 03f7 94040000 		.4byte	.LVL147
 7611 03fb 0100     		.2byte	0x1
 7612 03fd 54       		.byte	0x54
 7613 03fe 94040000 		.4byte	.LVL147
 7614 0402 9A040000 		.4byte	.LVL148
 7615 0406 0100     		.2byte	0x1
 7616 0408 50       		.byte	0x50
 7617 0409 9A040000 		.4byte	.LVL148
 7618 040d 9C040000 		.4byte	.LVL149
 7619 0411 0100     		.2byte	0x1
 7620 0413 54       		.byte	0x54
 7621 0414 9C040000 		.4byte	.LVL149
 7622 0418 A2040000 		.4byte	.LVL150
 7623 041c 0100     		.2byte	0x1
 7624 041e 50       		.byte	0x50
 7625 041f A2040000 		.4byte	.LVL150
 7626 0423 A4040000 		.4byte	.LVL151
 7627 0427 0100     		.2byte	0x1
 7628 0429 54       		.byte	0x54
 7629 042a A4040000 		.4byte	.LVL151
 7630 042e AA040000 		.4byte	.LVL152
 7631 0432 0100     		.2byte	0x1
 7632 0434 50       		.byte	0x50
 7633 0435 AA040000 		.4byte	.LVL152
 7634 0439 AC040000 		.4byte	.LVL153
 7635 043d 0100     		.2byte	0x1
 7636 043f 54       		.byte	0x54
 7637 0440 AC040000 		.4byte	.LVL153
 7638 0444 B2040000 		.4byte	.LVL154
 7639 0448 0100     		.2byte	0x1
 7640 044a 50       		.byte	0x50
 7641 044b B2040000 		.4byte	.LVL154
 7642 044f B4040000 		.4byte	.LVL155
 7643 0453 0100     		.2byte	0x1
 7644 0455 54       		.byte	0x54
 7645 0456 B4040000 		.4byte	.LVL155
 7646 045a B6040000 		.4byte	.LVL156
 7647 045e 0100     		.2byte	0x1
 7648 0460 50       		.byte	0x50
 7649 0461 B6040000 		.4byte	.LVL156
 7650 0465 C8040000 		.4byte	.LVL158
 7651 0469 0100     		.2byte	0x1
 7652 046b 54       		.byte	0x54
 7653 046c C8040000 		.4byte	.LVL158
ARM GAS  C:\Users\raytr\AppData\Local\Temp\ccu8NuaS.s 			page 160


 7654 0470 CE040000 		.4byte	.LVL159
 7655 0474 0100     		.2byte	0x1
 7656 0476 50       		.byte	0x50
 7657 0477 CE040000 		.4byte	.LVL159
 7658 047b D0040000 		.4byte	.LVL160
 7659 047f 0100     		.2byte	0x1
 7660 0481 54       		.byte	0x54
 7661 0482 D0040000 		.4byte	.LVL160
 7662 0486 D6040000 		.4byte	.LVL161
 7663 048a 0100     		.2byte	0x1
 7664 048c 50       		.byte	0x50
 7665 048d D6040000 		.4byte	.LVL161
 7666 0491 D8040000 		.4byte	.LVL162
 7667 0495 0100     		.2byte	0x1
 7668 0497 54       		.byte	0x54
 7669 0498 D8040000 		.4byte	.LVL162
 7670 049c DE040000 		.4byte	.LVL163
 7671 04a0 0100     		.2byte	0x1
 7672 04a2 50       		.byte	0x50
 7673 04a3 DE040000 		.4byte	.LVL163
 7674 04a7 E0040000 		.4byte	.LVL164
 7675 04ab 0100     		.2byte	0x1
 7676 04ad 54       		.byte	0x54
 7677 04ae E0040000 		.4byte	.LVL164
 7678 04b2 E6040000 		.4byte	.LVL165
 7679 04b6 0100     		.2byte	0x1
 7680 04b8 50       		.byte	0x50
 7681 04b9 E6040000 		.4byte	.LVL165
 7682 04bd E8040000 		.4byte	.LVL166
 7683 04c1 0100     		.2byte	0x1
 7684 04c3 54       		.byte	0x54
 7685 04c4 E8040000 		.4byte	.LVL166
 7686 04c8 EE040000 		.4byte	.LVL167
 7687 04cc 0100     		.2byte	0x1
 7688 04ce 50       		.byte	0x50
 7689 04cf EE040000 		.4byte	.LVL167
 7690 04d3 F0040000 		.4byte	.LVL168
 7691 04d7 0100     		.2byte	0x1
 7692 04d9 54       		.byte	0x54
 7693 04da F0040000 		.4byte	.LVL168
 7694 04de F6040000 		.4byte	.LVL169
 7695 04e2 0100     		.2byte	0x1
 7696 04e4 50       		.byte	0x50
 7697 04e5 F6040000 		.4byte	.LVL169
 7698 04e9 F8040000 		.4byte	.LVL170
 7699 04ed 0100     		.2byte	0x1
 7700 04ef 54       		.byte	0x54
 7701 04f0 F8040000 		.4byte	.LVL170
 7702 04f4 FA040000 		.4byte	.LVL171
 7703 04f8 0100     		.2byte	0x1
 7704 04fa 50       		.byte	0x50
 7705 04fb FA040000 		.4byte	.LVL171
 7706 04ff 0C050000 		.4byte	.LVL173
 7707 0503 0100     		.2byte	0x1
 7708 0505 54       		.byte	0x54
 7709 0506 0C050000 		.4byte	.LVL173
 7710 050a 12050000 		.4byte	.LVL174
ARM GAS  C:\Users\raytr\AppData\Local\Temp\ccu8NuaS.s 			page 161


 7711 050e 0100     		.2byte	0x1
 7712 0510 50       		.byte	0x50
 7713 0511 12050000 		.4byte	.LVL174
 7714 0515 14050000 		.4byte	.LVL175
 7715 0519 0100     		.2byte	0x1
 7716 051b 54       		.byte	0x54
 7717 051c 14050000 		.4byte	.LVL175
 7718 0520 1A050000 		.4byte	.LVL176
 7719 0524 0100     		.2byte	0x1
 7720 0526 50       		.byte	0x50
 7721 0527 1A050000 		.4byte	.LVL176
 7722 052b 1C050000 		.4byte	.LVL177
 7723 052f 0100     		.2byte	0x1
 7724 0531 54       		.byte	0x54
 7725 0532 1C050000 		.4byte	.LVL177
 7726 0536 22050000 		.4byte	.LVL178
 7727 053a 0100     		.2byte	0x1
 7728 053c 50       		.byte	0x50
 7729 053d 22050000 		.4byte	.LVL178
 7730 0541 24050000 		.4byte	.LVL179
 7731 0545 0100     		.2byte	0x1
 7732 0547 54       		.byte	0x54
 7733 0548 24050000 		.4byte	.LVL179
 7734 054c 2A050000 		.4byte	.LVL180
 7735 0550 0100     		.2byte	0x1
 7736 0552 50       		.byte	0x50
 7737 0553 2A050000 		.4byte	.LVL180
 7738 0557 2C050000 		.4byte	.LVL181
 7739 055b 0100     		.2byte	0x1
 7740 055d 54       		.byte	0x54
 7741 055e 2C050000 		.4byte	.LVL181
 7742 0562 32050000 		.4byte	.LVL182
 7743 0566 0100     		.2byte	0x1
 7744 0568 50       		.byte	0x50
 7745 0569 32050000 		.4byte	.LVL182
 7746 056d 34050000 		.4byte	.LVL183
 7747 0571 0100     		.2byte	0x1
 7748 0573 54       		.byte	0x54
 7749 0574 34050000 		.4byte	.LVL183
 7750 0578 3A050000 		.4byte	.LVL184
 7751 057c 0100     		.2byte	0x1
 7752 057e 50       		.byte	0x50
 7753 057f 3A050000 		.4byte	.LVL184
 7754 0583 3C050000 		.4byte	.LVL185
 7755 0587 0100     		.2byte	0x1
 7756 0589 54       		.byte	0x54
 7757 058a 3C050000 		.4byte	.LVL185
 7758 058e 3E050000 		.4byte	.LVL186
 7759 0592 0100     		.2byte	0x1
 7760 0594 50       		.byte	0x50
 7761 0595 3E050000 		.4byte	.LVL186
 7762 0599 50050000 		.4byte	.LVL188
 7763 059d 0100     		.2byte	0x1
 7764 059f 54       		.byte	0x54
 7765 05a0 50050000 		.4byte	.LVL188
 7766 05a4 56050000 		.4byte	.LVL189
 7767 05a8 0100     		.2byte	0x1
ARM GAS  C:\Users\raytr\AppData\Local\Temp\ccu8NuaS.s 			page 162


 7768 05aa 50       		.byte	0x50
 7769 05ab 56050000 		.4byte	.LVL189
 7770 05af 58050000 		.4byte	.LVL190
 7771 05b3 0100     		.2byte	0x1
 7772 05b5 54       		.byte	0x54
 7773 05b6 58050000 		.4byte	.LVL190
 7774 05ba 5E050000 		.4byte	.LVL191
 7775 05be 0100     		.2byte	0x1
 7776 05c0 50       		.byte	0x50
 7777 05c1 5E050000 		.4byte	.LVL191
 7778 05c5 60050000 		.4byte	.LVL192
 7779 05c9 0100     		.2byte	0x1
 7780 05cb 54       		.byte	0x54
 7781 05cc 60050000 		.4byte	.LVL192
 7782 05d0 66050000 		.4byte	.LVL193
 7783 05d4 0100     		.2byte	0x1
 7784 05d6 50       		.byte	0x50
 7785 05d7 66050000 		.4byte	.LVL193
 7786 05db 68050000 		.4byte	.LVL194
 7787 05df 0100     		.2byte	0x1
 7788 05e1 54       		.byte	0x54
 7789 05e2 68050000 		.4byte	.LVL194
 7790 05e6 6E050000 		.4byte	.LVL195
 7791 05ea 0100     		.2byte	0x1
 7792 05ec 50       		.byte	0x50
 7793 05ed 6E050000 		.4byte	.LVL195
 7794 05f1 70050000 		.4byte	.LVL196
 7795 05f5 0100     		.2byte	0x1
 7796 05f7 54       		.byte	0x54
 7797 05f8 70050000 		.4byte	.LVL196
 7798 05fc 76050000 		.4byte	.LVL197
 7799 0600 0100     		.2byte	0x1
 7800 0602 50       		.byte	0x50
 7801 0603 76050000 		.4byte	.LVL197
 7802 0607 78050000 		.4byte	.LVL198
 7803 060b 0100     		.2byte	0x1
 7804 060d 54       		.byte	0x54
 7805 060e 78050000 		.4byte	.LVL198
 7806 0612 7E050000 		.4byte	.LVL199
 7807 0616 0100     		.2byte	0x1
 7808 0618 50       		.byte	0x50
 7809 0619 7E050000 		.4byte	.LVL199
 7810 061d 80050000 		.4byte	.LVL200
 7811 0621 0100     		.2byte	0x1
 7812 0623 54       		.byte	0x54
 7813 0624 80050000 		.4byte	.LVL200
 7814 0628 82050000 		.4byte	.LVL201
 7815 062c 0100     		.2byte	0x1
 7816 062e 50       		.byte	0x50
 7817 062f 82050000 		.4byte	.LVL201
 7818 0633 94050000 		.4byte	.LVL203
 7819 0637 0100     		.2byte	0x1
 7820 0639 54       		.byte	0x54
 7821 063a 94050000 		.4byte	.LVL203
 7822 063e 9A050000 		.4byte	.LVL204
 7823 0642 0100     		.2byte	0x1
 7824 0644 50       		.byte	0x50
ARM GAS  C:\Users\raytr\AppData\Local\Temp\ccu8NuaS.s 			page 163


 7825 0645 9A050000 		.4byte	.LVL204
 7826 0649 9C050000 		.4byte	.LVL205
 7827 064d 0100     		.2byte	0x1
 7828 064f 54       		.byte	0x54
 7829 0650 9C050000 		.4byte	.LVL205
 7830 0654 A2050000 		.4byte	.LVL206
 7831 0658 0100     		.2byte	0x1
 7832 065a 50       		.byte	0x50
 7833 065b A2050000 		.4byte	.LVL206
 7834 065f A4050000 		.4byte	.LVL207
 7835 0663 0100     		.2byte	0x1
 7836 0665 54       		.byte	0x54
 7837 0666 A4050000 		.4byte	.LVL207
 7838 066a AA050000 		.4byte	.LVL208
 7839 066e 0100     		.2byte	0x1
 7840 0670 50       		.byte	0x50
 7841 0671 AA050000 		.4byte	.LVL208
 7842 0675 AC050000 		.4byte	.LVL209
 7843 0679 0100     		.2byte	0x1
 7844 067b 54       		.byte	0x54
 7845 067c AC050000 		.4byte	.LVL209
 7846 0680 B2050000 		.4byte	.LVL210
 7847 0684 0100     		.2byte	0x1
 7848 0686 50       		.byte	0x50
 7849 0687 B2050000 		.4byte	.LVL210
 7850 068b B4050000 		.4byte	.LVL211
 7851 068f 0100     		.2byte	0x1
 7852 0691 54       		.byte	0x54
 7853 0692 B4050000 		.4byte	.LVL211
 7854 0696 BA050000 		.4byte	.LVL212
 7855 069a 0100     		.2byte	0x1
 7856 069c 50       		.byte	0x50
 7857 069d BA050000 		.4byte	.LVL212
 7858 06a1 BC050000 		.4byte	.LVL213
 7859 06a5 0100     		.2byte	0x1
 7860 06a7 54       		.byte	0x54
 7861 06a8 BC050000 		.4byte	.LVL213
 7862 06ac C2050000 		.4byte	.LVL214
 7863 06b0 0100     		.2byte	0x1
 7864 06b2 50       		.byte	0x50
 7865 06b3 C2050000 		.4byte	.LVL214
 7866 06b7 C4050000 		.4byte	.LVL215
 7867 06bb 0100     		.2byte	0x1
 7868 06bd 54       		.byte	0x54
 7869 06be C4050000 		.4byte	.LVL215
 7870 06c2 C6050000 		.4byte	.LVL216
 7871 06c6 0100     		.2byte	0x1
 7872 06c8 50       		.byte	0x50
 7873 06c9 C6050000 		.4byte	.LVL216
 7874 06cd D8050000 		.4byte	.LVL218
 7875 06d1 0100     		.2byte	0x1
 7876 06d3 54       		.byte	0x54
 7877 06d4 D8050000 		.4byte	.LVL218
 7878 06d8 DE050000 		.4byte	.LVL219
 7879 06dc 0100     		.2byte	0x1
 7880 06de 50       		.byte	0x50
 7881 06df DE050000 		.4byte	.LVL219
ARM GAS  C:\Users\raytr\AppData\Local\Temp\ccu8NuaS.s 			page 164


 7882 06e3 E0050000 		.4byte	.LVL220
 7883 06e7 0100     		.2byte	0x1
 7884 06e9 54       		.byte	0x54
 7885 06ea E0050000 		.4byte	.LVL220
 7886 06ee E6050000 		.4byte	.LVL221
 7887 06f2 0100     		.2byte	0x1
 7888 06f4 50       		.byte	0x50
 7889 06f5 E6050000 		.4byte	.LVL221
 7890 06f9 E8050000 		.4byte	.LVL222
 7891 06fd 0100     		.2byte	0x1
 7892 06ff 54       		.byte	0x54
 7893 0700 E8050000 		.4byte	.LVL222
 7894 0704 EE050000 		.4byte	.LVL223
 7895 0708 0100     		.2byte	0x1
 7896 070a 50       		.byte	0x50
 7897 070b EE050000 		.4byte	.LVL223
 7898 070f F0050000 		.4byte	.LVL224
 7899 0713 0100     		.2byte	0x1
 7900 0715 54       		.byte	0x54
 7901 0716 F0050000 		.4byte	.LVL224
 7902 071a F6050000 		.4byte	.LVL225
 7903 071e 0100     		.2byte	0x1
 7904 0720 50       		.byte	0x50
 7905 0721 F6050000 		.4byte	.LVL225
 7906 0725 F8050000 		.4byte	.LVL226
 7907 0729 0100     		.2byte	0x1
 7908 072b 54       		.byte	0x54
 7909 072c F8050000 		.4byte	.LVL226
 7910 0730 FE050000 		.4byte	.LVL227
 7911 0734 0100     		.2byte	0x1
 7912 0736 50       		.byte	0x50
 7913 0737 FE050000 		.4byte	.LVL227
 7914 073b 00060000 		.4byte	.LVL228
 7915 073f 0100     		.2byte	0x1
 7916 0741 54       		.byte	0x54
 7917 0742 00060000 		.4byte	.LVL228
 7918 0746 06060000 		.4byte	.LVL229
 7919 074a 0100     		.2byte	0x1
 7920 074c 50       		.byte	0x50
 7921 074d 06060000 		.4byte	.LVL229
 7922 0751 08060000 		.4byte	.LVL230
 7923 0755 0100     		.2byte	0x1
 7924 0757 54       		.byte	0x54
 7925 0758 08060000 		.4byte	.LVL230
 7926 075c 0A060000 		.4byte	.LVL231
 7927 0760 0100     		.2byte	0x1
 7928 0762 50       		.byte	0x50
 7929 0763 0A060000 		.4byte	.LVL231
 7930 0767 1C060000 		.4byte	.LVL233
 7931 076b 0100     		.2byte	0x1
 7932 076d 54       		.byte	0x54
 7933 076e 1C060000 		.4byte	.LVL233
 7934 0772 22060000 		.4byte	.LVL234
 7935 0776 0100     		.2byte	0x1
 7936 0778 50       		.byte	0x50
 7937 0779 22060000 		.4byte	.LVL234
 7938 077d 24060000 		.4byte	.LVL235
ARM GAS  C:\Users\raytr\AppData\Local\Temp\ccu8NuaS.s 			page 165


 7939 0781 0100     		.2byte	0x1
 7940 0783 54       		.byte	0x54
 7941 0784 24060000 		.4byte	.LVL235
 7942 0788 26060000 		.4byte	.LVL236
 7943 078c 0100     		.2byte	0x1
 7944 078e 50       		.byte	0x50
 7945 078f 26060000 		.4byte	.LVL236
 7946 0793 32060000 		.4byte	.LVL238
 7947 0797 0100     		.2byte	0x1
 7948 0799 54       		.byte	0x54
 7949 079a 32060000 		.4byte	.LVL238
 7950 079e 34060000 		.4byte	.LVL239
 7951 07a2 0100     		.2byte	0x1
 7952 07a4 50       		.byte	0x50
 7953 07a5 34060000 		.4byte	.LVL239
 7954 07a9 40060000 		.4byte	.LVL241
 7955 07ad 0100     		.2byte	0x1
 7956 07af 54       		.byte	0x54
 7957 07b0 40060000 		.4byte	.LVL241
 7958 07b4 42060000 		.4byte	.LVL242
 7959 07b8 0100     		.2byte	0x1
 7960 07ba 50       		.byte	0x50
 7961 07bb 42060000 		.4byte	.LVL242
 7962 07bf 4E060000 		.4byte	.LVL244
 7963 07c3 0100     		.2byte	0x1
 7964 07c5 54       		.byte	0x54
 7965 07c6 4E060000 		.4byte	.LVL244
 7966 07ca 50060000 		.4byte	.LVL245
 7967 07ce 0100     		.2byte	0x1
 7968 07d0 50       		.byte	0x50
 7969 07d1 50060000 		.4byte	.LVL245
 7970 07d5 5C060000 		.4byte	.LVL247
 7971 07d9 0100     		.2byte	0x1
 7972 07db 54       		.byte	0x54
 7973 07dc 5C060000 		.4byte	.LVL247
 7974 07e0 5E060000 		.4byte	.LVL248
 7975 07e4 0100     		.2byte	0x1
 7976 07e6 50       		.byte	0x50
 7977 07e7 5E060000 		.4byte	.LVL248
 7978 07eb 6A060000 		.4byte	.LVL250
 7979 07ef 0100     		.2byte	0x1
 7980 07f1 54       		.byte	0x54
 7981 07f2 6A060000 		.4byte	.LVL250
 7982 07f6 6C060000 		.4byte	.LVL251
 7983 07fa 0100     		.2byte	0x1
 7984 07fc 50       		.byte	0x50
 7985 07fd 6C060000 		.4byte	.LVL251
 7986 0801 78060000 		.4byte	.LVL253
 7987 0805 0100     		.2byte	0x1
 7988 0807 54       		.byte	0x54
 7989 0808 78060000 		.4byte	.LVL253
 7990 080c 7A060000 		.4byte	.LVL254
 7991 0810 0100     		.2byte	0x1
 7992 0812 50       		.byte	0x50
 7993 0813 7A060000 		.4byte	.LVL254
 7994 0817 86060000 		.4byte	.LVL256
 7995 081b 0100     		.2byte	0x1
ARM GAS  C:\Users\raytr\AppData\Local\Temp\ccu8NuaS.s 			page 166


 7996 081d 54       		.byte	0x54
 7997 081e 86060000 		.4byte	.LVL256
 7998 0822 8C060000 		.4byte	.LVL257
 7999 0826 0100     		.2byte	0x1
 8000 0828 50       		.byte	0x50
 8001 0829 8C060000 		.4byte	.LVL257
 8002 082d 8E060000 		.4byte	.LVL258
 8003 0831 0100     		.2byte	0x1
 8004 0833 54       		.byte	0x54
 8005 0834 8E060000 		.4byte	.LVL258
 8006 0838 94060000 		.4byte	.LVL259
 8007 083c 0100     		.2byte	0x1
 8008 083e 50       		.byte	0x50
 8009 083f 94060000 		.4byte	.LVL259
 8010 0843 96060000 		.4byte	.LVL260
 8011 0847 0100     		.2byte	0x1
 8012 0849 54       		.byte	0x54
 8013 084a 96060000 		.4byte	.LVL260
 8014 084e 9C060000 		.4byte	.LVL261
 8015 0852 0100     		.2byte	0x1
 8016 0854 50       		.byte	0x50
 8017 0855 9C060000 		.4byte	.LVL261
 8018 0859 9E060000 		.4byte	.LVL262
 8019 085d 0100     		.2byte	0x1
 8020 085f 54       		.byte	0x54
 8021 0860 9E060000 		.4byte	.LVL262
 8022 0864 A4060000 		.4byte	.LVL263
 8023 0868 0100     		.2byte	0x1
 8024 086a 50       		.byte	0x50
 8025 086b A4060000 		.4byte	.LVL263
 8026 086f A6060000 		.4byte	.LVL264
 8027 0873 0100     		.2byte	0x1
 8028 0875 54       		.byte	0x54
 8029 0876 A6060000 		.4byte	.LVL264
 8030 087a AC060000 		.4byte	.LVL265
 8031 087e 0100     		.2byte	0x1
 8032 0880 50       		.byte	0x50
 8033 0881 AC060000 		.4byte	.LVL265
 8034 0885 AE060000 		.4byte	.LVL266
 8035 0889 0100     		.2byte	0x1
 8036 088b 54       		.byte	0x54
 8037 088c AE060000 		.4byte	.LVL266
 8038 0890 B4060000 		.4byte	.LVL267
 8039 0894 0100     		.2byte	0x1
 8040 0896 50       		.byte	0x50
 8041 0897 B4060000 		.4byte	.LVL267
 8042 089b B6060000 		.4byte	.LVL268
 8043 089f 0100     		.2byte	0x1
 8044 08a1 54       		.byte	0x54
 8045 08a2 B6060000 		.4byte	.LVL268
 8046 08a6 B8060000 		.4byte	.LVL269
 8047 08aa 0100     		.2byte	0x1
 8048 08ac 50       		.byte	0x50
 8049 08ad B8060000 		.4byte	.LVL269
 8050 08b1 CA060000 		.4byte	.LVL271
 8051 08b5 0100     		.2byte	0x1
 8052 08b7 54       		.byte	0x54
ARM GAS  C:\Users\raytr\AppData\Local\Temp\ccu8NuaS.s 			page 167


 8053 08b8 CA060000 		.4byte	.LVL271
 8054 08bc D4060000 		.4byte	.LVL274
 8055 08c0 0100     		.2byte	0x1
 8056 08c2 50       		.byte	0x50
 8057 08c3 D4060000 		.4byte	.LVL274
 8058 08c7 D6060000 		.4byte	.LVL275
 8059 08cb 0100     		.2byte	0x1
 8060 08cd 54       		.byte	0x54
 8061 08ce D6060000 		.4byte	.LVL275
 8062 08d2 E0060000 		.4byte	.LVL278
 8063 08d6 0100     		.2byte	0x1
 8064 08d8 50       		.byte	0x50
 8065 08d9 E0060000 		.4byte	.LVL278
 8066 08dd E2060000 		.4byte	.LVL279
 8067 08e1 0100     		.2byte	0x1
 8068 08e3 54       		.byte	0x54
 8069 08e4 E2060000 		.4byte	.LVL279
 8070 08e8 EC060000 		.4byte	.LVL282
 8071 08ec 0100     		.2byte	0x1
 8072 08ee 50       		.byte	0x50
 8073 08ef EC060000 		.4byte	.LVL282
 8074 08f3 EE060000 		.4byte	.LVL283
 8075 08f7 0100     		.2byte	0x1
 8076 08f9 54       		.byte	0x54
 8077 08fa EE060000 		.4byte	.LVL283
 8078 08fe F8060000 		.4byte	.LVL286
 8079 0902 0100     		.2byte	0x1
 8080 0904 50       		.byte	0x50
 8081 0905 F8060000 		.4byte	.LVL286
 8082 0909 FA060000 		.4byte	.LVL287
 8083 090d 0100     		.2byte	0x1
 8084 090f 54       		.byte	0x54
 8085 0910 FA060000 		.4byte	.LVL287
 8086 0914 04070000 		.4byte	.LVL290
 8087 0918 0100     		.2byte	0x1
 8088 091a 50       		.byte	0x50
 8089 091b 04070000 		.4byte	.LVL290
 8090 091f 06070000 		.4byte	.LVL291
 8091 0923 0100     		.2byte	0x1
 8092 0925 54       		.byte	0x54
 8093 0926 06070000 		.4byte	.LVL291
 8094 092a 10070000 		.4byte	.LVL294
 8095 092e 0100     		.2byte	0x1
 8096 0930 50       		.byte	0x50
 8097 0931 10070000 		.4byte	.LVL294
 8098 0935 12070000 		.4byte	.LVL295
 8099 0939 0100     		.2byte	0x1
 8100 093b 54       		.byte	0x54
 8101 093c 12070000 		.4byte	.LVL295
 8102 0940 16070000 		.4byte	.LVL296
 8103 0944 0100     		.2byte	0x1
 8104 0946 50       		.byte	0x50
 8105 0947 16070000 		.4byte	.LVL296
 8106 094b 2A070000 		.4byte	.LVL299
 8107 094f 0100     		.2byte	0x1
 8108 0951 54       		.byte	0x54
 8109 0952 2A070000 		.4byte	.LVL299
ARM GAS  C:\Users\raytr\AppData\Local\Temp\ccu8NuaS.s 			page 168


 8110 0956 32070000 		.4byte	.LVL303
 8111 095a 0100     		.2byte	0x1
 8112 095c 50       		.byte	0x50
 8113 095d 32070000 		.4byte	.LVL303
 8114 0961 34070000 		.4byte	.LVL304
 8115 0965 0100     		.2byte	0x1
 8116 0967 54       		.byte	0x54
 8117 0968 34070000 		.4byte	.LVL304
 8118 096c 3E070000 		.4byte	.LVL307
 8119 0970 0100     		.2byte	0x1
 8120 0972 50       		.byte	0x50
 8121 0973 3E070000 		.4byte	.LVL307
 8122 0977 40070000 		.4byte	.LVL308
 8123 097b 0100     		.2byte	0x1
 8124 097d 54       		.byte	0x54
 8125 097e 40070000 		.4byte	.LVL308
 8126 0982 4A070000 		.4byte	.LVL311
 8127 0986 0100     		.2byte	0x1
 8128 0988 50       		.byte	0x50
 8129 0989 4A070000 		.4byte	.LVL311
 8130 098d 4C070000 		.4byte	.LVL312
 8131 0991 0100     		.2byte	0x1
 8132 0993 54       		.byte	0x54
 8133 0994 4C070000 		.4byte	.LVL312
 8134 0998 56070000 		.4byte	.LVL315
 8135 099c 0100     		.2byte	0x1
 8136 099e 50       		.byte	0x50
 8137 099f 56070000 		.4byte	.LVL315
 8138 09a3 58070000 		.4byte	.LVL316
 8139 09a7 0100     		.2byte	0x1
 8140 09a9 54       		.byte	0x54
 8141 09aa 58070000 		.4byte	.LVL316
 8142 09ae 62070000 		.4byte	.LVL319
 8143 09b2 0100     		.2byte	0x1
 8144 09b4 50       		.byte	0x50
 8145 09b5 62070000 		.4byte	.LVL319
 8146 09b9 64070000 		.4byte	.LVL320
 8147 09bd 0100     		.2byte	0x1
 8148 09bf 54       		.byte	0x54
 8149 09c0 64070000 		.4byte	.LVL320
 8150 09c4 6E070000 		.4byte	.LVL323
 8151 09c8 0100     		.2byte	0x1
 8152 09ca 50       		.byte	0x50
 8153 09cb 6E070000 		.4byte	.LVL323
 8154 09cf 70070000 		.4byte	.LVL324
 8155 09d3 0100     		.2byte	0x1
 8156 09d5 54       		.byte	0x54
 8157 09d6 70070000 		.4byte	.LVL324
 8158 09da 7A070000 		.4byte	.LVL327
 8159 09de 0100     		.2byte	0x1
 8160 09e0 50       		.byte	0x50
 8161 09e1 7A070000 		.4byte	.LVL327
 8162 09e5 7C070000 		.4byte	.LVL328
 8163 09e9 0100     		.2byte	0x1
 8164 09eb 54       		.byte	0x54
 8165 09ec 7C070000 		.4byte	.LVL328
 8166 09f0 80070000 		.4byte	.LVL329
ARM GAS  C:\Users\raytr\AppData\Local\Temp\ccu8NuaS.s 			page 169


 8167 09f4 0100     		.2byte	0x1
 8168 09f6 50       		.byte	0x50
 8169 09f7 80070000 		.4byte	.LVL329
 8170 09fb 94070000 		.4byte	.LVL332
 8171 09ff 0100     		.2byte	0x1
 8172 0a01 54       		.byte	0x54
 8173 0a02 94070000 		.4byte	.LVL332
 8174 0a06 9C070000 		.4byte	.LVL336
 8175 0a0a 0100     		.2byte	0x1
 8176 0a0c 50       		.byte	0x50
 8177 0a0d 9C070000 		.4byte	.LVL336
 8178 0a11 9E070000 		.4byte	.LVL337
 8179 0a15 0100     		.2byte	0x1
 8180 0a17 54       		.byte	0x54
 8181 0a18 9E070000 		.4byte	.LVL337
 8182 0a1c A8070000 		.4byte	.LVL341
 8183 0a20 0100     		.2byte	0x1
 8184 0a22 50       		.byte	0x50
 8185 0a23 A8070000 		.4byte	.LVL341
 8186 0a27 AA070000 		.4byte	.LVL342
 8187 0a2b 0100     		.2byte	0x1
 8188 0a2d 54       		.byte	0x54
 8189 0a2e AA070000 		.4byte	.LVL342
 8190 0a32 B4070000 		.4byte	.LVL346
 8191 0a36 0100     		.2byte	0x1
 8192 0a38 50       		.byte	0x50
 8193 0a39 B4070000 		.4byte	.LVL346
 8194 0a3d B6070000 		.4byte	.LVL347
 8195 0a41 0100     		.2byte	0x1
 8196 0a43 54       		.byte	0x54
 8197 0a44 B6070000 		.4byte	.LVL347
 8198 0a48 C0070000 		.4byte	.LVL351
 8199 0a4c 0100     		.2byte	0x1
 8200 0a4e 50       		.byte	0x50
 8201 0a4f C0070000 		.4byte	.LVL351
 8202 0a53 C2070000 		.4byte	.LVL352
 8203 0a57 0100     		.2byte	0x1
 8204 0a59 54       		.byte	0x54
 8205 0a5a C2070000 		.4byte	.LVL352
 8206 0a5e CC070000 		.4byte	.LVL356
 8207 0a62 0100     		.2byte	0x1
 8208 0a64 50       		.byte	0x50
 8209 0a65 CC070000 		.4byte	.LVL356
 8210 0a69 CE070000 		.4byte	.LVL357
 8211 0a6d 0100     		.2byte	0x1
 8212 0a6f 54       		.byte	0x54
 8213 0a70 CE070000 		.4byte	.LVL357
 8214 0a74 D8070000 		.4byte	.LVL361
 8215 0a78 0100     		.2byte	0x1
 8216 0a7a 50       		.byte	0x50
 8217 0a7b D8070000 		.4byte	.LVL361
 8218 0a7f DA070000 		.4byte	.LVL362
 8219 0a83 0100     		.2byte	0x1
 8220 0a85 54       		.byte	0x54
 8221 0a86 DA070000 		.4byte	.LVL362
 8222 0a8a E4070000 		.4byte	.LVL366
 8223 0a8e 0100     		.2byte	0x1
ARM GAS  C:\Users\raytr\AppData\Local\Temp\ccu8NuaS.s 			page 170


 8224 0a90 50       		.byte	0x50
 8225 0a91 E4070000 		.4byte	.LVL366
 8226 0a95 E6070000 		.4byte	.LVL367
 8227 0a99 0100     		.2byte	0x1
 8228 0a9b 54       		.byte	0x54
 8229 0a9c E6070000 		.4byte	.LVL367
 8230 0aa0 EA070000 		.4byte	.LVL368
 8231 0aa4 0100     		.2byte	0x1
 8232 0aa6 50       		.byte	0x50
 8233 0aa7 EA070000 		.4byte	.LVL368
 8234 0aab FE070000 		.4byte	.LVL371
 8235 0aaf 0100     		.2byte	0x1
 8236 0ab1 54       		.byte	0x54
 8237 0ab2 FE070000 		.4byte	.LVL371
 8238 0ab6 04080000 		.4byte	.LVL373
 8239 0aba 0100     		.2byte	0x1
 8240 0abc 50       		.byte	0x50
 8241 0abd 04080000 		.4byte	.LVL373
 8242 0ac1 06080000 		.4byte	.LVL374
 8243 0ac5 0100     		.2byte	0x1
 8244 0ac7 54       		.byte	0x54
 8245 0ac8 06080000 		.4byte	.LVL374
 8246 0acc 10080000 		.4byte	.LVL378
 8247 0ad0 0100     		.2byte	0x1
 8248 0ad2 50       		.byte	0x50
 8249 0ad3 10080000 		.4byte	.LVL378
 8250 0ad7 12080000 		.4byte	.LVL379
 8251 0adb 0100     		.2byte	0x1
 8252 0add 54       		.byte	0x54
 8253 0ade 12080000 		.4byte	.LVL379
 8254 0ae2 1C080000 		.4byte	.LVL383
 8255 0ae6 0100     		.2byte	0x1
 8256 0ae8 50       		.byte	0x50
 8257 0ae9 1C080000 		.4byte	.LVL383
 8258 0aed 1E080000 		.4byte	.LVL384
 8259 0af1 0100     		.2byte	0x1
 8260 0af3 54       		.byte	0x54
 8261 0af4 1E080000 		.4byte	.LVL384
 8262 0af8 28080000 		.4byte	.LVL388
 8263 0afc 0100     		.2byte	0x1
 8264 0afe 50       		.byte	0x50
 8265 0aff 28080000 		.4byte	.LVL388
 8266 0b03 2A080000 		.4byte	.LVL389
 8267 0b07 0100     		.2byte	0x1
 8268 0b09 54       		.byte	0x54
 8269 0b0a 2A080000 		.4byte	.LVL389
 8270 0b0e 34080000 		.4byte	.LVL393
 8271 0b12 0100     		.2byte	0x1
 8272 0b14 50       		.byte	0x50
 8273 0b15 34080000 		.4byte	.LVL393
 8274 0b19 36080000 		.4byte	.LVL394
 8275 0b1d 0100     		.2byte	0x1
 8276 0b1f 54       		.byte	0x54
 8277 0b20 36080000 		.4byte	.LVL394
 8278 0b24 40080000 		.4byte	.LVL398
 8279 0b28 0100     		.2byte	0x1
 8280 0b2a 50       		.byte	0x50
ARM GAS  C:\Users\raytr\AppData\Local\Temp\ccu8NuaS.s 			page 171


 8281 0b2b 40080000 		.4byte	.LVL398
 8282 0b2f 42080000 		.4byte	.LVL399
 8283 0b33 0100     		.2byte	0x1
 8284 0b35 54       		.byte	0x54
 8285 0b36 42080000 		.4byte	.LVL399
 8286 0b3a 4C080000 		.4byte	.LVL403
 8287 0b3e 0100     		.2byte	0x1
 8288 0b40 50       		.byte	0x50
 8289 0b41 4C080000 		.4byte	.LVL403
 8290 0b45 4E080000 		.4byte	.LVL404
 8291 0b49 0100     		.2byte	0x1
 8292 0b4b 54       		.byte	0x54
 8293 0b4c 4E080000 		.4byte	.LVL404
 8294 0b50 52080000 		.4byte	.LVL405
 8295 0b54 0100     		.2byte	0x1
 8296 0b56 50       		.byte	0x50
 8297 0b57 52080000 		.4byte	.LVL405
 8298 0b5b 66080000 		.4byte	.LVL408
 8299 0b5f 0100     		.2byte	0x1
 8300 0b61 54       		.byte	0x54
 8301 0b62 66080000 		.4byte	.LVL408
 8302 0b66 6C080000 		.4byte	.LVL410
 8303 0b6a 0100     		.2byte	0x1
 8304 0b6c 50       		.byte	0x50
 8305 0b6d 6C080000 		.4byte	.LVL410
 8306 0b71 6E080000 		.4byte	.LVL411
 8307 0b75 0100     		.2byte	0x1
 8308 0b77 54       		.byte	0x54
 8309 0b78 6E080000 		.4byte	.LVL411
 8310 0b7c 78080000 		.4byte	.LVL414
 8311 0b80 0100     		.2byte	0x1
 8312 0b82 50       		.byte	0x50
 8313 0b83 78080000 		.4byte	.LVL414
 8314 0b87 7A080000 		.4byte	.LVL415
 8315 0b8b 0100     		.2byte	0x1
 8316 0b8d 54       		.byte	0x54
 8317 0b8e 7A080000 		.4byte	.LVL415
 8318 0b92 84080000 		.4byte	.LVL418
 8319 0b96 0100     		.2byte	0x1
 8320 0b98 50       		.byte	0x50
 8321 0b99 84080000 		.4byte	.LVL418
 8322 0b9d 86080000 		.4byte	.LVL419
 8323 0ba1 0100     		.2byte	0x1
 8324 0ba3 54       		.byte	0x54
 8325 0ba4 86080000 		.4byte	.LVL419
 8326 0ba8 90080000 		.4byte	.LVL422
 8327 0bac 0100     		.2byte	0x1
 8328 0bae 50       		.byte	0x50
 8329 0baf 90080000 		.4byte	.LVL422
 8330 0bb3 92080000 		.4byte	.LVL423
 8331 0bb7 0100     		.2byte	0x1
 8332 0bb9 54       		.byte	0x54
 8333 0bba 92080000 		.4byte	.LVL423
 8334 0bbe 9C080000 		.4byte	.LVL426
 8335 0bc2 0100     		.2byte	0x1
 8336 0bc4 50       		.byte	0x50
 8337 0bc5 9C080000 		.4byte	.LVL426
ARM GAS  C:\Users\raytr\AppData\Local\Temp\ccu8NuaS.s 			page 172


 8338 0bc9 9E080000 		.4byte	.LVL427
 8339 0bcd 0100     		.2byte	0x1
 8340 0bcf 54       		.byte	0x54
 8341 0bd0 9E080000 		.4byte	.LVL427
 8342 0bd4 A8080000 		.4byte	.LVL430
 8343 0bd8 0100     		.2byte	0x1
 8344 0bda 50       		.byte	0x50
 8345 0bdb A8080000 		.4byte	.LVL430
 8346 0bdf AA080000 		.4byte	.LVL431
 8347 0be3 0100     		.2byte	0x1
 8348 0be5 54       		.byte	0x54
 8349 0be6 AA080000 		.4byte	.LVL431
 8350 0bea B4080000 		.4byte	.LVL434
 8351 0bee 0100     		.2byte	0x1
 8352 0bf0 50       		.byte	0x50
 8353 0bf1 B4080000 		.4byte	.LVL434
 8354 0bf5 B6080000 		.4byte	.LVL435
 8355 0bf9 0100     		.2byte	0x1
 8356 0bfb 54       		.byte	0x54
 8357 0bfc B6080000 		.4byte	.LVL435
 8358 0c00 BA080000 		.4byte	.LVL436
 8359 0c04 0100     		.2byte	0x1
 8360 0c06 50       		.byte	0x50
 8361 0c07 BA080000 		.4byte	.LVL436
 8362 0c0b CE080000 		.4byte	.LVL439
 8363 0c0f 0100     		.2byte	0x1
 8364 0c11 54       		.byte	0x54
 8365 0c12 CE080000 		.4byte	.LVL439
 8366 0c16 D8080000 		.4byte	.LVL442
 8367 0c1a 0100     		.2byte	0x1
 8368 0c1c 50       		.byte	0x50
 8369 0c1d D8080000 		.4byte	.LVL442
 8370 0c21 DA080000 		.4byte	.LVL443
 8371 0c25 0100     		.2byte	0x1
 8372 0c27 54       		.byte	0x54
 8373 0c28 DA080000 		.4byte	.LVL443
 8374 0c2c E4080000 		.4byte	.LVL446
 8375 0c30 0100     		.2byte	0x1
 8376 0c32 50       		.byte	0x50
 8377 0c33 E4080000 		.4byte	.LVL446
 8378 0c37 E6080000 		.4byte	.LVL447
 8379 0c3b 0100     		.2byte	0x1
 8380 0c3d 54       		.byte	0x54
 8381 0c3e E6080000 		.4byte	.LVL447
 8382 0c42 F0080000 		.4byte	.LVL450
 8383 0c46 0100     		.2byte	0x1
 8384 0c48 50       		.byte	0x50
 8385 0c49 F0080000 		.4byte	.LVL450
 8386 0c4d F2080000 		.4byte	.LVL451
 8387 0c51 0100     		.2byte	0x1
 8388 0c53 54       		.byte	0x54
 8389 0c54 F2080000 		.4byte	.LVL451
 8390 0c58 FC080000 		.4byte	.LVL454
 8391 0c5c 0100     		.2byte	0x1
 8392 0c5e 50       		.byte	0x50
 8393 0c5f FC080000 		.4byte	.LVL454
 8394 0c63 FE080000 		.4byte	.LVL455
ARM GAS  C:\Users\raytr\AppData\Local\Temp\ccu8NuaS.s 			page 173


 8395 0c67 0100     		.2byte	0x1
 8396 0c69 54       		.byte	0x54
 8397 0c6a FE080000 		.4byte	.LVL455
 8398 0c6e 08090000 		.4byte	.LVL458
 8399 0c72 0100     		.2byte	0x1
 8400 0c74 50       		.byte	0x50
 8401 0c75 08090000 		.4byte	.LVL458
 8402 0c79 0A090000 		.4byte	.LVL459
 8403 0c7d 0100     		.2byte	0x1
 8404 0c7f 54       		.byte	0x54
 8405 0c80 0A090000 		.4byte	.LVL459
 8406 0c84 14090000 		.4byte	.LVL462
 8407 0c88 0100     		.2byte	0x1
 8408 0c8a 50       		.byte	0x50
 8409 0c8b 14090000 		.4byte	.LVL462
 8410 0c8f 16090000 		.4byte	.LVL463
 8411 0c93 0100     		.2byte	0x1
 8412 0c95 54       		.byte	0x54
 8413 0c96 16090000 		.4byte	.LVL463
 8414 0c9a 1A090000 		.4byte	.LVL464
 8415 0c9e 0100     		.2byte	0x1
 8416 0ca0 50       		.byte	0x50
 8417 0ca1 1A090000 		.4byte	.LVL464
 8418 0ca5 2E090000 		.4byte	.LVL467
 8419 0ca9 0100     		.2byte	0x1
 8420 0cab 54       		.byte	0x54
 8421 0cac 2E090000 		.4byte	.LVL467
 8422 0cb0 34090000 		.4byte	.LVL469
 8423 0cb4 0100     		.2byte	0x1
 8424 0cb6 50       		.byte	0x50
 8425 0cb7 34090000 		.4byte	.LVL469
 8426 0cbb 36090000 		.4byte	.LVL470
 8427 0cbf 0100     		.2byte	0x1
 8428 0cc1 54       		.byte	0x54
 8429 0cc2 36090000 		.4byte	.LVL470
 8430 0cc6 40090000 		.4byte	.LVL473
 8431 0cca 0100     		.2byte	0x1
 8432 0ccc 50       		.byte	0x50
 8433 0ccd 40090000 		.4byte	.LVL473
 8434 0cd1 42090000 		.4byte	.LVL474
 8435 0cd5 0100     		.2byte	0x1
 8436 0cd7 54       		.byte	0x54
 8437 0cd8 42090000 		.4byte	.LVL474
 8438 0cdc 4C090000 		.4byte	.LVL477
 8439 0ce0 0100     		.2byte	0x1
 8440 0ce2 50       		.byte	0x50
 8441 0ce3 4C090000 		.4byte	.LVL477
 8442 0ce7 4E090000 		.4byte	.LVL478
 8443 0ceb 0100     		.2byte	0x1
 8444 0ced 54       		.byte	0x54
 8445 0cee 4E090000 		.4byte	.LVL478
 8446 0cf2 58090000 		.4byte	.LVL481
 8447 0cf6 0100     		.2byte	0x1
 8448 0cf8 50       		.byte	0x50
 8449 0cf9 58090000 		.4byte	.LVL481
 8450 0cfd 5A090000 		.4byte	.LVL482
 8451 0d01 0100     		.2byte	0x1
ARM GAS  C:\Users\raytr\AppData\Local\Temp\ccu8NuaS.s 			page 174


 8452 0d03 54       		.byte	0x54
 8453 0d04 5A090000 		.4byte	.LVL482
 8454 0d08 64090000 		.4byte	.LVL485
 8455 0d0c 0100     		.2byte	0x1
 8456 0d0e 50       		.byte	0x50
 8457 0d0f 64090000 		.4byte	.LVL485
 8458 0d13 66090000 		.4byte	.LVL486
 8459 0d17 0100     		.2byte	0x1
 8460 0d19 54       		.byte	0x54
 8461 0d1a 66090000 		.4byte	.LVL486
 8462 0d1e 70090000 		.4byte	.LVL489
 8463 0d22 0100     		.2byte	0x1
 8464 0d24 50       		.byte	0x50
 8465 0d25 70090000 		.4byte	.LVL489
 8466 0d29 72090000 		.4byte	.LVL490
 8467 0d2d 0100     		.2byte	0x1
 8468 0d2f 54       		.byte	0x54
 8469 0d30 72090000 		.4byte	.LVL490
 8470 0d34 7C090000 		.4byte	.LVL493
 8471 0d38 0100     		.2byte	0x1
 8472 0d3a 50       		.byte	0x50
 8473 0d3b 7C090000 		.4byte	.LVL493
 8474 0d3f 7E090000 		.4byte	.LVL494
 8475 0d43 0100     		.2byte	0x1
 8476 0d45 54       		.byte	0x54
 8477 0d46 7E090000 		.4byte	.LVL494
 8478 0d4a 82090000 		.4byte	.LVL495
 8479 0d4e 0100     		.2byte	0x1
 8480 0d50 50       		.byte	0x50
 8481 0d51 82090000 		.4byte	.LVL495
 8482 0d55 96090000 		.4byte	.LVL498
 8483 0d59 0100     		.2byte	0x1
 8484 0d5b 54       		.byte	0x54
 8485 0d5c 96090000 		.4byte	.LVL498
 8486 0d60 98090000 		.4byte	.LVL499
 8487 0d64 0100     		.2byte	0x1
 8488 0d66 50       		.byte	0x50
 8489 0d67 98090000 		.4byte	.LVL499
 8490 0d6b A8090000 		.4byte	.LVL501
 8491 0d6f 0100     		.2byte	0x1
 8492 0d71 54       		.byte	0x54
 8493 0d72 A8090000 		.4byte	.LVL501
 8494 0d76 AA090000 		.4byte	.LVL502
 8495 0d7a 0100     		.2byte	0x1
 8496 0d7c 50       		.byte	0x50
 8497 0d7d AA090000 		.4byte	.LVL502
 8498 0d81 AC090000 		.4byte	.LVL503
 8499 0d85 0100     		.2byte	0x1
 8500 0d87 54       		.byte	0x54
 8501 0d88 AC090000 		.4byte	.LVL503
 8502 0d8c AE090000 		.4byte	.LVL504
 8503 0d90 0100     		.2byte	0x1
 8504 0d92 50       		.byte	0x50
 8505 0d93 AE090000 		.4byte	.LVL504
 8506 0d97 B0090000 		.4byte	.LVL505
 8507 0d9b 0100     		.2byte	0x1
 8508 0d9d 54       		.byte	0x54
ARM GAS  C:\Users\raytr\AppData\Local\Temp\ccu8NuaS.s 			page 175


 8509 0d9e B0090000 		.4byte	.LVL505
 8510 0da2 B3090000 		.4byte	.LVL506-1
 8511 0da6 0100     		.2byte	0x1
 8512 0da8 50       		.byte	0x50
 8513 0da9 B3090000 		.4byte	.LVL506-1
 8514 0dad C8090000 		.4byte	.LVL510
 8515 0db1 0100     		.2byte	0x1
 8516 0db3 54       		.byte	0x54
 8517 0db4 C8090000 		.4byte	.LVL510
 8518 0db8 CB090000 		.4byte	.LVL511-1
 8519 0dbc 0100     		.2byte	0x1
 8520 0dbe 50       		.byte	0x50
 8521 0dbf CB090000 		.4byte	.LVL511-1
 8522 0dc3 D2090000 		.4byte	.LVL513
 8523 0dc7 0100     		.2byte	0x1
 8524 0dc9 54       		.byte	0x54
 8525 0dca D2090000 		.4byte	.LVL513
 8526 0dce D5090000 		.4byte	.LVL514-1
 8527 0dd2 0100     		.2byte	0x1
 8528 0dd4 50       		.byte	0x50
 8529 0dd5 D5090000 		.4byte	.LVL514-1
 8530 0dd9 E0090000 		.4byte	.LVL516
 8531 0ddd 0100     		.2byte	0x1
 8532 0ddf 54       		.byte	0x54
 8533 0de0 E0090000 		.4byte	.LVL516
 8534 0de4 E2090000 		.4byte	.LVL517
 8535 0de8 0100     		.2byte	0x1
 8536 0dea 50       		.byte	0x50
 8537 0deb E2090000 		.4byte	.LVL517
 8538 0def E4090000 		.4byte	.LVL518
 8539 0df3 0100     		.2byte	0x1
 8540 0df5 54       		.byte	0x54
 8541 0df6 E4090000 		.4byte	.LVL518
 8542 0dfa E9090000 		.4byte	.LVL519-1
 8543 0dfe 0100     		.2byte	0x1
 8544 0e00 50       		.byte	0x50
 8545 0e01 E9090000 		.4byte	.LVL519-1
 8546 0e05 F2090000 		.4byte	.LVL521
 8547 0e09 0100     		.2byte	0x1
 8548 0e0b 54       		.byte	0x54
 8549 0e0c F2090000 		.4byte	.LVL521
 8550 0e10 F4090000 		.4byte	.LVL522
 8551 0e14 0100     		.2byte	0x1
 8552 0e16 50       		.byte	0x50
 8553 0e17 F4090000 		.4byte	.LVL522
 8554 0e1b F6090000 		.4byte	.LVL523
 8555 0e1f 0100     		.2byte	0x1
 8556 0e21 54       		.byte	0x54
 8557 0e22 F6090000 		.4byte	.LVL523
 8558 0e26 F8090000 		.4byte	.LVL524
 8559 0e2a 0100     		.2byte	0x1
 8560 0e2c 50       		.byte	0x50
 8561 0e2d F8090000 		.4byte	.LVL524
 8562 0e31 FA090000 		.4byte	.LVL525
 8563 0e35 0100     		.2byte	0x1
 8564 0e37 54       		.byte	0x54
 8565 0e38 FA090000 		.4byte	.LVL525
ARM GAS  C:\Users\raytr\AppData\Local\Temp\ccu8NuaS.s 			page 176


 8566 0e3c FC090000 		.4byte	.LVL526
 8567 0e40 0100     		.2byte	0x1
 8568 0e42 50       		.byte	0x50
 8569 0e43 FC090000 		.4byte	.LVL526
 8570 0e47 FE090000 		.4byte	.LVL527
 8571 0e4b 0100     		.2byte	0x1
 8572 0e4d 54       		.byte	0x54
 8573 0e4e FE090000 		.4byte	.LVL527
 8574 0e52 000A0000 		.4byte	.LVL528
 8575 0e56 0100     		.2byte	0x1
 8576 0e58 50       		.byte	0x50
 8577 0e59 000A0000 		.4byte	.LVL528
 8578 0e5d 020A0000 		.4byte	.LVL529
 8579 0e61 0100     		.2byte	0x1
 8580 0e63 54       		.byte	0x54
 8581 0e64 020A0000 		.4byte	.LVL529
 8582 0e68 040A0000 		.4byte	.LVL530
 8583 0e6c 0100     		.2byte	0x1
 8584 0e6e 50       		.byte	0x50
 8585 0e6f 040A0000 		.4byte	.LVL530
 8586 0e73 060A0000 		.4byte	.LVL531
 8587 0e77 0100     		.2byte	0x1
 8588 0e79 54       		.byte	0x54
 8589 0e7a 060A0000 		.4byte	.LVL531
 8590 0e7e 080A0000 		.4byte	.LVL532
 8591 0e82 0100     		.2byte	0x1
 8592 0e84 50       		.byte	0x50
 8593 0e85 080A0000 		.4byte	.LVL532
 8594 0e89 0A0A0000 		.4byte	.LVL533
 8595 0e8d 0100     		.2byte	0x1
 8596 0e8f 54       		.byte	0x54
 8597 0e90 0A0A0000 		.4byte	.LVL533
 8598 0e94 0C0A0000 		.4byte	.LVL534
 8599 0e98 0100     		.2byte	0x1
 8600 0e9a 50       		.byte	0x50
 8601 0e9b 0C0A0000 		.4byte	.LVL534
 8602 0e9f 0E0A0000 		.4byte	.LVL535
 8603 0ea3 0100     		.2byte	0x1
 8604 0ea5 54       		.byte	0x54
 8605 0ea6 0E0A0000 		.4byte	.LVL535
 8606 0eaa 100A0000 		.4byte	.LVL536
 8607 0eae 0100     		.2byte	0x1
 8608 0eb0 50       		.byte	0x50
 8609 0eb1 100A0000 		.4byte	.LVL536
 8610 0eb5 120A0000 		.4byte	.LVL537
 8611 0eb9 0100     		.2byte	0x1
 8612 0ebb 54       		.byte	0x54
 8613 0ebc 120A0000 		.4byte	.LVL537
 8614 0ec0 140A0000 		.4byte	.LVL538
 8615 0ec4 0100     		.2byte	0x1
 8616 0ec6 50       		.byte	0x50
 8617 0ec7 140A0000 		.4byte	.LVL538
 8618 0ecb 160A0000 		.4byte	.LVL539
 8619 0ecf 0100     		.2byte	0x1
 8620 0ed1 54       		.byte	0x54
 8621 0ed2 160A0000 		.4byte	.LVL539
 8622 0ed6 190A0000 		.4byte	.LVL540-1
ARM GAS  C:\Users\raytr\AppData\Local\Temp\ccu8NuaS.s 			page 177


 8623 0eda 0100     		.2byte	0x1
 8624 0edc 50       		.byte	0x50
 8625 0edd 190A0000 		.4byte	.LVL540-1
 8626 0ee1 2E0A0000 		.4byte	.LVL544
 8627 0ee5 0100     		.2byte	0x1
 8628 0ee7 54       		.byte	0x54
 8629 0ee8 2E0A0000 		.4byte	.LVL544
 8630 0eec 300A0000 		.4byte	.LVL545
 8631 0ef0 0100     		.2byte	0x1
 8632 0ef2 50       		.byte	0x50
 8633 0ef3 300A0000 		.4byte	.LVL545
 8634 0ef7 320A0000 		.4byte	.LVL546
 8635 0efb 0100     		.2byte	0x1
 8636 0efd 54       		.byte	0x54
 8637 0efe 320A0000 		.4byte	.LVL546
 8638 0f02 340A0000 		.4byte	.LVL547
 8639 0f06 0100     		.2byte	0x1
 8640 0f08 50       		.byte	0x50
 8641 0f09 340A0000 		.4byte	.LVL547
 8642 0f0d 360A0000 		.4byte	.LVL548
 8643 0f11 0100     		.2byte	0x1
 8644 0f13 54       		.byte	0x54
 8645 0f14 360A0000 		.4byte	.LVL548
 8646 0f18 3B0A0000 		.4byte	.LVL549-1
 8647 0f1c 0100     		.2byte	0x1
 8648 0f1e 50       		.byte	0x50
 8649 0f1f 3B0A0000 		.4byte	.LVL549-1
 8650 0f23 440A0000 		.4byte	.LVL551
 8651 0f27 0100     		.2byte	0x1
 8652 0f29 54       		.byte	0x54
 8653 0f2a 440A0000 		.4byte	.LVL551
 8654 0f2e 460A0000 		.4byte	.LVL552
 8655 0f32 0100     		.2byte	0x1
 8656 0f34 50       		.byte	0x50
 8657 0f35 460A0000 		.4byte	.LVL552
 8658 0f39 480A0000 		.4byte	.LVL553
 8659 0f3d 0100     		.2byte	0x1
 8660 0f3f 54       		.byte	0x54
 8661 0f40 480A0000 		.4byte	.LVL553
 8662 0f44 4A0A0000 		.4byte	.LVL554
 8663 0f48 0100     		.2byte	0x1
 8664 0f4a 50       		.byte	0x50
 8665 0f4b 4A0A0000 		.4byte	.LVL554
 8666 0f4f 4C0A0000 		.4byte	.LVL555
 8667 0f53 0100     		.2byte	0x1
 8668 0f55 54       		.byte	0x54
 8669 0f56 4C0A0000 		.4byte	.LVL555
 8670 0f5a 4E0A0000 		.4byte	.LVL556
 8671 0f5e 0100     		.2byte	0x1
 8672 0f60 50       		.byte	0x50
 8673 0f61 4E0A0000 		.4byte	.LVL556
 8674 0f65 500A0000 		.4byte	.LVL557
 8675 0f69 0100     		.2byte	0x1
 8676 0f6b 54       		.byte	0x54
 8677 0f6c 500A0000 		.4byte	.LVL557
 8678 0f70 530A0000 		.4byte	.LVL558-1
 8679 0f74 0100     		.2byte	0x1
ARM GAS  C:\Users\raytr\AppData\Local\Temp\ccu8NuaS.s 			page 178


 8680 0f76 50       		.byte	0x50
 8681 0f77 530A0000 		.4byte	.LVL558-1
 8682 0f7b 680A0000 		.4byte	.LVL562
 8683 0f7f 0100     		.2byte	0x1
 8684 0f81 54       		.byte	0x54
 8685 0f82 680A0000 		.4byte	.LVL562
 8686 0f86 6A0A0000 		.4byte	.LVL563
 8687 0f8a 0100     		.2byte	0x1
 8688 0f8c 50       		.byte	0x50
 8689 0f8d 6A0A0000 		.4byte	.LVL563
 8690 0f91 6C0A0000 		.4byte	.LVL564
 8691 0f95 0100     		.2byte	0x1
 8692 0f97 54       		.byte	0x54
 8693 0f98 6C0A0000 		.4byte	.LVL564
 8694 0f9c 710A0000 		.4byte	.LVL565-1
 8695 0fa0 0100     		.2byte	0x1
 8696 0fa2 50       		.byte	0x50
 8697 0fa3 710A0000 		.4byte	.LVL565-1
 8698 0fa7 7A0A0000 		.4byte	.LVL567
 8699 0fab 0100     		.2byte	0x1
 8700 0fad 54       		.byte	0x54
 8701 0fae 7A0A0000 		.4byte	.LVL567
 8702 0fb2 7C0A0000 		.4byte	.LVL568
 8703 0fb6 0100     		.2byte	0x1
 8704 0fb8 50       		.byte	0x50
 8705 0fb9 7C0A0000 		.4byte	.LVL568
 8706 0fbd 7E0A0000 		.4byte	.LVL569
 8707 0fc1 0100     		.2byte	0x1
 8708 0fc3 54       		.byte	0x54
 8709 0fc4 7E0A0000 		.4byte	.LVL569
 8710 0fc8 810A0000 		.4byte	.LVL570-1
 8711 0fcc 0100     		.2byte	0x1
 8712 0fce 50       		.byte	0x50
 8713 0fcf 810A0000 		.4byte	.LVL570-1
 8714 0fd3 960A0000 		.4byte	.LVL572
 8715 0fd7 0100     		.2byte	0x1
 8716 0fd9 54       		.byte	0x54
 8717 0fda 960A0000 		.4byte	.LVL572
 8718 0fde 980A0000 		.4byte	.LVL573
 8719 0fe2 0100     		.2byte	0x1
 8720 0fe4 50       		.byte	0x50
 8721 0fe5 980A0000 		.4byte	.LVL573
 8722 0fe9 9A0A0000 		.4byte	.LVL574
 8723 0fed 0100     		.2byte	0x1
 8724 0fef 54       		.byte	0x54
 8725 0ff0 9A0A0000 		.4byte	.LVL574
 8726 0ff4 A20A0000 		.4byte	.LVL575
 8727 0ff8 0100     		.2byte	0x1
 8728 0ffa 50       		.byte	0x50
 8729 0ffb A20A0000 		.4byte	.LVL575
 8730 0fff AE0A0000 		.4byte	.LVL577
 8731 1003 0100     		.2byte	0x1
 8732 1005 54       		.byte	0x54
 8733 1006 AE0A0000 		.4byte	.LVL577
 8734 100a B00A0000 		.4byte	.LVL578
 8735 100e 0100     		.2byte	0x1
 8736 1010 50       		.byte	0x50
ARM GAS  C:\Users\raytr\AppData\Local\Temp\ccu8NuaS.s 			page 179


 8737 1011 B00A0000 		.4byte	.LVL578
 8738 1015 B20A0000 		.4byte	.LVL579
 8739 1019 0100     		.2byte	0x1
 8740 101b 54       		.byte	0x54
 8741 101c B20A0000 		.4byte	.LVL579
 8742 1020 B70A0000 		.4byte	.LVL580-1
 8743 1024 0100     		.2byte	0x1
 8744 1026 50       		.byte	0x50
 8745 1027 B70A0000 		.4byte	.LVL580-1
 8746 102b C00A0000 		.4byte	.LVL582
 8747 102f 0100     		.2byte	0x1
 8748 1031 54       		.byte	0x54
 8749 1032 C00A0000 		.4byte	.LVL582
 8750 1036 C20A0000 		.4byte	.LVL583
 8751 103a 0100     		.2byte	0x1
 8752 103c 50       		.byte	0x50
 8753 103d C20A0000 		.4byte	.LVL583
 8754 1041 C40A0000 		.4byte	.LVL584
 8755 1045 0100     		.2byte	0x1
 8756 1047 54       		.byte	0x54
 8757 1048 C40A0000 		.4byte	.LVL584
 8758 104c C70A0000 		.4byte	.LVL585-1
 8759 1050 0100     		.2byte	0x1
 8760 1052 50       		.byte	0x50
 8761 1053 C70A0000 		.4byte	.LVL585-1
 8762 1057 D80A0000 		.4byte	.LVL588
 8763 105b 0100     		.2byte	0x1
 8764 105d 54       		.byte	0x54
 8765 105e D80A0000 		.4byte	.LVL588
 8766 1062 DB0A0000 		.4byte	.LVL589-1
 8767 1066 0100     		.2byte	0x1
 8768 1068 50       		.byte	0x50
 8769 1069 DB0A0000 		.4byte	.LVL589-1
 8770 106d EC0A0000 		.4byte	.LVL591
 8771 1071 0100     		.2byte	0x1
 8772 1073 54       		.byte	0x54
 8773 1074 EC0A0000 		.4byte	.LVL591
 8774 1078 F10A0000 		.4byte	.LVL592-1
 8775 107c 0100     		.2byte	0x1
 8776 107e 50       		.byte	0x50
 8777 107f F10A0000 		.4byte	.LVL592-1
 8778 1083 FA0A0000 		.4byte	.LVL594
 8779 1087 0100     		.2byte	0x1
 8780 1089 54       		.byte	0x54
 8781 108a FA0A0000 		.4byte	.LVL594
 8782 108e FC0A0000 		.4byte	.LVL595
 8783 1092 0100     		.2byte	0x1
 8784 1094 50       		.byte	0x50
 8785 1095 FC0A0000 		.4byte	.LVL595
 8786 1099 FE0A0000 		.4byte	.LVL596
 8787 109d 0100     		.2byte	0x1
 8788 109f 54       		.byte	0x54
 8789 10a0 FE0A0000 		.4byte	.LVL596
 8790 10a4 010B0000 		.4byte	.LVL597-1
 8791 10a8 0100     		.2byte	0x1
 8792 10aa 50       		.byte	0x50
 8793 10ab 010B0000 		.4byte	.LVL597-1
ARM GAS  C:\Users\raytr\AppData\Local\Temp\ccu8NuaS.s 			page 180


 8794 10af 1C0B0000 		.4byte	.LVL599
 8795 10b3 0100     		.2byte	0x1
 8796 10b5 54       		.byte	0x54
 8797 10b6 1C0B0000 		.4byte	.LVL599
 8798 10ba 1E0B0000 		.4byte	.LVL600
 8799 10be 0100     		.2byte	0x1
 8800 10c0 50       		.byte	0x50
 8801 10c1 1E0B0000 		.4byte	.LVL600
 8802 10c5 200B0000 		.4byte	.LVL601
 8803 10c9 0100     		.2byte	0x1
 8804 10cb 54       		.byte	0x54
 8805 10cc 200B0000 		.4byte	.LVL601
 8806 10d0 280B0000 		.4byte	.LVL602
 8807 10d4 0100     		.2byte	0x1
 8808 10d6 50       		.byte	0x50
 8809 10d7 280B0000 		.4byte	.LVL602
 8810 10db 3A0B0000 		.4byte	.LVL604
 8811 10df 0100     		.2byte	0x1
 8812 10e1 54       		.byte	0x54
 8813 10e2 3A0B0000 		.4byte	.LVL604
 8814 10e6 3C0B0000 		.4byte	.LVL605
 8815 10ea 0100     		.2byte	0x1
 8816 10ec 50       		.byte	0x50
 8817 10ed 3C0B0000 		.4byte	.LVL605
 8818 10f1 3E0B0000 		.4byte	.LVL606
 8819 10f5 0100     		.2byte	0x1
 8820 10f7 54       		.byte	0x54
 8821 10f8 3E0B0000 		.4byte	.LVL606
 8822 10fc 430B0000 		.4byte	.LVL607-1
 8823 1100 0100     		.2byte	0x1
 8824 1102 50       		.byte	0x50
 8825 1103 430B0000 		.4byte	.LVL607-1
 8826 1107 4C0B0000 		.4byte	.LVL609
 8827 110b 0100     		.2byte	0x1
 8828 110d 54       		.byte	0x54
 8829 110e 4C0B0000 		.4byte	.LVL609
 8830 1112 4E0B0000 		.4byte	.LVL610
 8831 1116 0100     		.2byte	0x1
 8832 1118 50       		.byte	0x50
 8833 1119 4E0B0000 		.4byte	.LVL610
 8834 111d 500B0000 		.4byte	.LVL611
 8835 1121 0100     		.2byte	0x1
 8836 1123 54       		.byte	0x54
 8837 1124 500B0000 		.4byte	.LVL611
 8838 1128 550B0000 		.4byte	.LVL612-1
 8839 112c 0100     		.2byte	0x1
 8840 112e 50       		.byte	0x50
 8841 112f 550B0000 		.4byte	.LVL612-1
 8842 1133 640B0000 		.4byte	.LVL614
 8843 1137 0100     		.2byte	0x1
 8844 1139 54       		.byte	0x54
 8845 113a 640B0000 		.4byte	.LVL614
 8846 113e 6A0B0000 		.4byte	.LVL615
 8847 1142 0100     		.2byte	0x1
 8848 1144 50       		.byte	0x50
 8849 1145 6A0B0000 		.4byte	.LVL615
 8850 1149 6C0B0000 		.4byte	.LVL616
ARM GAS  C:\Users\raytr\AppData\Local\Temp\ccu8NuaS.s 			page 181


 8851 114d 0100     		.2byte	0x1
 8852 114f 54       		.byte	0x54
 8853 1150 6C0B0000 		.4byte	.LVL616
 8854 1154 6F0B0000 		.4byte	.LVL617-1
 8855 1158 0100     		.2byte	0x1
 8856 115a 50       		.byte	0x50
 8857 115b 6F0B0000 		.4byte	.LVL617-1
 8858 115f 860B0000 		.4byte	.LVL619
 8859 1163 0100     		.2byte	0x1
 8860 1165 54       		.byte	0x54
 8861 1166 860B0000 		.4byte	.LVL619
 8862 116a 890B0000 		.4byte	.LVL620-1
 8863 116e 0100     		.2byte	0x1
 8864 1170 50       		.byte	0x50
 8865 1171 890B0000 		.4byte	.LVL620-1
 8866 1175 8E0B0000 		.4byte	.LVL621
 8867 1179 0100     		.2byte	0x1
 8868 117b 54       		.byte	0x54
 8869 117c 8E0B0000 		.4byte	.LVL621
 8870 1180 900B0000 		.4byte	.LVL622
 8871 1184 0100     		.2byte	0x1
 8872 1186 50       		.byte	0x50
 8873 1187 900B0000 		.4byte	.LVL622
 8874 118b 920B0000 		.4byte	.LVL623
 8875 118f 0100     		.2byte	0x1
 8876 1191 54       		.byte	0x54
 8877 1192 920B0000 		.4byte	.LVL623
 8878 1196 940B0000 		.4byte	.LVL624
 8879 119a 0100     		.2byte	0x1
 8880 119c 50       		.byte	0x50
 8881 119d 940B0000 		.4byte	.LVL624
 8882 11a1 B20B0000 		.4byte	.LFE16
 8883 11a5 0100     		.2byte	0x1
 8884 11a7 54       		.byte	0x54
 8885 11a8 00000000 		.4byte	0
 8886 11ac 00000000 		.4byte	0
 8887              	.LLST6:
 8888 11b0 00000000 		.4byte	.LVL18
 8889 11b4 06000000 		.4byte	.LVL20
 8890 11b8 0100     		.2byte	0x1
 8891 11ba 51       		.byte	0x51
 8892 11bb 06000000 		.4byte	.LVL20
 8893 11bf B20B0000 		.4byte	.LFE16
 8894 11c3 0400     		.2byte	0x4
 8895 11c5 F3       		.byte	0xf3
 8896 11c6 01       		.uleb128 0x1
 8897 11c7 51       		.byte	0x51
 8898 11c8 9F       		.byte	0x9f
 8899 11c9 00000000 		.4byte	0
 8900 11cd 00000000 		.4byte	0
 8901              	.LLST7:
 8902 11d1 04000000 		.4byte	.LVL19
 8903 11d5 12020000 		.4byte	.LVL22
 8904 11d9 0200     		.2byte	0x2
 8905 11db 30       		.byte	0x30
 8906 11dc 9F       		.byte	0x9f
 8907 11dd 12020000 		.4byte	.LVL22
ARM GAS  C:\Users\raytr\AppData\Local\Temp\ccu8NuaS.s 			page 182


 8908 11e1 24020000 		.4byte	.LVL25
 8909 11e5 0200     		.2byte	0x2
 8910 11e7 33       		.byte	0x33
 8911 11e8 9F       		.byte	0x9f
 8912 11e9 24020000 		.4byte	.LVL25
 8913 11ed 46020000 		.4byte	.LVL32
 8914 11f1 0200     		.2byte	0x2
 8915 11f3 32       		.byte	0x32
 8916 11f4 9F       		.byte	0x9f
 8917 11f5 46020000 		.4byte	.LVL32
 8918 11f9 6A020000 		.4byte	.LVL37
 8919 11fd 0200     		.2byte	0x2
 8920 11ff 35       		.byte	0x35
 8921 1200 9F       		.byte	0x9f
 8922 1201 6A020000 		.4byte	.LVL37
 8923 1205 9E020000 		.4byte	.LVL48
 8924 1209 0200     		.2byte	0x2
 8925 120b 32       		.byte	0x32
 8926 120c 9F       		.byte	0x9f
 8927 120d 9E020000 		.4byte	.LVL48
 8928 1211 B0020000 		.4byte	.LVL51
 8929 1215 0200     		.2byte	0x2
 8930 1217 33       		.byte	0x33
 8931 1218 9F       		.byte	0x9f
 8932 1219 B0020000 		.4byte	.LVL51
 8933 121d D2020000 		.4byte	.LVL58
 8934 1221 0200     		.2byte	0x2
 8935 1223 32       		.byte	0x32
 8936 1224 9F       		.byte	0x9f
 8937 1225 D2020000 		.4byte	.LVL58
 8938 1229 E6020000 		.4byte	.LVL63
 8939 122d 0200     		.2byte	0x2
 8940 122f 33       		.byte	0x33
 8941 1230 9F       		.byte	0x9f
 8942 1231 E6020000 		.4byte	.LVL63
 8943 1235 30030000 		.4byte	.LVL79
 8944 1239 0200     		.2byte	0x2
 8945 123b 32       		.byte	0x32
 8946 123c 9F       		.byte	0x9f
 8947 123d 30030000 		.4byte	.LVL79
 8948 1241 4E030000 		.4byte	.LVL84
 8949 1245 0200     		.2byte	0x2
 8950 1247 33       		.byte	0x33
 8951 1248 9F       		.byte	0x9f
 8952 1249 4E030000 		.4byte	.LVL84
 8953 124d 8C030000 		.4byte	.LVL96
 8954 1251 0200     		.2byte	0x2
 8955 1253 32       		.byte	0x32
 8956 1254 9F       		.byte	0x9f
 8957 1255 8C030000 		.4byte	.LVL96
 8958 1259 98030000 		.4byte	.LVL98
 8959 125d 0200     		.2byte	0x2
 8960 125f 33       		.byte	0x33
 8961 1260 9F       		.byte	0x9f
 8962 1261 98030000 		.4byte	.LVL98
 8963 1265 E6030000 		.4byte	.LVL115
 8964 1269 0200     		.2byte	0x2
ARM GAS  C:\Users\raytr\AppData\Local\Temp\ccu8NuaS.s 			page 183


 8965 126b 32       		.byte	0x32
 8966 126c 9F       		.byte	0x9f
 8967 126d E6030000 		.4byte	.LVL115
 8968 1271 FC030000 		.4byte	.LVL119
 8969 1275 0200     		.2byte	0x2
 8970 1277 33       		.byte	0x33
 8971 1278 9F       		.byte	0x9f
 8972 1279 FC030000 		.4byte	.LVL119
 8973 127d 1A040000 		.4byte	.LVL124
 8974 1281 0200     		.2byte	0x2
 8975 1283 32       		.byte	0x32
 8976 1284 9F       		.byte	0x9f
 8977 1285 1A040000 		.4byte	.LVL124
 8978 1289 30040000 		.4byte	.LVL127
 8979 128d 0200     		.2byte	0x2
 8980 128f 33       		.byte	0x33
 8981 1290 9F       		.byte	0x9f
 8982 1291 30040000 		.4byte	.LVL127
 8983 1295 46040000 		.4byte	.LVL132
 8984 1299 0200     		.2byte	0x2
 8985 129b 32       		.byte	0x32
 8986 129c 9F       		.byte	0x9f
 8987 129d 46040000 		.4byte	.LVL132
 8988 12a1 52040000 		.4byte	.LVL134
 8989 12a5 0200     		.2byte	0x2
 8990 12a7 33       		.byte	0x33
 8991 12a8 9F       		.byte	0x9f
 8992 12a9 52040000 		.4byte	.LVL134
 8993 12ad 8C040000 		.4byte	.LVL145
 8994 12b1 0200     		.2byte	0x2
 8995 12b3 32       		.byte	0x32
 8996 12b4 9F       		.byte	0x9f
 8997 12b5 8C040000 		.4byte	.LVL145
 8998 12b9 B4040000 		.4byte	.LVL155
 8999 12bd 0200     		.2byte	0x2
 9000 12bf 31       		.byte	0x31
 9001 12c0 9F       		.byte	0x9f
 9002 12c1 B4040000 		.4byte	.LVL155
 9003 12c5 C8040000 		.4byte	.LVL158
 9004 12c9 0200     		.2byte	0x2
 9005 12cb 32       		.byte	0x32
 9006 12cc 9F       		.byte	0x9f
 9007 12cd C8040000 		.4byte	.LVL158
 9008 12d1 F8040000 		.4byte	.LVL170
 9009 12d5 0200     		.2byte	0x2
 9010 12d7 31       		.byte	0x31
 9011 12d8 9F       		.byte	0x9f
 9012 12d9 F8040000 		.4byte	.LVL170
 9013 12dd 0C050000 		.4byte	.LVL173
 9014 12e1 0200     		.2byte	0x2
 9015 12e3 32       		.byte	0x32
 9016 12e4 9F       		.byte	0x9f
 9017 12e5 0C050000 		.4byte	.LVL173
 9018 12e9 3C050000 		.4byte	.LVL185
 9019 12ed 0200     		.2byte	0x2
 9020 12ef 31       		.byte	0x31
 9021 12f0 9F       		.byte	0x9f
ARM GAS  C:\Users\raytr\AppData\Local\Temp\ccu8NuaS.s 			page 184


 9022 12f1 3C050000 		.4byte	.LVL185
 9023 12f5 50050000 		.4byte	.LVL188
 9024 12f9 0200     		.2byte	0x2
 9025 12fb 32       		.byte	0x32
 9026 12fc 9F       		.byte	0x9f
 9027 12fd 50050000 		.4byte	.LVL188
 9028 1301 80050000 		.4byte	.LVL200
 9029 1305 0200     		.2byte	0x2
 9030 1307 31       		.byte	0x31
 9031 1308 9F       		.byte	0x9f
 9032 1309 80050000 		.4byte	.LVL200
 9033 130d 94050000 		.4byte	.LVL203
 9034 1311 0200     		.2byte	0x2
 9035 1313 32       		.byte	0x32
 9036 1314 9F       		.byte	0x9f
 9037 1315 94050000 		.4byte	.LVL203
 9038 1319 C4050000 		.4byte	.LVL215
 9039 131d 0200     		.2byte	0x2
 9040 131f 31       		.byte	0x31
 9041 1320 9F       		.byte	0x9f
 9042 1321 C4050000 		.4byte	.LVL215
 9043 1325 D8050000 		.4byte	.LVL218
 9044 1329 0200     		.2byte	0x2
 9045 132b 32       		.byte	0x32
 9046 132c 9F       		.byte	0x9f
 9047 132d D8050000 		.4byte	.LVL218
 9048 1331 08060000 		.4byte	.LVL230
 9049 1335 0200     		.2byte	0x2
 9050 1337 31       		.byte	0x31
 9051 1338 9F       		.byte	0x9f
 9052 1339 08060000 		.4byte	.LVL230
 9053 133d 1C060000 		.4byte	.LVL233
 9054 1341 0200     		.2byte	0x2
 9055 1343 32       		.byte	0x32
 9056 1344 9F       		.byte	0x9f
 9057 1345 1C060000 		.4byte	.LVL233
 9058 1349 24060000 		.4byte	.LVL235
 9059 134d 0200     		.2byte	0x2
 9060 134f 31       		.byte	0x31
 9061 1350 9F       		.byte	0x9f
 9062 1351 24060000 		.4byte	.LVL235
 9063 1355 86060000 		.4byte	.LVL256
 9064 1359 0200     		.2byte	0x2
 9065 135b 32       		.byte	0x32
 9066 135c 9F       		.byte	0x9f
 9067 135d 86060000 		.4byte	.LVL256
 9068 1361 B6060000 		.4byte	.LVL268
 9069 1365 0200     		.2byte	0x2
 9070 1367 31       		.byte	0x31
 9071 1368 9F       		.byte	0x9f
 9072 1369 B6060000 		.4byte	.LVL268
 9073 136d CA060000 		.4byte	.LVL271
 9074 1371 0200     		.2byte	0x2
 9075 1373 32       		.byte	0x32
 9076 1374 9F       		.byte	0x9f
 9077 1375 CA060000 		.4byte	.LVL271
 9078 1379 12070000 		.4byte	.LVL295
ARM GAS  C:\Users\raytr\AppData\Local\Temp\ccu8NuaS.s 			page 185


 9079 137d 0200     		.2byte	0x2
 9080 137f 31       		.byte	0x31
 9081 1380 9F       		.byte	0x9f
 9082 1381 12070000 		.4byte	.LVL295
 9083 1385 2A070000 		.4byte	.LVL299
 9084 1389 0200     		.2byte	0x2
 9085 138b 32       		.byte	0x32
 9086 138c 9F       		.byte	0x9f
 9087 138d 2A070000 		.4byte	.LVL299
 9088 1391 7C070000 		.4byte	.LVL328
 9089 1395 0200     		.2byte	0x2
 9090 1397 31       		.byte	0x31
 9091 1398 9F       		.byte	0x9f
 9092 1399 7C070000 		.4byte	.LVL328
 9093 139d 94070000 		.4byte	.LVL332
 9094 13a1 0200     		.2byte	0x2
 9095 13a3 32       		.byte	0x32
 9096 13a4 9F       		.byte	0x9f
 9097 13a5 94070000 		.4byte	.LVL332
 9098 13a9 E6070000 		.4byte	.LVL367
 9099 13ad 0200     		.2byte	0x2
 9100 13af 31       		.byte	0x31
 9101 13b0 9F       		.byte	0x9f
 9102 13b1 E6070000 		.4byte	.LVL367
 9103 13b5 FE070000 		.4byte	.LVL371
 9104 13b9 0200     		.2byte	0x2
 9105 13bb 32       		.byte	0x32
 9106 13bc 9F       		.byte	0x9f
 9107 13bd FE070000 		.4byte	.LVL371
 9108 13c1 4E080000 		.4byte	.LVL404
 9109 13c5 0200     		.2byte	0x2
 9110 13c7 31       		.byte	0x31
 9111 13c8 9F       		.byte	0x9f
 9112 13c9 4E080000 		.4byte	.LVL404
 9113 13cd 66080000 		.4byte	.LVL408
 9114 13d1 0200     		.2byte	0x2
 9115 13d3 32       		.byte	0x32
 9116 13d4 9F       		.byte	0x9f
 9117 13d5 66080000 		.4byte	.LVL408
 9118 13d9 B6080000 		.4byte	.LVL435
 9119 13dd 0200     		.2byte	0x2
 9120 13df 31       		.byte	0x31
 9121 13e0 9F       		.byte	0x9f
 9122 13e1 B6080000 		.4byte	.LVL435
 9123 13e5 CE080000 		.4byte	.LVL439
 9124 13e9 0200     		.2byte	0x2
 9125 13eb 32       		.byte	0x32
 9126 13ec 9F       		.byte	0x9f
 9127 13ed CE080000 		.4byte	.LVL439
 9128 13f1 16090000 		.4byte	.LVL463
 9129 13f5 0200     		.2byte	0x2
 9130 13f7 31       		.byte	0x31
 9131 13f8 9F       		.byte	0x9f
 9132 13f9 16090000 		.4byte	.LVL463
 9133 13fd 2E090000 		.4byte	.LVL467
 9134 1401 0200     		.2byte	0x2
 9135 1403 32       		.byte	0x32
ARM GAS  C:\Users\raytr\AppData\Local\Temp\ccu8NuaS.s 			page 186


 9136 1404 9F       		.byte	0x9f
 9137 1405 2E090000 		.4byte	.LVL467
 9138 1409 7E090000 		.4byte	.LVL494
 9139 140d 0200     		.2byte	0x2
 9140 140f 31       		.byte	0x31
 9141 1410 9F       		.byte	0x9f
 9142 1411 7E090000 		.4byte	.LVL494
 9143 1415 A8090000 		.4byte	.LVL501
 9144 1419 0200     		.2byte	0x2
 9145 141b 32       		.byte	0x32
 9146 141c 9F       		.byte	0x9f
 9147 141d A8090000 		.4byte	.LVL501
 9148 1421 AC090000 		.4byte	.LVL503
 9149 1425 0200     		.2byte	0x2
 9150 1427 35       		.byte	0x35
 9151 1428 9F       		.byte	0x9f
 9152 1429 AC090000 		.4byte	.LVL503
 9153 142d C2090000 		.4byte	.LVL509
 9154 1431 0200     		.2byte	0x2
 9155 1433 33       		.byte	0x33
 9156 1434 9F       		.byte	0x9f
 9157 1435 C2090000 		.4byte	.LVL509
 9158 1439 D2090000 		.4byte	.LVL513
 9159 143d 0200     		.2byte	0x2
 9160 143f 34       		.byte	0x34
 9161 1440 9F       		.byte	0x9f
 9162 1441 D2090000 		.4byte	.LVL513
 9163 1445 E0090000 		.4byte	.LVL516
 9164 1449 0200     		.2byte	0x2
 9165 144b 33       		.byte	0x33
 9166 144c 9F       		.byte	0x9f
 9167 144d E0090000 		.4byte	.LVL516
 9168 1451 E4090000 		.4byte	.LVL518
 9169 1455 0200     		.2byte	0x2
 9170 1457 34       		.byte	0x34
 9171 1458 9F       		.byte	0x9f
 9172 1459 E4090000 		.4byte	.LVL518
 9173 145d F2090000 		.4byte	.LVL521
 9174 1461 0200     		.2byte	0x2
 9175 1463 32       		.byte	0x32
 9176 1464 9F       		.byte	0x9f
 9177 1465 F2090000 		.4byte	.LVL521
 9178 1469 F6090000 		.4byte	.LVL523
 9179 146d 0200     		.2byte	0x2
 9180 146f 34       		.byte	0x34
 9181 1470 9F       		.byte	0x9f
 9182 1471 F6090000 		.4byte	.LVL523
 9183 1475 FA090000 		.4byte	.LVL525
 9184 1479 0200     		.2byte	0x2
 9185 147b 35       		.byte	0x35
 9186 147c 9F       		.byte	0x9f
 9187 147d FA090000 		.4byte	.LVL525
 9188 1481 FE090000 		.4byte	.LVL527
 9189 1485 0200     		.2byte	0x2
 9190 1487 34       		.byte	0x34
 9191 1488 9F       		.byte	0x9f
 9192 1489 FE090000 		.4byte	.LVL527
ARM GAS  C:\Users\raytr\AppData\Local\Temp\ccu8NuaS.s 			page 187


 9193 148d 060A0000 		.4byte	.LVL531
 9194 1491 0200     		.2byte	0x2
 9195 1493 36       		.byte	0x36
 9196 1494 9F       		.byte	0x9f
 9197 1495 060A0000 		.4byte	.LVL531
 9198 1499 0A0A0000 		.4byte	.LVL533
 9199 149d 0200     		.2byte	0x2
 9200 149f 32       		.byte	0x32
 9201 14a0 9F       		.byte	0x9f
 9202 14a1 0A0A0000 		.4byte	.LVL533
 9203 14a5 0E0A0000 		.4byte	.LVL535
 9204 14a9 0200     		.2byte	0x2
 9205 14ab 34       		.byte	0x34
 9206 14ac 9F       		.byte	0x9f
 9207 14ad 0E0A0000 		.4byte	.LVL535
 9208 14b1 120A0000 		.4byte	.LVL537
 9209 14b5 0200     		.2byte	0x2
 9210 14b7 35       		.byte	0x35
 9211 14b8 9F       		.byte	0x9f
 9212 14b9 120A0000 		.4byte	.LVL537
 9213 14bd 280A0000 		.4byte	.LVL543
 9214 14c1 0200     		.2byte	0x2
 9215 14c3 33       		.byte	0x33
 9216 14c4 9F       		.byte	0x9f
 9217 14c5 280A0000 		.4byte	.LVL543
 9218 14c9 2E0A0000 		.4byte	.LVL544
 9219 14cd 0200     		.2byte	0x2
 9220 14cf 34       		.byte	0x34
 9221 14d0 9F       		.byte	0x9f
 9222 14d1 2E0A0000 		.4byte	.LVL544
 9223 14d5 320A0000 		.4byte	.LVL546
 9224 14d9 0200     		.2byte	0x2
 9225 14db 36       		.byte	0x36
 9226 14dc 9F       		.byte	0x9f
 9227 14dd 320A0000 		.4byte	.LVL546
 9228 14e1 360A0000 		.4byte	.LVL548
 9229 14e5 0200     		.2byte	0x2
 9230 14e7 34       		.byte	0x34
 9231 14e8 9F       		.byte	0x9f
 9232 14e9 360A0000 		.4byte	.LVL548
 9233 14ed 440A0000 		.4byte	.LVL551
 9234 14f1 0200     		.2byte	0x2
 9235 14f3 32       		.byte	0x32
 9236 14f4 9F       		.byte	0x9f
 9237 14f5 440A0000 		.4byte	.LVL551
 9238 14f9 480A0000 		.4byte	.LVL553
 9239 14fd 0200     		.2byte	0x2
 9240 14ff 34       		.byte	0x34
 9241 1500 9F       		.byte	0x9f
 9242 1501 480A0000 		.4byte	.LVL553
 9243 1505 4C0A0000 		.4byte	.LVL555
 9244 1509 0200     		.2byte	0x2
 9245 150b 35       		.byte	0x35
 9246 150c 9F       		.byte	0x9f
 9247 150d 4C0A0000 		.4byte	.LVL555
 9248 1511 500A0000 		.4byte	.LVL557
 9249 1515 0200     		.2byte	0x2
ARM GAS  C:\Users\raytr\AppData\Local\Temp\ccu8NuaS.s 			page 188


 9250 1517 34       		.byte	0x34
 9251 1518 9F       		.byte	0x9f
 9252 1519 500A0000 		.4byte	.LVL557
 9253 151d 620A0000 		.4byte	.LVL561
 9254 1521 0200     		.2byte	0x2
 9255 1523 33       		.byte	0x33
 9256 1524 9F       		.byte	0x9f
 9257 1525 620A0000 		.4byte	.LVL561
 9258 1529 680A0000 		.4byte	.LVL562
 9259 152d 0200     		.2byte	0x2
 9260 152f 34       		.byte	0x34
 9261 1530 9F       		.byte	0x9f
 9262 1531 680A0000 		.4byte	.LVL562
 9263 1535 6C0A0000 		.4byte	.LVL564
 9264 1539 0200     		.2byte	0x2
 9265 153b 36       		.byte	0x36
 9266 153c 9F       		.byte	0x9f
 9267 153d 6C0A0000 		.4byte	.LVL564
 9268 1541 7A0A0000 		.4byte	.LVL567
 9269 1545 0200     		.2byte	0x2
 9270 1547 32       		.byte	0x32
 9271 1548 9F       		.byte	0x9f
 9272 1549 7A0A0000 		.4byte	.LVL567
 9273 154d 7E0A0000 		.4byte	.LVL569
 9274 1551 0200     		.2byte	0x2
 9275 1553 34       		.byte	0x34
 9276 1554 9F       		.byte	0x9f
 9277 1555 7E0A0000 		.4byte	.LVL569
 9278 1559 9A0A0000 		.4byte	.LVL574
 9279 155d 0200     		.2byte	0x2
 9280 155f 33       		.byte	0x33
 9281 1560 9F       		.byte	0x9f
 9282 1561 9A0A0000 		.4byte	.LVL574
 9283 1565 AE0A0000 		.4byte	.LVL577
 9284 1569 0200     		.2byte	0x2
 9285 156b 32       		.byte	0x32
 9286 156c 9F       		.byte	0x9f
 9287 156d AE0A0000 		.4byte	.LVL577
 9288 1571 B20A0000 		.4byte	.LVL579
 9289 1575 0200     		.2byte	0x2
 9290 1577 34       		.byte	0x34
 9291 1578 9F       		.byte	0x9f
 9292 1579 B20A0000 		.4byte	.LVL579
 9293 157d C00A0000 		.4byte	.LVL582
 9294 1581 0200     		.2byte	0x2
 9295 1583 32       		.byte	0x32
 9296 1584 9F       		.byte	0x9f
 9297 1585 C00A0000 		.4byte	.LVL582
 9298 1589 EC0A0000 		.4byte	.LVL591
 9299 158d 0200     		.2byte	0x2
 9300 158f 34       		.byte	0x34
 9301 1590 9F       		.byte	0x9f
 9302 1591 EC0A0000 		.4byte	.LVL591
 9303 1595 FA0A0000 		.4byte	.LVL594
 9304 1599 0200     		.2byte	0x2
 9305 159b 32       		.byte	0x32
 9306 159c 9F       		.byte	0x9f
ARM GAS  C:\Users\raytr\AppData\Local\Temp\ccu8NuaS.s 			page 189


 9307 159d FA0A0000 		.4byte	.LVL594
 9308 15a1 FE0A0000 		.4byte	.LVL596
 9309 15a5 0200     		.2byte	0x2
 9310 15a7 34       		.byte	0x34
 9311 15a8 9F       		.byte	0x9f
 9312 15a9 FE0A0000 		.4byte	.LVL596
 9313 15ad 200B0000 		.4byte	.LVL601
 9314 15b1 0200     		.2byte	0x2
 9315 15b3 33       		.byte	0x33
 9316 15b4 9F       		.byte	0x9f
 9317 15b5 200B0000 		.4byte	.LVL601
 9318 15b9 3A0B0000 		.4byte	.LVL604
 9319 15bd 0200     		.2byte	0x2
 9320 15bf 32       		.byte	0x32
 9321 15c0 9F       		.byte	0x9f
 9322 15c1 3A0B0000 		.4byte	.LVL604
 9323 15c5 3E0B0000 		.4byte	.LVL606
 9324 15c9 0200     		.2byte	0x2
 9325 15cb 34       		.byte	0x34
 9326 15cc 9F       		.byte	0x9f
 9327 15cd 3E0B0000 		.4byte	.LVL606
 9328 15d1 4C0B0000 		.4byte	.LVL609
 9329 15d5 0200     		.2byte	0x2
 9330 15d7 32       		.byte	0x32
 9331 15d8 9F       		.byte	0x9f
 9332 15d9 4C0B0000 		.4byte	.LVL609
 9333 15dd 500B0000 		.4byte	.LVL611
 9334 15e1 0200     		.2byte	0x2
 9335 15e3 34       		.byte	0x34
 9336 15e4 9F       		.byte	0x9f
 9337 15e5 500B0000 		.4byte	.LVL611
 9338 15e9 640B0000 		.4byte	.LVL614
 9339 15ed 0200     		.2byte	0x2
 9340 15ef 33       		.byte	0x33
 9341 15f0 9F       		.byte	0x9f
 9342 15f1 640B0000 		.4byte	.LVL614
 9343 15f5 6C0B0000 		.4byte	.LVL616
 9344 15f9 0200     		.2byte	0x2
 9345 15fb 32       		.byte	0x32
 9346 15fc 9F       		.byte	0x9f
 9347 15fd 6C0B0000 		.4byte	.LVL616
 9348 1601 860B0000 		.4byte	.LVL619
 9349 1605 0200     		.2byte	0x2
 9350 1607 34       		.byte	0x34
 9351 1608 9F       		.byte	0x9f
 9352 1609 860B0000 		.4byte	.LVL619
 9353 160d 8E0B0000 		.4byte	.LVL621
 9354 1611 0200     		.2byte	0x2
 9355 1613 32       		.byte	0x32
 9356 1614 9F       		.byte	0x9f
 9357 1615 8E0B0000 		.4byte	.LVL621
 9358 1619 920B0000 		.4byte	.LVL623
 9359 161d 0200     		.2byte	0x2
 9360 161f 34       		.byte	0x34
 9361 1620 9F       		.byte	0x9f
 9362 1621 920B0000 		.4byte	.LVL623
 9363 1625 960B0000 		.4byte	.LVL625
ARM GAS  C:\Users\raytr\AppData\Local\Temp\ccu8NuaS.s 			page 190


 9364 1629 0200     		.2byte	0x2
 9365 162b 30       		.byte	0x30
 9366 162c 9F       		.byte	0x9f
 9367 162d 960B0000 		.4byte	.LVL625
 9368 1631 A60B0000 		.4byte	.LVL629
 9369 1635 0200     		.2byte	0x2
 9370 1637 32       		.byte	0x32
 9371 1638 9F       		.byte	0x9f
 9372 1639 A60B0000 		.4byte	.LVL629
 9373 163d B00B0000 		.4byte	.LVL632
 9374 1641 0200     		.2byte	0x2
 9375 1643 33       		.byte	0x33
 9376 1644 9F       		.byte	0x9f
 9377 1645 B00B0000 		.4byte	.LVL632
 9378 1649 B20B0000 		.4byte	.LFE16
 9379 164d 0100     		.2byte	0x1
 9380 164f 50       		.byte	0x50
 9381 1650 00000000 		.4byte	0
 9382 1654 00000000 		.4byte	0
 9383              	.LLST8:
 9384 1658 4C020000 		.4byte	.LVL34
 9385 165c 6A020000 		.4byte	.LVL37
 9386 1660 0100     		.2byte	0x1
 9387 1662 55       		.byte	0x55
 9388 1663 00000000 		.4byte	0
 9389 1667 00000000 		.4byte	0
 9390              	.LLST9:
 9391 166b DC020000 		.4byte	.LVL61
 9392 166f E1020000 		.4byte	.LVL62-1
 9393 1673 0100     		.2byte	0x1
 9394 1675 51       		.byte	0x51
 9395 1676 00000000 		.4byte	0
 9396 167a 00000000 		.4byte	0
 9397              	.LLST10:
 9398 167e 24030000 		.4byte	.LVL77
 9399 1682 3C030000 		.4byte	.LVL81
 9400 1686 0100     		.2byte	0x1
 9401 1688 55       		.byte	0x55
 9402 1689 960B0000 		.4byte	.LVL625
 9403 168d 9A0B0000 		.4byte	.LVL626
 9404 1691 0100     		.2byte	0x1
 9405 1693 55       		.byte	0x55
 9406 1694 00000000 		.4byte	0
 9407 1698 00000000 		.4byte	0
 9408              	.LLST11:
 9409 169c 80030000 		.4byte	.LVL94
 9410 16a0 98030000 		.4byte	.LVL98
 9411 16a4 0100     		.2byte	0x1
 9412 16a6 55       		.byte	0x55
 9413 16a7 9A0B0000 		.4byte	.LVL626
 9414 16ab 9E0B0000 		.4byte	.LVL627
 9415 16af 0100     		.2byte	0x1
 9416 16b1 55       		.byte	0x55
 9417 16b2 00000000 		.4byte	0
 9418 16b6 00000000 		.4byte	0
 9419              	.LLST12:
 9420 16ba DA030000 		.4byte	.LVL113
ARM GAS  C:\Users\raytr\AppData\Local\Temp\ccu8NuaS.s 			page 191


 9421 16be F2030000 		.4byte	.LVL117
 9422 16c2 0100     		.2byte	0x1
 9423 16c4 55       		.byte	0x55
 9424 16c5 9E0B0000 		.4byte	.LVL627
 9425 16c9 A20B0000 		.4byte	.LVL628
 9426 16cd 0100     		.2byte	0x1
 9427 16cf 55       		.byte	0x55
 9428 16d0 00000000 		.4byte	0
 9429 16d4 00000000 		.4byte	0
 9430              	.LLST13:
 9431 16d8 3A040000 		.4byte	.LVL130
 9432 16dc 52040000 		.4byte	.LVL134
 9433 16e0 0100     		.2byte	0x1
 9434 16e2 55       		.byte	0x55
 9435 16e3 A20B0000 		.4byte	.LVL628
 9436 16e7 A60B0000 		.4byte	.LVL629
 9437 16eb 0100     		.2byte	0x1
 9438 16ed 55       		.byte	0x55
 9439 16ee 00000000 		.4byte	0
 9440 16f2 00000000 		.4byte	0
 9441              	.LLST14:
 9442 16f6 B6090000 		.4byte	.LVL507
 9443 16fa C8090000 		.4byte	.LVL510
 9444 16fe 0100     		.2byte	0x1
 9445 1700 55       		.byte	0x55
 9446 1701 A60B0000 		.4byte	.LVL629
 9447 1705 AA0B0000 		.4byte	.LVL630
 9448 1709 0100     		.2byte	0x1
 9449 170b 55       		.byte	0x55
 9450 170c 00000000 		.4byte	0
 9451 1710 00000000 		.4byte	0
 9452              	.LLST15:
 9453 1714 CC090000 		.4byte	.LVL511
 9454 1718 D0090000 		.4byte	.LVL512
 9455 171c 0100     		.2byte	0x1
 9456 171e 50       		.byte	0x50
 9457 171f D0090000 		.4byte	.LVL512
 9458 1723 D2090000 		.4byte	.LVL513
 9459 1727 0200     		.2byte	0x2
 9460 1729 74       		.byte	0x74
 9461 172a 08       		.sleb128 8
 9462 172b 00000000 		.4byte	0
 9463 172f 00000000 		.4byte	0
 9464              	.LLST16:
 9465 1733 1C0A0000 		.4byte	.LVL541
 9466 1737 2E0A0000 		.4byte	.LVL544
 9467 173b 0100     		.2byte	0x1
 9468 173d 55       		.byte	0x55
 9469 173e AA0B0000 		.4byte	.LVL630
 9470 1742 AE0B0000 		.4byte	.LVL631
 9471 1746 0100     		.2byte	0x1
 9472 1748 55       		.byte	0x55
 9473 1749 00000000 		.4byte	0
 9474 174d 00000000 		.4byte	0
 9475              	.LLST17:
 9476 1751 560A0000 		.4byte	.LVL559
 9477 1755 680A0000 		.4byte	.LVL562
ARM GAS  C:\Users\raytr\AppData\Local\Temp\ccu8NuaS.s 			page 192


 9478 1759 0100     		.2byte	0x1
 9479 175b 55       		.byte	0x55
 9480 175c AE0B0000 		.4byte	.LVL631
 9481 1760 B20B0000 		.4byte	.LFE16
 9482 1764 0100     		.2byte	0x1
 9483 1766 55       		.byte	0x55
 9484 1767 00000000 		.4byte	0
 9485 176b 00000000 		.4byte	0
 9486              	.LLST18:
 9487 176f 6E020000 		.4byte	.LVL38
 9488 1773 70020000 		.4byte	.LVL39
 9489 1777 0100     		.2byte	0x1
 9490 1779 53       		.byte	0x53
 9491 177a 70020000 		.4byte	.LVL39
 9492 177e 74020000 		.4byte	.LVL40
 9493 1782 0200     		.2byte	0x2
 9494 1784 70       		.byte	0x70
 9495 1785 02       		.sleb128 2
 9496 1786 74020000 		.4byte	.LVL40
 9497 178a 76020000 		.4byte	.LVL41
 9498 178e 0200     		.2byte	0x2
 9499 1790 74       		.byte	0x74
 9500 1791 02       		.sleb128 2
 9501 1792 00000000 		.4byte	0
 9502 1796 00000000 		.4byte	0
 9503              	.LLST19:
 9504 179a 6E020000 		.4byte	.LVL38
 9505 179e 76020000 		.4byte	.LVL41
 9506 17a2 0100     		.2byte	0x1
 9507 17a4 52       		.byte	0x52
 9508 17a5 00000000 		.4byte	0
 9509 17a9 00000000 		.4byte	0
 9510              	.LLST20:
 9511 17ad 6E020000 		.4byte	.LVL38
 9512 17b1 74020000 		.4byte	.LVL40
 9513 17b5 0100     		.2byte	0x1
 9514 17b7 50       		.byte	0x50
 9515 17b8 74020000 		.4byte	.LVL40
 9516 17bc 76020000 		.4byte	.LVL41
 9517 17c0 0100     		.2byte	0x1
 9518 17c2 54       		.byte	0x54
 9519 17c3 00000000 		.4byte	0
 9520 17c7 00000000 		.4byte	0
 9521              	.LLST21:
 9522 17cb EA020000 		.4byte	.LVL64
 9523 17cf EC020000 		.4byte	.LVL65
 9524 17d3 0100     		.2byte	0x1
 9525 17d5 53       		.byte	0x53
 9526 17d6 EC020000 		.4byte	.LVL65
 9527 17da F0020000 		.4byte	.LVL66
 9528 17de 0200     		.2byte	0x2
 9529 17e0 70       		.byte	0x70
 9530 17e1 04       		.sleb128 4
 9531 17e2 F0020000 		.4byte	.LVL66
 9532 17e6 F2020000 		.4byte	.LVL67
 9533 17ea 0200     		.2byte	0x2
 9534 17ec 74       		.byte	0x74
ARM GAS  C:\Users\raytr\AppData\Local\Temp\ccu8NuaS.s 			page 193


 9535 17ed 04       		.sleb128 4
 9536 17ee 00000000 		.4byte	0
 9537 17f2 00000000 		.4byte	0
 9538              	.LLST22:
 9539 17f6 EA020000 		.4byte	.LVL64
 9540 17fa F2020000 		.4byte	.LVL67
 9541 17fe 0100     		.2byte	0x1
 9542 1800 52       		.byte	0x52
 9543 1801 00000000 		.4byte	0
 9544 1805 00000000 		.4byte	0
 9545              	.LLST23:
 9546 1809 EA020000 		.4byte	.LVL64
 9547 180d F0020000 		.4byte	.LVL66
 9548 1811 0100     		.2byte	0x1
 9549 1813 50       		.byte	0x50
 9550 1814 F0020000 		.4byte	.LVL66
 9551 1818 F2020000 		.4byte	.LVL67
 9552 181c 0100     		.2byte	0x1
 9553 181e 54       		.byte	0x54
 9554 181f 00000000 		.4byte	0
 9555 1823 00000000 		.4byte	0
 9556              	.LLST24:
 9557 1827 9A030000 		.4byte	.LVL99
 9558 182b 9C030000 		.4byte	.LVL100
 9559 182f 0100     		.2byte	0x1
 9560 1831 53       		.byte	0x53
 9561 1832 9C030000 		.4byte	.LVL100
 9562 1836 9E030000 		.4byte	.LVL101
 9563 183a 0200     		.2byte	0x2
 9564 183c 70       		.byte	0x70
 9565 183d 06       		.sleb128 6
 9566 183e 00000000 		.4byte	0
 9567 1842 00000000 		.4byte	0
 9568              	.LLST26:
 9569 1846 9A030000 		.4byte	.LVL99
 9570 184a A0030000 		.4byte	.LVL102
 9571 184e 0100     		.2byte	0x1
 9572 1850 50       		.byte	0x50
 9573 1851 A0030000 		.4byte	.LVL102
 9574 1855 A2030000 		.4byte	.LVL103
 9575 1859 0100     		.2byte	0x1
 9576 185b 54       		.byte	0x54
 9577 185c 00000000 		.4byte	0
 9578 1860 00000000 		.4byte	0
 9579              	.LLST27:
 9580 1864 56040000 		.4byte	.LVL135
 9581 1868 58040000 		.4byte	.LVL136
 9582 186c 0100     		.2byte	0x1
 9583 186e 53       		.byte	0x53
 9584 186f 58040000 		.4byte	.LVL136
 9585 1873 5C040000 		.4byte	.LVL137
 9586 1877 0200     		.2byte	0x2
 9587 1879 70       		.byte	0x70
 9588 187a 0A       		.sleb128 10
 9589 187b 5C040000 		.4byte	.LVL137
 9590 187f 5E040000 		.4byte	.LVL138
 9591 1883 0200     		.2byte	0x2
ARM GAS  C:\Users\raytr\AppData\Local\Temp\ccu8NuaS.s 			page 194


 9592 1885 74       		.byte	0x74
 9593 1886 0A       		.sleb128 10
 9594 1887 00000000 		.4byte	0
 9595 188b 00000000 		.4byte	0
 9596              	.LLST28:
 9597 188f 56040000 		.4byte	.LVL135
 9598 1893 5E040000 		.4byte	.LVL138
 9599 1897 0100     		.2byte	0x1
 9600 1899 52       		.byte	0x52
 9601 189a 00000000 		.4byte	0
 9602 189e 00000000 		.4byte	0
 9603              	.LLST29:
 9604 18a2 56040000 		.4byte	.LVL135
 9605 18a6 5C040000 		.4byte	.LVL137
 9606 18aa 0100     		.2byte	0x1
 9607 18ac 50       		.byte	0x50
 9608 18ad 5C040000 		.4byte	.LVL137
 9609 18b1 5E040000 		.4byte	.LVL138
 9610 18b5 0100     		.2byte	0x1
 9611 18b7 54       		.byte	0x54
 9612 18b8 00000000 		.4byte	0
 9613 18bc 00000000 		.4byte	0
 9614              	.LLST30:
 9615 18c0 CE060000 		.4byte	.LVL272
 9616 18c4 D0060000 		.4byte	.LVL273
 9617 18c8 0100     		.2byte	0x1
 9618 18ca 53       		.byte	0x53
 9619 18cb D0060000 		.4byte	.LVL273
 9620 18cf D4060000 		.4byte	.LVL274
 9621 18d3 0200     		.2byte	0x2
 9622 18d5 70       		.byte	0x70
 9623 18d6 03       		.sleb128 3
 9624 18d7 D4060000 		.4byte	.LVL274
 9625 18db D6060000 		.4byte	.LVL275
 9626 18df 0200     		.2byte	0x2
 9627 18e1 74       		.byte	0x74
 9628 18e2 03       		.sleb128 3
 9629 18e3 00000000 		.4byte	0
 9630 18e7 00000000 		.4byte	0
 9631              	.LLST31:
 9632 18eb CE060000 		.4byte	.LVL272
 9633 18ef D6060000 		.4byte	.LVL275
 9634 18f3 0100     		.2byte	0x1
 9635 18f5 52       		.byte	0x52
 9636 18f6 00000000 		.4byte	0
 9637 18fa 00000000 		.4byte	0
 9638              	.LLST32:
 9639 18fe CE060000 		.4byte	.LVL272
 9640 1902 D4060000 		.4byte	.LVL274
 9641 1906 0100     		.2byte	0x1
 9642 1908 50       		.byte	0x50
 9643 1909 D4060000 		.4byte	.LVL274
 9644 190d D6060000 		.4byte	.LVL275
 9645 1911 0100     		.2byte	0x1
 9646 1913 54       		.byte	0x54
 9647 1914 00000000 		.4byte	0
 9648 1918 00000000 		.4byte	0
ARM GAS  C:\Users\raytr\AppData\Local\Temp\ccu8NuaS.s 			page 195


 9649              	.LLST33:
 9650 191c DA060000 		.4byte	.LVL276
 9651 1920 DC060000 		.4byte	.LVL277
 9652 1924 0100     		.2byte	0x1
 9653 1926 53       		.byte	0x53
 9654 1927 DC060000 		.4byte	.LVL277
 9655 192b E0060000 		.4byte	.LVL278
 9656 192f 0200     		.2byte	0x2
 9657 1931 70       		.byte	0x70
 9658 1932 02       		.sleb128 2
 9659 1933 E0060000 		.4byte	.LVL278
 9660 1937 E2060000 		.4byte	.LVL279
 9661 193b 0200     		.2byte	0x2
 9662 193d 74       		.byte	0x74
 9663 193e 02       		.sleb128 2
 9664 193f 00000000 		.4byte	0
 9665 1943 00000000 		.4byte	0
 9666              	.LLST34:
 9667 1947 DA060000 		.4byte	.LVL276
 9668 194b E2060000 		.4byte	.LVL279
 9669 194f 0100     		.2byte	0x1
 9670 1951 52       		.byte	0x52
 9671 1952 00000000 		.4byte	0
 9672 1956 00000000 		.4byte	0
 9673              	.LLST35:
 9674 195a DA060000 		.4byte	.LVL276
 9675 195e E0060000 		.4byte	.LVL278
 9676 1962 0100     		.2byte	0x1
 9677 1964 50       		.byte	0x50
 9678 1965 E0060000 		.4byte	.LVL278
 9679 1969 E2060000 		.4byte	.LVL279
 9680 196d 0100     		.2byte	0x1
 9681 196f 54       		.byte	0x54
 9682 1970 00000000 		.4byte	0
 9683 1974 00000000 		.4byte	0
 9684              	.LLST36:
 9685 1978 E6060000 		.4byte	.LVL280
 9686 197c E8060000 		.4byte	.LVL281
 9687 1980 0100     		.2byte	0x1
 9688 1982 53       		.byte	0x53
 9689 1983 E8060000 		.4byte	.LVL281
 9690 1987 EC060000 		.4byte	.LVL282
 9691 198b 0200     		.2byte	0x2
 9692 198d 70       		.byte	0x70
 9693 198e 05       		.sleb128 5
 9694 198f EC060000 		.4byte	.LVL282
 9695 1993 EE060000 		.4byte	.LVL283
 9696 1997 0200     		.2byte	0x2
 9697 1999 74       		.byte	0x74
 9698 199a 05       		.sleb128 5
 9699 199b 00000000 		.4byte	0
 9700 199f 00000000 		.4byte	0
 9701              	.LLST37:
 9702 19a3 E6060000 		.4byte	.LVL280
 9703 19a7 EE060000 		.4byte	.LVL283
 9704 19ab 0100     		.2byte	0x1
 9705 19ad 52       		.byte	0x52
ARM GAS  C:\Users\raytr\AppData\Local\Temp\ccu8NuaS.s 			page 196


 9706 19ae 00000000 		.4byte	0
 9707 19b2 00000000 		.4byte	0
 9708              	.LLST38:
 9709 19b6 E6060000 		.4byte	.LVL280
 9710 19ba EC060000 		.4byte	.LVL282
 9711 19be 0100     		.2byte	0x1
 9712 19c0 50       		.byte	0x50
 9713 19c1 EC060000 		.4byte	.LVL282
 9714 19c5 EE060000 		.4byte	.LVL283
 9715 19c9 0100     		.2byte	0x1
 9716 19cb 54       		.byte	0x54
 9717 19cc 00000000 		.4byte	0
 9718 19d0 00000000 		.4byte	0
 9719              	.LLST39:
 9720 19d4 F2060000 		.4byte	.LVL284
 9721 19d8 F4060000 		.4byte	.LVL285
 9722 19dc 0100     		.2byte	0x1
 9723 19de 53       		.byte	0x53
 9724 19df F4060000 		.4byte	.LVL285
 9725 19e3 F8060000 		.4byte	.LVL286
 9726 19e7 0200     		.2byte	0x2
 9727 19e9 70       		.byte	0x70
 9728 19ea 04       		.sleb128 4
 9729 19eb F8060000 		.4byte	.LVL286
 9730 19ef FA060000 		.4byte	.LVL287
 9731 19f3 0200     		.2byte	0x2
 9732 19f5 74       		.byte	0x74
 9733 19f6 04       		.sleb128 4
 9734 19f7 00000000 		.4byte	0
 9735 19fb 00000000 		.4byte	0
 9736              	.LLST40:
 9737 19ff F2060000 		.4byte	.LVL284
 9738 1a03 FA060000 		.4byte	.LVL287
 9739 1a07 0100     		.2byte	0x1
 9740 1a09 52       		.byte	0x52
 9741 1a0a 00000000 		.4byte	0
 9742 1a0e 00000000 		.4byte	0
 9743              	.LLST41:
 9744 1a12 F2060000 		.4byte	.LVL284
 9745 1a16 F8060000 		.4byte	.LVL286
 9746 1a1a 0100     		.2byte	0x1
 9747 1a1c 50       		.byte	0x50
 9748 1a1d F8060000 		.4byte	.LVL286
 9749 1a21 FA060000 		.4byte	.LVL287
 9750 1a25 0100     		.2byte	0x1
 9751 1a27 54       		.byte	0x54
 9752 1a28 00000000 		.4byte	0
 9753 1a2c 00000000 		.4byte	0
 9754              	.LLST42:
 9755 1a30 FE060000 		.4byte	.LVL288
 9756 1a34 00070000 		.4byte	.LVL289
 9757 1a38 0100     		.2byte	0x1
 9758 1a3a 53       		.byte	0x53
 9759 1a3b 00070000 		.4byte	.LVL289
 9760 1a3f 04070000 		.4byte	.LVL290
 9761 1a43 0200     		.2byte	0x2
 9762 1a45 70       		.byte	0x70
ARM GAS  C:\Users\raytr\AppData\Local\Temp\ccu8NuaS.s 			page 197


 9763 1a46 07       		.sleb128 7
 9764 1a47 04070000 		.4byte	.LVL290
 9765 1a4b 06070000 		.4byte	.LVL291
 9766 1a4f 0200     		.2byte	0x2
 9767 1a51 74       		.byte	0x74
 9768 1a52 07       		.sleb128 7
 9769 1a53 00000000 		.4byte	0
 9770 1a57 00000000 		.4byte	0
 9771              	.LLST43:
 9772 1a5b FE060000 		.4byte	.LVL288
 9773 1a5f 06070000 		.4byte	.LVL291
 9774 1a63 0100     		.2byte	0x1
 9775 1a65 52       		.byte	0x52
 9776 1a66 00000000 		.4byte	0
 9777 1a6a 00000000 		.4byte	0
 9778              	.LLST44:
 9779 1a6e FE060000 		.4byte	.LVL288
 9780 1a72 04070000 		.4byte	.LVL290
 9781 1a76 0100     		.2byte	0x1
 9782 1a78 50       		.byte	0x50
 9783 1a79 04070000 		.4byte	.LVL290
 9784 1a7d 06070000 		.4byte	.LVL291
 9785 1a81 0100     		.2byte	0x1
 9786 1a83 54       		.byte	0x54
 9787 1a84 00000000 		.4byte	0
 9788 1a88 00000000 		.4byte	0
 9789              	.LLST45:
 9790 1a8c 0A070000 		.4byte	.LVL292
 9791 1a90 0C070000 		.4byte	.LVL293
 9792 1a94 0100     		.2byte	0x1
 9793 1a96 53       		.byte	0x53
 9794 1a97 0C070000 		.4byte	.LVL293
 9795 1a9b 10070000 		.4byte	.LVL294
 9796 1a9f 0200     		.2byte	0x2
 9797 1aa1 70       		.byte	0x70
 9798 1aa2 06       		.sleb128 6
 9799 1aa3 10070000 		.4byte	.LVL294
 9800 1aa7 12070000 		.4byte	.LVL295
 9801 1aab 0200     		.2byte	0x2
 9802 1aad 74       		.byte	0x74
 9803 1aae 06       		.sleb128 6
 9804 1aaf 00000000 		.4byte	0
 9805 1ab3 00000000 		.4byte	0
 9806              	.LLST46:
 9807 1ab7 0A070000 		.4byte	.LVL292
 9808 1abb 12070000 		.4byte	.LVL295
 9809 1abf 0100     		.2byte	0x1
 9810 1ac1 52       		.byte	0x52
 9811 1ac2 00000000 		.4byte	0
 9812 1ac6 00000000 		.4byte	0
 9813              	.LLST47:
 9814 1aca 0A070000 		.4byte	.LVL292
 9815 1ace 10070000 		.4byte	.LVL294
 9816 1ad2 0100     		.2byte	0x1
 9817 1ad4 50       		.byte	0x50
 9818 1ad5 10070000 		.4byte	.LVL294
 9819 1ad9 12070000 		.4byte	.LVL295
ARM GAS  C:\Users\raytr\AppData\Local\Temp\ccu8NuaS.s 			page 198


 9820 1add 0100     		.2byte	0x1
 9821 1adf 54       		.byte	0x54
 9822 1ae0 00000000 		.4byte	0
 9823 1ae4 00000000 		.4byte	0
 9824              	.LLST48:
 9825 1ae8 22070000 		.4byte	.LVL297
 9826 1aec 24070000 		.4byte	.LVL298
 9827 1af0 0100     		.2byte	0x1
 9828 1af2 50       		.byte	0x50
 9829 1af3 00000000 		.4byte	0
 9830 1af7 00000000 		.4byte	0
 9831              	.LLST49:
 9832 1afb 22070000 		.4byte	.LVL297
 9833 1aff 2A070000 		.4byte	.LVL299
 9834 1b03 0100     		.2byte	0x1
 9835 1b05 55       		.byte	0x55
 9836 1b06 00000000 		.4byte	0
 9837 1b0a 00000000 		.4byte	0
 9838              	.LLST50:
 9839 1b0e 22070000 		.4byte	.LVL297
 9840 1b12 2A070000 		.4byte	.LVL299
 9841 1b16 0100     		.2byte	0x1
 9842 1b18 54       		.byte	0x54
 9843 1b19 00000000 		.4byte	0
 9844 1b1d 00000000 		.4byte	0
 9845              	.LLST51:
 9846 1b21 2C070000 		.4byte	.LVL300
 9847 1b25 2E070000 		.4byte	.LVL301
 9848 1b29 0100     		.2byte	0x1
 9849 1b2b 53       		.byte	0x53
 9850 1b2c 2E070000 		.4byte	.LVL301
 9851 1b30 30070000 		.4byte	.LVL302
 9852 1b34 0200     		.2byte	0x2
 9853 1b36 70       		.byte	0x70
 9854 1b37 01       		.sleb128 1
 9855 1b38 00000000 		.4byte	0
 9856 1b3c 00000000 		.4byte	0
 9857              	.LLST53:
 9858 1b40 2C070000 		.4byte	.LVL300
 9859 1b44 32070000 		.4byte	.LVL303
 9860 1b48 0100     		.2byte	0x1
 9861 1b4a 50       		.byte	0x50
 9862 1b4b 32070000 		.4byte	.LVL303
 9863 1b4f 34070000 		.4byte	.LVL304
 9864 1b53 0100     		.2byte	0x1
 9865 1b55 54       		.byte	0x54
 9866 1b56 00000000 		.4byte	0
 9867 1b5a 00000000 		.4byte	0
 9868              	.LLST54:
 9869 1b5e 38070000 		.4byte	.LVL305
 9870 1b62 3A070000 		.4byte	.LVL306
 9871 1b66 0100     		.2byte	0x1
 9872 1b68 53       		.byte	0x53
 9873 1b69 3A070000 		.4byte	.LVL306
 9874 1b6d 3E070000 		.4byte	.LVL307
 9875 1b71 0200     		.2byte	0x2
 9876 1b73 70       		.byte	0x70
ARM GAS  C:\Users\raytr\AppData\Local\Temp\ccu8NuaS.s 			page 199


 9877 1b74 03       		.sleb128 3
 9878 1b75 3E070000 		.4byte	.LVL307
 9879 1b79 40070000 		.4byte	.LVL308
 9880 1b7d 0200     		.2byte	0x2
 9881 1b7f 74       		.byte	0x74
 9882 1b80 03       		.sleb128 3
 9883 1b81 00000000 		.4byte	0
 9884 1b85 00000000 		.4byte	0
 9885              	.LLST55:
 9886 1b89 38070000 		.4byte	.LVL305
 9887 1b8d 40070000 		.4byte	.LVL308
 9888 1b91 0100     		.2byte	0x1
 9889 1b93 52       		.byte	0x52
 9890 1b94 00000000 		.4byte	0
 9891 1b98 00000000 		.4byte	0
 9892              	.LLST56:
 9893 1b9c 38070000 		.4byte	.LVL305
 9894 1ba0 3E070000 		.4byte	.LVL307
 9895 1ba4 0100     		.2byte	0x1
 9896 1ba6 50       		.byte	0x50
 9897 1ba7 3E070000 		.4byte	.LVL307
 9898 1bab 40070000 		.4byte	.LVL308
 9899 1baf 0100     		.2byte	0x1
 9900 1bb1 54       		.byte	0x54
 9901 1bb2 00000000 		.4byte	0
 9902 1bb6 00000000 		.4byte	0
 9903              	.LLST57:
 9904 1bba 44070000 		.4byte	.LVL309
 9905 1bbe 46070000 		.4byte	.LVL310
 9906 1bc2 0100     		.2byte	0x1
 9907 1bc4 53       		.byte	0x53
 9908 1bc5 46070000 		.4byte	.LVL310
 9909 1bc9 4A070000 		.4byte	.LVL311
 9910 1bcd 0200     		.2byte	0x2
 9911 1bcf 70       		.byte	0x70
 9912 1bd0 02       		.sleb128 2
 9913 1bd1 4A070000 		.4byte	.LVL311
 9914 1bd5 4C070000 		.4byte	.LVL312
 9915 1bd9 0200     		.2byte	0x2
 9916 1bdb 74       		.byte	0x74
 9917 1bdc 02       		.sleb128 2
 9918 1bdd 00000000 		.4byte	0
 9919 1be1 00000000 		.4byte	0
 9920              	.LLST58:
 9921 1be5 44070000 		.4byte	.LVL309
 9922 1be9 4C070000 		.4byte	.LVL312
 9923 1bed 0100     		.2byte	0x1
 9924 1bef 52       		.byte	0x52
 9925 1bf0 00000000 		.4byte	0
 9926 1bf4 00000000 		.4byte	0
 9927              	.LLST59:
 9928 1bf8 44070000 		.4byte	.LVL309
 9929 1bfc 4A070000 		.4byte	.LVL311
 9930 1c00 0100     		.2byte	0x1
 9931 1c02 50       		.byte	0x50
 9932 1c03 4A070000 		.4byte	.LVL311
 9933 1c07 4C070000 		.4byte	.LVL312
ARM GAS  C:\Users\raytr\AppData\Local\Temp\ccu8NuaS.s 			page 200


 9934 1c0b 0100     		.2byte	0x1
 9935 1c0d 54       		.byte	0x54
 9936 1c0e 00000000 		.4byte	0
 9937 1c12 00000000 		.4byte	0
 9938              	.LLST60:
 9939 1c16 50070000 		.4byte	.LVL313
 9940 1c1a 52070000 		.4byte	.LVL314
 9941 1c1e 0100     		.2byte	0x1
 9942 1c20 53       		.byte	0x53
 9943 1c21 52070000 		.4byte	.LVL314
 9944 1c25 56070000 		.4byte	.LVL315
 9945 1c29 0200     		.2byte	0x2
 9946 1c2b 70       		.byte	0x70
 9947 1c2c 05       		.sleb128 5
 9948 1c2d 56070000 		.4byte	.LVL315
 9949 1c31 58070000 		.4byte	.LVL316
 9950 1c35 0200     		.2byte	0x2
 9951 1c37 74       		.byte	0x74
 9952 1c38 05       		.sleb128 5
 9953 1c39 00000000 		.4byte	0
 9954 1c3d 00000000 		.4byte	0
 9955              	.LLST61:
 9956 1c41 50070000 		.4byte	.LVL313
 9957 1c45 58070000 		.4byte	.LVL316
 9958 1c49 0100     		.2byte	0x1
 9959 1c4b 52       		.byte	0x52
 9960 1c4c 00000000 		.4byte	0
 9961 1c50 00000000 		.4byte	0
 9962              	.LLST62:
 9963 1c54 50070000 		.4byte	.LVL313
 9964 1c58 56070000 		.4byte	.LVL315
 9965 1c5c 0100     		.2byte	0x1
 9966 1c5e 50       		.byte	0x50
 9967 1c5f 56070000 		.4byte	.LVL315
 9968 1c63 58070000 		.4byte	.LVL316
 9969 1c67 0100     		.2byte	0x1
 9970 1c69 54       		.byte	0x54
 9971 1c6a 00000000 		.4byte	0
 9972 1c6e 00000000 		.4byte	0
 9973              	.LLST63:
 9974 1c72 5C070000 		.4byte	.LVL317
 9975 1c76 5E070000 		.4byte	.LVL318
 9976 1c7a 0100     		.2byte	0x1
 9977 1c7c 53       		.byte	0x53
 9978 1c7d 5E070000 		.4byte	.LVL318
 9979 1c81 62070000 		.4byte	.LVL319
 9980 1c85 0200     		.2byte	0x2
 9981 1c87 70       		.byte	0x70
 9982 1c88 04       		.sleb128 4
 9983 1c89 62070000 		.4byte	.LVL319
 9984 1c8d 64070000 		.4byte	.LVL320
 9985 1c91 0200     		.2byte	0x2
 9986 1c93 74       		.byte	0x74
 9987 1c94 04       		.sleb128 4
 9988 1c95 00000000 		.4byte	0
 9989 1c99 00000000 		.4byte	0
 9990              	.LLST64:
ARM GAS  C:\Users\raytr\AppData\Local\Temp\ccu8NuaS.s 			page 201


 9991 1c9d 5C070000 		.4byte	.LVL317
 9992 1ca1 64070000 		.4byte	.LVL320
 9993 1ca5 0100     		.2byte	0x1
 9994 1ca7 52       		.byte	0x52
 9995 1ca8 00000000 		.4byte	0
 9996 1cac 00000000 		.4byte	0
 9997              	.LLST65:
 9998 1cb0 5C070000 		.4byte	.LVL317
 9999 1cb4 62070000 		.4byte	.LVL319
 10000 1cb8 0100     		.2byte	0x1
 10001 1cba 50       		.byte	0x50
 10002 1cbb 62070000 		.4byte	.LVL319
 10003 1cbf 64070000 		.4byte	.LVL320
 10004 1cc3 0100     		.2byte	0x1
 10005 1cc5 54       		.byte	0x54
 10006 1cc6 00000000 		.4byte	0
 10007 1cca 00000000 		.4byte	0
 10008              	.LLST66:
 10009 1cce 68070000 		.4byte	.LVL321
 10010 1cd2 6A070000 		.4byte	.LVL322
 10011 1cd6 0100     		.2byte	0x1
 10012 1cd8 53       		.byte	0x53
 10013 1cd9 6A070000 		.4byte	.LVL322
 10014 1cdd 6E070000 		.4byte	.LVL323
 10015 1ce1 0200     		.2byte	0x2
 10016 1ce3 70       		.byte	0x70
 10017 1ce4 07       		.sleb128 7
 10018 1ce5 6E070000 		.4byte	.LVL323
 10019 1ce9 70070000 		.4byte	.LVL324
 10020 1ced 0200     		.2byte	0x2
 10021 1cef 74       		.byte	0x74
 10022 1cf0 07       		.sleb128 7
 10023 1cf1 00000000 		.4byte	0
 10024 1cf5 00000000 		.4byte	0
 10025              	.LLST67:
 10026 1cf9 68070000 		.4byte	.LVL321
 10027 1cfd 70070000 		.4byte	.LVL324
 10028 1d01 0100     		.2byte	0x1
 10029 1d03 52       		.byte	0x52
 10030 1d04 00000000 		.4byte	0
 10031 1d08 00000000 		.4byte	0
 10032              	.LLST68:
 10033 1d0c 68070000 		.4byte	.LVL321
 10034 1d10 6E070000 		.4byte	.LVL323
 10035 1d14 0100     		.2byte	0x1
 10036 1d16 50       		.byte	0x50
 10037 1d17 6E070000 		.4byte	.LVL323
 10038 1d1b 70070000 		.4byte	.LVL324
 10039 1d1f 0100     		.2byte	0x1
 10040 1d21 54       		.byte	0x54
 10041 1d22 00000000 		.4byte	0
 10042 1d26 00000000 		.4byte	0
 10043              	.LLST69:
 10044 1d2a 74070000 		.4byte	.LVL325
 10045 1d2e 76070000 		.4byte	.LVL326
 10046 1d32 0100     		.2byte	0x1
 10047 1d34 53       		.byte	0x53
ARM GAS  C:\Users\raytr\AppData\Local\Temp\ccu8NuaS.s 			page 202


 10048 1d35 76070000 		.4byte	.LVL326
 10049 1d39 7A070000 		.4byte	.LVL327
 10050 1d3d 0200     		.2byte	0x2
 10051 1d3f 70       		.byte	0x70
 10052 1d40 06       		.sleb128 6
 10053 1d41 7A070000 		.4byte	.LVL327
 10054 1d45 7C070000 		.4byte	.LVL328
 10055 1d49 0200     		.2byte	0x2
 10056 1d4b 74       		.byte	0x74
 10057 1d4c 06       		.sleb128 6
 10058 1d4d 00000000 		.4byte	0
 10059 1d51 00000000 		.4byte	0
 10060              	.LLST70:
 10061 1d55 74070000 		.4byte	.LVL325
 10062 1d59 7C070000 		.4byte	.LVL328
 10063 1d5d 0100     		.2byte	0x1
 10064 1d5f 52       		.byte	0x52
 10065 1d60 00000000 		.4byte	0
 10066 1d64 00000000 		.4byte	0
 10067              	.LLST71:
 10068 1d68 74070000 		.4byte	.LVL325
 10069 1d6c 7A070000 		.4byte	.LVL327
 10070 1d70 0100     		.2byte	0x1
 10071 1d72 50       		.byte	0x50
 10072 1d73 7A070000 		.4byte	.LVL327
 10073 1d77 7C070000 		.4byte	.LVL328
 10074 1d7b 0100     		.2byte	0x1
 10075 1d7d 54       		.byte	0x54
 10076 1d7e 00000000 		.4byte	0
 10077 1d82 00000000 		.4byte	0
 10078              	.LLST72:
 10079 1d86 8C070000 		.4byte	.LVL330
 10080 1d8a 8E070000 		.4byte	.LVL331
 10081 1d8e 0100     		.2byte	0x1
 10082 1d90 50       		.byte	0x50
 10083 1d91 00000000 		.4byte	0
 10084 1d95 00000000 		.4byte	0
 10085              	.LLST73:
 10086 1d99 8C070000 		.4byte	.LVL330
 10087 1d9d 94070000 		.4byte	.LVL332
 10088 1da1 0100     		.2byte	0x1
 10089 1da3 55       		.byte	0x55
 10090 1da4 00000000 		.4byte	0
 10091 1da8 00000000 		.4byte	0
 10092              	.LLST74:
 10093 1dac 8C070000 		.4byte	.LVL330
 10094 1db0 94070000 		.4byte	.LVL332
 10095 1db4 0100     		.2byte	0x1
 10096 1db6 54       		.byte	0x54
 10097 1db7 00000000 		.4byte	0
 10098 1dbb 00000000 		.4byte	0
 10099              	.LLST75:
 10100 1dbf 96070000 		.4byte	.LVL333
 10101 1dc3 98070000 		.4byte	.LVL334
 10102 1dc7 0100     		.2byte	0x1
 10103 1dc9 53       		.byte	0x53
 10104 1dca 98070000 		.4byte	.LVL334
ARM GAS  C:\Users\raytr\AppData\Local\Temp\ccu8NuaS.s 			page 203


 10105 1dce 9A070000 		.4byte	.LVL335
 10106 1dd2 0200     		.2byte	0x2
 10107 1dd4 70       		.byte	0x70
 10108 1dd5 01       		.sleb128 1
 10109 1dd6 00000000 		.4byte	0
 10110 1dda 00000000 		.4byte	0
 10111              	.LLST77:
 10112 1dde 96070000 		.4byte	.LVL333
 10113 1de2 9C070000 		.4byte	.LVL336
 10114 1de6 0100     		.2byte	0x1
 10115 1de8 50       		.byte	0x50
 10116 1de9 9C070000 		.4byte	.LVL336
 10117 1ded 9E070000 		.4byte	.LVL337
 10118 1df1 0100     		.2byte	0x1
 10119 1df3 54       		.byte	0x54
 10120 1df4 00000000 		.4byte	0
 10121 1df8 00000000 		.4byte	0
 10122              	.LLST78:
 10123 1dfc A2070000 		.4byte	.LVL338
 10124 1e00 AA070000 		.4byte	.LVL342
 10125 1e04 0100     		.2byte	0x1
 10126 1e06 52       		.byte	0x52
 10127 1e07 00000000 		.4byte	0
 10128 1e0b 00000000 		.4byte	0
 10129              	.LLST79:
 10130 1e0f A2070000 		.4byte	.LVL338
 10131 1e13 A4070000 		.4byte	.LVL339
 10132 1e17 0100     		.2byte	0x1
 10133 1e19 53       		.byte	0x53
 10134 1e1a A4070000 		.4byte	.LVL339
 10135 1e1e A6070000 		.4byte	.LVL340
 10136 1e22 0200     		.2byte	0x2
 10137 1e24 70       		.byte	0x70
 10138 1e25 01       		.sleb128 1
 10139 1e26 00000000 		.4byte	0
 10140 1e2a 00000000 		.4byte	0
 10141              	.LLST80:
 10142 1e2e A2070000 		.4byte	.LVL338
 10143 1e32 A8070000 		.4byte	.LVL341
 10144 1e36 0100     		.2byte	0x1
 10145 1e38 50       		.byte	0x50
 10146 1e39 A8070000 		.4byte	.LVL341
 10147 1e3d AA070000 		.4byte	.LVL342
 10148 1e41 0100     		.2byte	0x1
 10149 1e43 54       		.byte	0x54
 10150 1e44 00000000 		.4byte	0
 10151 1e48 00000000 		.4byte	0
 10152              	.LLST81:
 10153 1e4c AE070000 		.4byte	.LVL343
 10154 1e50 B6070000 		.4byte	.LVL347
 10155 1e54 0100     		.2byte	0x1
 10156 1e56 52       		.byte	0x52
 10157 1e57 00000000 		.4byte	0
 10158 1e5b 00000000 		.4byte	0
 10159              	.LLST82:
 10160 1e5f AE070000 		.4byte	.LVL343
 10161 1e63 B0070000 		.4byte	.LVL344
ARM GAS  C:\Users\raytr\AppData\Local\Temp\ccu8NuaS.s 			page 204


 10162 1e67 0100     		.2byte	0x1
 10163 1e69 53       		.byte	0x53
 10164 1e6a B0070000 		.4byte	.LVL344
 10165 1e6e B2070000 		.4byte	.LVL345
 10166 1e72 0200     		.2byte	0x2
 10167 1e74 70       		.byte	0x70
 10168 1e75 01       		.sleb128 1
 10169 1e76 00000000 		.4byte	0
 10170 1e7a 00000000 		.4byte	0
 10171              	.LLST83:
 10172 1e7e AE070000 		.4byte	.LVL343
 10173 1e82 B4070000 		.4byte	.LVL346
 10174 1e86 0100     		.2byte	0x1
 10175 1e88 50       		.byte	0x50
 10176 1e89 B4070000 		.4byte	.LVL346
 10177 1e8d B6070000 		.4byte	.LVL347
 10178 1e91 0100     		.2byte	0x1
 10179 1e93 54       		.byte	0x54
 10180 1e94 00000000 		.4byte	0
 10181 1e98 00000000 		.4byte	0
 10182              	.LLST84:
 10183 1e9c BA070000 		.4byte	.LVL348
 10184 1ea0 C2070000 		.4byte	.LVL352
 10185 1ea4 0100     		.2byte	0x1
 10186 1ea6 52       		.byte	0x52
 10187 1ea7 00000000 		.4byte	0
 10188 1eab 00000000 		.4byte	0
 10189              	.LLST85:
 10190 1eaf BA070000 		.4byte	.LVL348
 10191 1eb3 BC070000 		.4byte	.LVL349
 10192 1eb7 0100     		.2byte	0x1
 10193 1eb9 53       		.byte	0x53
 10194 1eba BC070000 		.4byte	.LVL349
 10195 1ebe BE070000 		.4byte	.LVL350
 10196 1ec2 0200     		.2byte	0x2
 10197 1ec4 70       		.byte	0x70
 10198 1ec5 01       		.sleb128 1
 10199 1ec6 00000000 		.4byte	0
 10200 1eca 00000000 		.4byte	0
 10201              	.LLST86:
 10202 1ece BA070000 		.4byte	.LVL348
 10203 1ed2 C0070000 		.4byte	.LVL351
 10204 1ed6 0100     		.2byte	0x1
 10205 1ed8 50       		.byte	0x50
 10206 1ed9 C0070000 		.4byte	.LVL351
 10207 1edd C2070000 		.4byte	.LVL352
 10208 1ee1 0100     		.2byte	0x1
 10209 1ee3 54       		.byte	0x54
 10210 1ee4 00000000 		.4byte	0
 10211 1ee8 00000000 		.4byte	0
 10212              	.LLST87:
 10213 1eec C6070000 		.4byte	.LVL353
 10214 1ef0 CE070000 		.4byte	.LVL357
 10215 1ef4 0100     		.2byte	0x1
 10216 1ef6 52       		.byte	0x52
 10217 1ef7 00000000 		.4byte	0
 10218 1efb 00000000 		.4byte	0
ARM GAS  C:\Users\raytr\AppData\Local\Temp\ccu8NuaS.s 			page 205


 10219              	.LLST88:
 10220 1eff C6070000 		.4byte	.LVL353
 10221 1f03 C8070000 		.4byte	.LVL354
 10222 1f07 0100     		.2byte	0x1
 10223 1f09 53       		.byte	0x53
 10224 1f0a C8070000 		.4byte	.LVL354
 10225 1f0e CA070000 		.4byte	.LVL355
 10226 1f12 0200     		.2byte	0x2
 10227 1f14 70       		.byte	0x70
 10228 1f15 01       		.sleb128 1
 10229 1f16 00000000 		.4byte	0
 10230 1f1a 00000000 		.4byte	0
 10231              	.LLST89:
 10232 1f1e C6070000 		.4byte	.LVL353
 10233 1f22 CC070000 		.4byte	.LVL356
 10234 1f26 0100     		.2byte	0x1
 10235 1f28 50       		.byte	0x50
 10236 1f29 CC070000 		.4byte	.LVL356
 10237 1f2d CE070000 		.4byte	.LVL357
 10238 1f31 0100     		.2byte	0x1
 10239 1f33 54       		.byte	0x54
 10240 1f34 00000000 		.4byte	0
 10241 1f38 00000000 		.4byte	0
 10242              	.LLST90:
 10243 1f3c D2070000 		.4byte	.LVL358
 10244 1f40 DA070000 		.4byte	.LVL362
 10245 1f44 0100     		.2byte	0x1
 10246 1f46 52       		.byte	0x52
 10247 1f47 00000000 		.4byte	0
 10248 1f4b 00000000 		.4byte	0
 10249              	.LLST91:
 10250 1f4f D2070000 		.4byte	.LVL358
 10251 1f53 D4070000 		.4byte	.LVL359
 10252 1f57 0100     		.2byte	0x1
 10253 1f59 53       		.byte	0x53
 10254 1f5a D4070000 		.4byte	.LVL359
 10255 1f5e D6070000 		.4byte	.LVL360
 10256 1f62 0200     		.2byte	0x2
 10257 1f64 70       		.byte	0x70
 10258 1f65 01       		.sleb128 1
 10259 1f66 00000000 		.4byte	0
 10260 1f6a 00000000 		.4byte	0
 10261              	.LLST92:
 10262 1f6e D2070000 		.4byte	.LVL358
 10263 1f72 D8070000 		.4byte	.LVL361
 10264 1f76 0100     		.2byte	0x1
 10265 1f78 50       		.byte	0x50
 10266 1f79 D8070000 		.4byte	.LVL361
 10267 1f7d DA070000 		.4byte	.LVL362
 10268 1f81 0100     		.2byte	0x1
 10269 1f83 54       		.byte	0x54
 10270 1f84 00000000 		.4byte	0
 10271 1f88 00000000 		.4byte	0
 10272              	.LLST93:
 10273 1f8c DE070000 		.4byte	.LVL363
 10274 1f90 E6070000 		.4byte	.LVL367
 10275 1f94 0100     		.2byte	0x1
ARM GAS  C:\Users\raytr\AppData\Local\Temp\ccu8NuaS.s 			page 206


 10276 1f96 52       		.byte	0x52
 10277 1f97 00000000 		.4byte	0
 10278 1f9b 00000000 		.4byte	0
 10279              	.LLST94:
 10280 1f9f DE070000 		.4byte	.LVL363
 10281 1fa3 E0070000 		.4byte	.LVL364
 10282 1fa7 0100     		.2byte	0x1
 10283 1fa9 53       		.byte	0x53
 10284 1faa E0070000 		.4byte	.LVL364
 10285 1fae E2070000 		.4byte	.LVL365
 10286 1fb2 0200     		.2byte	0x2
 10287 1fb4 70       		.byte	0x70
 10288 1fb5 01       		.sleb128 1
 10289 1fb6 00000000 		.4byte	0
 10290 1fba 00000000 		.4byte	0
 10291              	.LLST95:
 10292 1fbe DE070000 		.4byte	.LVL363
 10293 1fc2 E4070000 		.4byte	.LVL366
 10294 1fc6 0100     		.2byte	0x1
 10295 1fc8 50       		.byte	0x50
 10296 1fc9 E4070000 		.4byte	.LVL366
 10297 1fcd E6070000 		.4byte	.LVL367
 10298 1fd1 0100     		.2byte	0x1
 10299 1fd3 54       		.byte	0x54
 10300 1fd4 00000000 		.4byte	0
 10301 1fd8 00000000 		.4byte	0
 10302              	.LLST96:
 10303 1fdc F6070000 		.4byte	.LVL369
 10304 1fe0 F8070000 		.4byte	.LVL370
 10305 1fe4 0100     		.2byte	0x1
 10306 1fe6 50       		.byte	0x50
 10307 1fe7 00000000 		.4byte	0
 10308 1feb 00000000 		.4byte	0
 10309              	.LLST97:
 10310 1fef F6070000 		.4byte	.LVL369
 10311 1ff3 FE070000 		.4byte	.LVL371
 10312 1ff7 0100     		.2byte	0x1
 10313 1ff9 55       		.byte	0x55
 10314 1ffa 00000000 		.4byte	0
 10315 1ffe 00000000 		.4byte	0
 10316              	.LLST98:
 10317 2002 F6070000 		.4byte	.LVL369
 10318 2006 FE070000 		.4byte	.LVL371
 10319 200a 0100     		.2byte	0x1
 10320 200c 54       		.byte	0x54
 10321 200d 00000000 		.4byte	0
 10322 2011 00000000 		.4byte	0
 10323              	.LLST99:
 10324 2015 0A080000 		.4byte	.LVL375
 10325 2019 12080000 		.4byte	.LVL379
 10326 201d 0100     		.2byte	0x1
 10327 201f 52       		.byte	0x52
 10328 2020 00000000 		.4byte	0
 10329 2024 00000000 		.4byte	0
 10330              	.LLST100:
 10331 2028 0A080000 		.4byte	.LVL375
 10332 202c 0C080000 		.4byte	.LVL376
ARM GAS  C:\Users\raytr\AppData\Local\Temp\ccu8NuaS.s 			page 207


 10333 2030 0100     		.2byte	0x1
 10334 2032 53       		.byte	0x53
 10335 2033 0C080000 		.4byte	.LVL376
 10336 2037 0E080000 		.4byte	.LVL377
 10337 203b 0200     		.2byte	0x2
 10338 203d 70       		.byte	0x70
 10339 203e 01       		.sleb128 1
 10340 203f 00000000 		.4byte	0
 10341 2043 00000000 		.4byte	0
 10342              	.LLST101:
 10343 2047 0A080000 		.4byte	.LVL375
 10344 204b 10080000 		.4byte	.LVL378
 10345 204f 0100     		.2byte	0x1
 10346 2051 50       		.byte	0x50
 10347 2052 10080000 		.4byte	.LVL378
 10348 2056 12080000 		.4byte	.LVL379
 10349 205a 0100     		.2byte	0x1
 10350 205c 54       		.byte	0x54
 10351 205d 00000000 		.4byte	0
 10352 2061 00000000 		.4byte	0
 10353              	.LLST102:
 10354 2065 16080000 		.4byte	.LVL380
 10355 2069 1E080000 		.4byte	.LVL384
 10356 206d 0100     		.2byte	0x1
 10357 206f 52       		.byte	0x52
 10358 2070 00000000 		.4byte	0
 10359 2074 00000000 		.4byte	0
 10360              	.LLST103:
 10361 2078 16080000 		.4byte	.LVL380
 10362 207c 18080000 		.4byte	.LVL381
 10363 2080 0100     		.2byte	0x1
 10364 2082 53       		.byte	0x53
 10365 2083 18080000 		.4byte	.LVL381
 10366 2087 1A080000 		.4byte	.LVL382
 10367 208b 0200     		.2byte	0x2
 10368 208d 70       		.byte	0x70
 10369 208e 01       		.sleb128 1
 10370 208f 00000000 		.4byte	0
 10371 2093 00000000 		.4byte	0
 10372              	.LLST104:
 10373 2097 16080000 		.4byte	.LVL380
 10374 209b 1C080000 		.4byte	.LVL383
 10375 209f 0100     		.2byte	0x1
 10376 20a1 50       		.byte	0x50
 10377 20a2 1C080000 		.4byte	.LVL383
 10378 20a6 1E080000 		.4byte	.LVL384
 10379 20aa 0100     		.2byte	0x1
 10380 20ac 54       		.byte	0x54
 10381 20ad 00000000 		.4byte	0
 10382 20b1 00000000 		.4byte	0
 10383              	.LLST105:
 10384 20b5 22080000 		.4byte	.LVL385
 10385 20b9 2A080000 		.4byte	.LVL389
 10386 20bd 0100     		.2byte	0x1
 10387 20bf 52       		.byte	0x52
 10388 20c0 00000000 		.4byte	0
 10389 20c4 00000000 		.4byte	0
ARM GAS  C:\Users\raytr\AppData\Local\Temp\ccu8NuaS.s 			page 208


 10390              	.LLST106:
 10391 20c8 22080000 		.4byte	.LVL385
 10392 20cc 24080000 		.4byte	.LVL386
 10393 20d0 0100     		.2byte	0x1
 10394 20d2 53       		.byte	0x53
 10395 20d3 24080000 		.4byte	.LVL386
 10396 20d7 26080000 		.4byte	.LVL387
 10397 20db 0200     		.2byte	0x2
 10398 20dd 70       		.byte	0x70
 10399 20de 01       		.sleb128 1
 10400 20df 00000000 		.4byte	0
 10401 20e3 00000000 		.4byte	0
 10402              	.LLST107:
 10403 20e7 22080000 		.4byte	.LVL385
 10404 20eb 28080000 		.4byte	.LVL388
 10405 20ef 0100     		.2byte	0x1
 10406 20f1 50       		.byte	0x50
 10407 20f2 28080000 		.4byte	.LVL388
 10408 20f6 2A080000 		.4byte	.LVL389
 10409 20fa 0100     		.2byte	0x1
 10410 20fc 54       		.byte	0x54
 10411 20fd 00000000 		.4byte	0
 10412 2101 00000000 		.4byte	0
 10413              	.LLST108:
 10414 2105 2E080000 		.4byte	.LVL390
 10415 2109 36080000 		.4byte	.LVL394
 10416 210d 0100     		.2byte	0x1
 10417 210f 52       		.byte	0x52
 10418 2110 00000000 		.4byte	0
 10419 2114 00000000 		.4byte	0
 10420              	.LLST109:
 10421 2118 2E080000 		.4byte	.LVL390
 10422 211c 30080000 		.4byte	.LVL391
 10423 2120 0100     		.2byte	0x1
 10424 2122 53       		.byte	0x53
 10425 2123 30080000 		.4byte	.LVL391
 10426 2127 32080000 		.4byte	.LVL392
 10427 212b 0200     		.2byte	0x2
 10428 212d 70       		.byte	0x70
 10429 212e 01       		.sleb128 1
 10430 212f 00000000 		.4byte	0
 10431 2133 00000000 		.4byte	0
 10432              	.LLST110:
 10433 2137 2E080000 		.4byte	.LVL390
 10434 213b 34080000 		.4byte	.LVL393
 10435 213f 0100     		.2byte	0x1
 10436 2141 50       		.byte	0x50
 10437 2142 34080000 		.4byte	.LVL393
 10438 2146 36080000 		.4byte	.LVL394
 10439 214a 0100     		.2byte	0x1
 10440 214c 54       		.byte	0x54
 10441 214d 00000000 		.4byte	0
 10442 2151 00000000 		.4byte	0
 10443              	.LLST111:
 10444 2155 3A080000 		.4byte	.LVL395
 10445 2159 42080000 		.4byte	.LVL399
 10446 215d 0100     		.2byte	0x1
ARM GAS  C:\Users\raytr\AppData\Local\Temp\ccu8NuaS.s 			page 209


 10447 215f 52       		.byte	0x52
 10448 2160 00000000 		.4byte	0
 10449 2164 00000000 		.4byte	0
 10450              	.LLST112:
 10451 2168 3A080000 		.4byte	.LVL395
 10452 216c 3C080000 		.4byte	.LVL396
 10453 2170 0100     		.2byte	0x1
 10454 2172 53       		.byte	0x53
 10455 2173 3C080000 		.4byte	.LVL396
 10456 2177 3E080000 		.4byte	.LVL397
 10457 217b 0200     		.2byte	0x2
 10458 217d 70       		.byte	0x70
 10459 217e 01       		.sleb128 1
 10460 217f 00000000 		.4byte	0
 10461 2183 00000000 		.4byte	0
 10462              	.LLST113:
 10463 2187 3A080000 		.4byte	.LVL395
 10464 218b 40080000 		.4byte	.LVL398
 10465 218f 0100     		.2byte	0x1
 10466 2191 50       		.byte	0x50
 10467 2192 40080000 		.4byte	.LVL398
 10468 2196 42080000 		.4byte	.LVL399
 10469 219a 0100     		.2byte	0x1
 10470 219c 54       		.byte	0x54
 10471 219d 00000000 		.4byte	0
 10472 21a1 00000000 		.4byte	0
 10473              	.LLST114:
 10474 21a5 46080000 		.4byte	.LVL400
 10475 21a9 4E080000 		.4byte	.LVL404
 10476 21ad 0100     		.2byte	0x1
 10477 21af 52       		.byte	0x52
 10478 21b0 00000000 		.4byte	0
 10479 21b4 00000000 		.4byte	0
 10480              	.LLST115:
 10481 21b8 46080000 		.4byte	.LVL400
 10482 21bc 48080000 		.4byte	.LVL401
 10483 21c0 0100     		.2byte	0x1
 10484 21c2 53       		.byte	0x53
 10485 21c3 48080000 		.4byte	.LVL401
 10486 21c7 4A080000 		.4byte	.LVL402
 10487 21cb 0200     		.2byte	0x2
 10488 21cd 70       		.byte	0x70
 10489 21ce 01       		.sleb128 1
 10490 21cf 00000000 		.4byte	0
 10491 21d3 00000000 		.4byte	0
 10492              	.LLST116:
 10493 21d7 46080000 		.4byte	.LVL400
 10494 21db 4C080000 		.4byte	.LVL403
 10495 21df 0100     		.2byte	0x1
 10496 21e1 50       		.byte	0x50
 10497 21e2 4C080000 		.4byte	.LVL403
 10498 21e6 4E080000 		.4byte	.LVL404
 10499 21ea 0100     		.2byte	0x1
 10500 21ec 54       		.byte	0x54
 10501 21ed 00000000 		.4byte	0
 10502 21f1 00000000 		.4byte	0
 10503              	.LLST117:
ARM GAS  C:\Users\raytr\AppData\Local\Temp\ccu8NuaS.s 			page 210


 10504 21f5 5E080000 		.4byte	.LVL406
 10505 21f9 60080000 		.4byte	.LVL407
 10506 21fd 0100     		.2byte	0x1
 10507 21ff 50       		.byte	0x50
 10508 2200 00000000 		.4byte	0
 10509 2204 00000000 		.4byte	0
 10510              	.LLST118:
 10511 2208 5E080000 		.4byte	.LVL406
 10512 220c 66080000 		.4byte	.LVL408
 10513 2210 0100     		.2byte	0x1
 10514 2212 55       		.byte	0x55
 10515 2213 00000000 		.4byte	0
 10516 2217 00000000 		.4byte	0
 10517              	.LLST119:
 10518 221b 5E080000 		.4byte	.LVL406
 10519 221f 66080000 		.4byte	.LVL408
 10520 2223 0100     		.2byte	0x1
 10521 2225 54       		.byte	0x54
 10522 2226 00000000 		.4byte	0
 10523 222a 00000000 		.4byte	0
 10524              	.LLST120:
 10525 222e 72080000 		.4byte	.LVL412
 10526 2232 74080000 		.4byte	.LVL413
 10527 2236 0100     		.2byte	0x1
 10528 2238 53       		.byte	0x53
 10529 2239 74080000 		.4byte	.LVL413
 10530 223d 78080000 		.4byte	.LVL414
 10531 2241 0200     		.2byte	0x2
 10532 2243 70       		.byte	0x70
 10533 2244 03       		.sleb128 3
 10534 2245 78080000 		.4byte	.LVL414
 10535 2249 7A080000 		.4byte	.LVL415
 10536 224d 0200     		.2byte	0x2
 10537 224f 74       		.byte	0x74
 10538 2250 03       		.sleb128 3
 10539 2251 00000000 		.4byte	0
 10540 2255 00000000 		.4byte	0
 10541              	.LLST121:
 10542 2259 72080000 		.4byte	.LVL412
 10543 225d 7A080000 		.4byte	.LVL415
 10544 2261 0100     		.2byte	0x1
 10545 2263 52       		.byte	0x52
 10546 2264 00000000 		.4byte	0
 10547 2268 00000000 		.4byte	0
 10548              	.LLST122:
 10549 226c 72080000 		.4byte	.LVL412
 10550 2270 78080000 		.4byte	.LVL414
 10551 2274 0100     		.2byte	0x1
 10552 2276 50       		.byte	0x50
 10553 2277 78080000 		.4byte	.LVL414
 10554 227b 7A080000 		.4byte	.LVL415
 10555 227f 0100     		.2byte	0x1
 10556 2281 54       		.byte	0x54
 10557 2282 00000000 		.4byte	0
 10558 2286 00000000 		.4byte	0
 10559              	.LLST123:
 10560 228a 7E080000 		.4byte	.LVL416
ARM GAS  C:\Users\raytr\AppData\Local\Temp\ccu8NuaS.s 			page 211


 10561 228e 80080000 		.4byte	.LVL417
 10562 2292 0100     		.2byte	0x1
 10563 2294 53       		.byte	0x53
 10564 2295 80080000 		.4byte	.LVL417
 10565 2299 84080000 		.4byte	.LVL418
 10566 229d 0200     		.2byte	0x2
 10567 229f 70       		.byte	0x70
 10568 22a0 02       		.sleb128 2
 10569 22a1 84080000 		.4byte	.LVL418
 10570 22a5 86080000 		.4byte	.LVL419
 10571 22a9 0200     		.2byte	0x2
 10572 22ab 74       		.byte	0x74
 10573 22ac 02       		.sleb128 2
 10574 22ad 00000000 		.4byte	0
 10575 22b1 00000000 		.4byte	0
 10576              	.LLST124:
 10577 22b5 7E080000 		.4byte	.LVL416
 10578 22b9 86080000 		.4byte	.LVL419
 10579 22bd 0100     		.2byte	0x1
 10580 22bf 52       		.byte	0x52
 10581 22c0 00000000 		.4byte	0
 10582 22c4 00000000 		.4byte	0
 10583              	.LLST125:
 10584 22c8 7E080000 		.4byte	.LVL416
 10585 22cc 84080000 		.4byte	.LVL418
 10586 22d0 0100     		.2byte	0x1
 10587 22d2 50       		.byte	0x50
 10588 22d3 84080000 		.4byte	.LVL418
 10589 22d7 86080000 		.4byte	.LVL419
 10590 22db 0100     		.2byte	0x1
 10591 22dd 54       		.byte	0x54
 10592 22de 00000000 		.4byte	0
 10593 22e2 00000000 		.4byte	0
 10594              	.LLST126:
 10595 22e6 8A080000 		.4byte	.LVL420
 10596 22ea 8C080000 		.4byte	.LVL421
 10597 22ee 0100     		.2byte	0x1
 10598 22f0 53       		.byte	0x53
 10599 22f1 8C080000 		.4byte	.LVL421
 10600 22f5 90080000 		.4byte	.LVL422
 10601 22f9 0200     		.2byte	0x2
 10602 22fb 70       		.byte	0x70
 10603 22fc 05       		.sleb128 5
 10604 22fd 90080000 		.4byte	.LVL422
 10605 2301 92080000 		.4byte	.LVL423
 10606 2305 0200     		.2byte	0x2
 10607 2307 74       		.byte	0x74
 10608 2308 05       		.sleb128 5
 10609 2309 00000000 		.4byte	0
 10610 230d 00000000 		.4byte	0
 10611              	.LLST127:
 10612 2311 8A080000 		.4byte	.LVL420
 10613 2315 92080000 		.4byte	.LVL423
 10614 2319 0100     		.2byte	0x1
 10615 231b 52       		.byte	0x52
 10616 231c 00000000 		.4byte	0
 10617 2320 00000000 		.4byte	0
ARM GAS  C:\Users\raytr\AppData\Local\Temp\ccu8NuaS.s 			page 212


 10618              	.LLST128:
 10619 2324 8A080000 		.4byte	.LVL420
 10620 2328 90080000 		.4byte	.LVL422
 10621 232c 0100     		.2byte	0x1
 10622 232e 50       		.byte	0x50
 10623 232f 90080000 		.4byte	.LVL422
 10624 2333 92080000 		.4byte	.LVL423
 10625 2337 0100     		.2byte	0x1
 10626 2339 54       		.byte	0x54
 10627 233a 00000000 		.4byte	0
 10628 233e 00000000 		.4byte	0
 10629              	.LLST129:
 10630 2342 96080000 		.4byte	.LVL424
 10631 2346 98080000 		.4byte	.LVL425
 10632 234a 0100     		.2byte	0x1
 10633 234c 53       		.byte	0x53
 10634 234d 98080000 		.4byte	.LVL425
 10635 2351 9C080000 		.4byte	.LVL426
 10636 2355 0200     		.2byte	0x2
 10637 2357 70       		.byte	0x70
 10638 2358 04       		.sleb128 4
 10639 2359 9C080000 		.4byte	.LVL426
 10640 235d 9E080000 		.4byte	.LVL427
 10641 2361 0200     		.2byte	0x2
 10642 2363 74       		.byte	0x74
 10643 2364 04       		.sleb128 4
 10644 2365 00000000 		.4byte	0
 10645 2369 00000000 		.4byte	0
 10646              	.LLST130:
 10647 236d 96080000 		.4byte	.LVL424
 10648 2371 9E080000 		.4byte	.LVL427
 10649 2375 0100     		.2byte	0x1
 10650 2377 52       		.byte	0x52
 10651 2378 00000000 		.4byte	0
 10652 237c 00000000 		.4byte	0
 10653              	.LLST131:
 10654 2380 96080000 		.4byte	.LVL424
 10655 2384 9C080000 		.4byte	.LVL426
 10656 2388 0100     		.2byte	0x1
 10657 238a 50       		.byte	0x50
 10658 238b 9C080000 		.4byte	.LVL426
 10659 238f 9E080000 		.4byte	.LVL427
 10660 2393 0100     		.2byte	0x1
 10661 2395 54       		.byte	0x54
 10662 2396 00000000 		.4byte	0
 10663 239a 00000000 		.4byte	0
 10664              	.LLST132:
 10665 239e A2080000 		.4byte	.LVL428
 10666 23a2 A4080000 		.4byte	.LVL429
 10667 23a6 0100     		.2byte	0x1
 10668 23a8 53       		.byte	0x53
 10669 23a9 A4080000 		.4byte	.LVL429
 10670 23ad A8080000 		.4byte	.LVL430
 10671 23b1 0200     		.2byte	0x2
 10672 23b3 70       		.byte	0x70
 10673 23b4 07       		.sleb128 7
 10674 23b5 A8080000 		.4byte	.LVL430
ARM GAS  C:\Users\raytr\AppData\Local\Temp\ccu8NuaS.s 			page 213


 10675 23b9 AA080000 		.4byte	.LVL431
 10676 23bd 0200     		.2byte	0x2
 10677 23bf 74       		.byte	0x74
 10678 23c0 07       		.sleb128 7
 10679 23c1 00000000 		.4byte	0
 10680 23c5 00000000 		.4byte	0
 10681              	.LLST133:
 10682 23c9 A2080000 		.4byte	.LVL428
 10683 23cd AA080000 		.4byte	.LVL431
 10684 23d1 0100     		.2byte	0x1
 10685 23d3 52       		.byte	0x52
 10686 23d4 00000000 		.4byte	0
 10687 23d8 00000000 		.4byte	0
 10688              	.LLST134:
 10689 23dc A2080000 		.4byte	.LVL428
 10690 23e0 A8080000 		.4byte	.LVL430
 10691 23e4 0100     		.2byte	0x1
 10692 23e6 50       		.byte	0x50
 10693 23e7 A8080000 		.4byte	.LVL430
 10694 23eb AA080000 		.4byte	.LVL431
 10695 23ef 0100     		.2byte	0x1
 10696 23f1 54       		.byte	0x54
 10697 23f2 00000000 		.4byte	0
 10698 23f6 00000000 		.4byte	0
 10699              	.LLST135:
 10700 23fa AE080000 		.4byte	.LVL432
 10701 23fe B0080000 		.4byte	.LVL433
 10702 2402 0100     		.2byte	0x1
 10703 2404 53       		.byte	0x53
 10704 2405 B0080000 		.4byte	.LVL433
 10705 2409 B4080000 		.4byte	.LVL434
 10706 240d 0200     		.2byte	0x2
 10707 240f 70       		.byte	0x70
 10708 2410 06       		.sleb128 6
 10709 2411 B4080000 		.4byte	.LVL434
 10710 2415 B6080000 		.4byte	.LVL435
 10711 2419 0200     		.2byte	0x2
 10712 241b 74       		.byte	0x74
 10713 241c 06       		.sleb128 6
 10714 241d 00000000 		.4byte	0
 10715 2421 00000000 		.4byte	0
 10716              	.LLST136:
 10717 2425 AE080000 		.4byte	.LVL432
 10718 2429 B6080000 		.4byte	.LVL435
 10719 242d 0100     		.2byte	0x1
 10720 242f 52       		.byte	0x52
 10721 2430 00000000 		.4byte	0
 10722 2434 00000000 		.4byte	0
 10723              	.LLST137:
 10724 2438 AE080000 		.4byte	.LVL432
 10725 243c B4080000 		.4byte	.LVL434
 10726 2440 0100     		.2byte	0x1
 10727 2442 50       		.byte	0x50
 10728 2443 B4080000 		.4byte	.LVL434
 10729 2447 B6080000 		.4byte	.LVL435
 10730 244b 0100     		.2byte	0x1
 10731 244d 54       		.byte	0x54
ARM GAS  C:\Users\raytr\AppData\Local\Temp\ccu8NuaS.s 			page 214


 10732 244e 00000000 		.4byte	0
 10733 2452 00000000 		.4byte	0
 10734              	.LLST138:
 10735 2456 C6080000 		.4byte	.LVL437
 10736 245a C8080000 		.4byte	.LVL438
 10737 245e 0100     		.2byte	0x1
 10738 2460 50       		.byte	0x50
 10739 2461 00000000 		.4byte	0
 10740 2465 00000000 		.4byte	0
 10741              	.LLST139:
 10742 2469 C6080000 		.4byte	.LVL437
 10743 246d CE080000 		.4byte	.LVL439
 10744 2471 0100     		.2byte	0x1
 10745 2473 55       		.byte	0x55
 10746 2474 00000000 		.4byte	0
 10747 2478 00000000 		.4byte	0
 10748              	.LLST140:
 10749 247c C6080000 		.4byte	.LVL437
 10750 2480 CE080000 		.4byte	.LVL439
 10751 2484 0100     		.2byte	0x1
 10752 2486 54       		.byte	0x54
 10753 2487 00000000 		.4byte	0
 10754 248b 00000000 		.4byte	0
 10755              	.LLST141:
 10756 248f D2080000 		.4byte	.LVL440
 10757 2493 D4080000 		.4byte	.LVL441
 10758 2497 0100     		.2byte	0x1
 10759 2499 53       		.byte	0x53
 10760 249a D4080000 		.4byte	.LVL441
 10761 249e D8080000 		.4byte	.LVL442
 10762 24a2 0200     		.2byte	0x2
 10763 24a4 70       		.byte	0x70
 10764 24a5 03       		.sleb128 3
 10765 24a6 D8080000 		.4byte	.LVL442
 10766 24aa DA080000 		.4byte	.LVL443
 10767 24ae 0200     		.2byte	0x2
 10768 24b0 74       		.byte	0x74
 10769 24b1 03       		.sleb128 3
 10770 24b2 00000000 		.4byte	0
 10771 24b6 00000000 		.4byte	0
 10772              	.LLST142:
 10773 24ba D2080000 		.4byte	.LVL440
 10774 24be DA080000 		.4byte	.LVL443
 10775 24c2 0100     		.2byte	0x1
 10776 24c4 52       		.byte	0x52
 10777 24c5 00000000 		.4byte	0
 10778 24c9 00000000 		.4byte	0
 10779              	.LLST143:
 10780 24cd D2080000 		.4byte	.LVL440
 10781 24d1 D8080000 		.4byte	.LVL442
 10782 24d5 0100     		.2byte	0x1
 10783 24d7 50       		.byte	0x50
 10784 24d8 D8080000 		.4byte	.LVL442
 10785 24dc DA080000 		.4byte	.LVL443
 10786 24e0 0100     		.2byte	0x1
 10787 24e2 54       		.byte	0x54
 10788 24e3 00000000 		.4byte	0
ARM GAS  C:\Users\raytr\AppData\Local\Temp\ccu8NuaS.s 			page 215


 10789 24e7 00000000 		.4byte	0
 10790              	.LLST144:
 10791 24eb DE080000 		.4byte	.LVL444
 10792 24ef E0080000 		.4byte	.LVL445
 10793 24f3 0100     		.2byte	0x1
 10794 24f5 53       		.byte	0x53
 10795 24f6 E0080000 		.4byte	.LVL445
 10796 24fa E4080000 		.4byte	.LVL446
 10797 24fe 0200     		.2byte	0x2
 10798 2500 70       		.byte	0x70
 10799 2501 02       		.sleb128 2
 10800 2502 E4080000 		.4byte	.LVL446
 10801 2506 E6080000 		.4byte	.LVL447
 10802 250a 0200     		.2byte	0x2
 10803 250c 74       		.byte	0x74
 10804 250d 02       		.sleb128 2
 10805 250e 00000000 		.4byte	0
 10806 2512 00000000 		.4byte	0
 10807              	.LLST145:
 10808 2516 DE080000 		.4byte	.LVL444
 10809 251a E6080000 		.4byte	.LVL447
 10810 251e 0100     		.2byte	0x1
 10811 2520 52       		.byte	0x52
 10812 2521 00000000 		.4byte	0
 10813 2525 00000000 		.4byte	0
 10814              	.LLST146:
 10815 2529 DE080000 		.4byte	.LVL444
 10816 252d E4080000 		.4byte	.LVL446
 10817 2531 0100     		.2byte	0x1
 10818 2533 50       		.byte	0x50
 10819 2534 E4080000 		.4byte	.LVL446
 10820 2538 E6080000 		.4byte	.LVL447
 10821 253c 0100     		.2byte	0x1
 10822 253e 54       		.byte	0x54
 10823 253f 00000000 		.4byte	0
 10824 2543 00000000 		.4byte	0
 10825              	.LLST147:
 10826 2547 EA080000 		.4byte	.LVL448
 10827 254b EC080000 		.4byte	.LVL449
 10828 254f 0100     		.2byte	0x1
 10829 2551 53       		.byte	0x53
 10830 2552 EC080000 		.4byte	.LVL449
 10831 2556 F0080000 		.4byte	.LVL450
 10832 255a 0200     		.2byte	0x2
 10833 255c 70       		.byte	0x70
 10834 255d 05       		.sleb128 5
 10835 255e F0080000 		.4byte	.LVL450
 10836 2562 F2080000 		.4byte	.LVL451
 10837 2566 0200     		.2byte	0x2
 10838 2568 74       		.byte	0x74
 10839 2569 05       		.sleb128 5
 10840 256a 00000000 		.4byte	0
 10841 256e 00000000 		.4byte	0
 10842              	.LLST148:
 10843 2572 EA080000 		.4byte	.LVL448
 10844 2576 F2080000 		.4byte	.LVL451
 10845 257a 0100     		.2byte	0x1
ARM GAS  C:\Users\raytr\AppData\Local\Temp\ccu8NuaS.s 			page 216


 10846 257c 52       		.byte	0x52
 10847 257d 00000000 		.4byte	0
 10848 2581 00000000 		.4byte	0
 10849              	.LLST149:
 10850 2585 EA080000 		.4byte	.LVL448
 10851 2589 F0080000 		.4byte	.LVL450
 10852 258d 0100     		.2byte	0x1
 10853 258f 50       		.byte	0x50
 10854 2590 F0080000 		.4byte	.LVL450
 10855 2594 F2080000 		.4byte	.LVL451
 10856 2598 0100     		.2byte	0x1
 10857 259a 54       		.byte	0x54
 10858 259b 00000000 		.4byte	0
 10859 259f 00000000 		.4byte	0
 10860              	.LLST150:
 10861 25a3 F6080000 		.4byte	.LVL452
 10862 25a7 F8080000 		.4byte	.LVL453
 10863 25ab 0100     		.2byte	0x1
 10864 25ad 53       		.byte	0x53
 10865 25ae F8080000 		.4byte	.LVL453
 10866 25b2 FC080000 		.4byte	.LVL454
 10867 25b6 0200     		.2byte	0x2
 10868 25b8 70       		.byte	0x70
 10869 25b9 04       		.sleb128 4
 10870 25ba FC080000 		.4byte	.LVL454
 10871 25be FE080000 		.4byte	.LVL455
 10872 25c2 0200     		.2byte	0x2
 10873 25c4 74       		.byte	0x74
 10874 25c5 04       		.sleb128 4
 10875 25c6 00000000 		.4byte	0
 10876 25ca 00000000 		.4byte	0
 10877              	.LLST151:
 10878 25ce F6080000 		.4byte	.LVL452
 10879 25d2 FE080000 		.4byte	.LVL455
 10880 25d6 0100     		.2byte	0x1
 10881 25d8 52       		.byte	0x52
 10882 25d9 00000000 		.4byte	0
 10883 25dd 00000000 		.4byte	0
 10884              	.LLST152:
 10885 25e1 F6080000 		.4byte	.LVL452
 10886 25e5 FC080000 		.4byte	.LVL454
 10887 25e9 0100     		.2byte	0x1
 10888 25eb 50       		.byte	0x50
 10889 25ec FC080000 		.4byte	.LVL454
 10890 25f0 FE080000 		.4byte	.LVL455
 10891 25f4 0100     		.2byte	0x1
 10892 25f6 54       		.byte	0x54
 10893 25f7 00000000 		.4byte	0
 10894 25fb 00000000 		.4byte	0
 10895              	.LLST153:
 10896 25ff 02090000 		.4byte	.LVL456
 10897 2603 04090000 		.4byte	.LVL457
 10898 2607 0100     		.2byte	0x1
 10899 2609 53       		.byte	0x53
 10900 260a 04090000 		.4byte	.LVL457
 10901 260e 08090000 		.4byte	.LVL458
 10902 2612 0200     		.2byte	0x2
ARM GAS  C:\Users\raytr\AppData\Local\Temp\ccu8NuaS.s 			page 217


 10903 2614 70       		.byte	0x70
 10904 2615 07       		.sleb128 7
 10905 2616 08090000 		.4byte	.LVL458
 10906 261a 0A090000 		.4byte	.LVL459
 10907 261e 0200     		.2byte	0x2
 10908 2620 74       		.byte	0x74
 10909 2621 07       		.sleb128 7
 10910 2622 00000000 		.4byte	0
 10911 2626 00000000 		.4byte	0
 10912              	.LLST154:
 10913 262a 02090000 		.4byte	.LVL456
 10914 262e 0A090000 		.4byte	.LVL459
 10915 2632 0100     		.2byte	0x1
 10916 2634 52       		.byte	0x52
 10917 2635 00000000 		.4byte	0
 10918 2639 00000000 		.4byte	0
 10919              	.LLST155:
 10920 263d 02090000 		.4byte	.LVL456
 10921 2641 08090000 		.4byte	.LVL458
 10922 2645 0100     		.2byte	0x1
 10923 2647 50       		.byte	0x50
 10924 2648 08090000 		.4byte	.LVL458
 10925 264c 0A090000 		.4byte	.LVL459
 10926 2650 0100     		.2byte	0x1
 10927 2652 54       		.byte	0x54
 10928 2653 00000000 		.4byte	0
 10929 2657 00000000 		.4byte	0
 10930              	.LLST156:
 10931 265b 0E090000 		.4byte	.LVL460
 10932 265f 10090000 		.4byte	.LVL461
 10933 2663 0100     		.2byte	0x1
 10934 2665 53       		.byte	0x53
 10935 2666 10090000 		.4byte	.LVL461
 10936 266a 14090000 		.4byte	.LVL462
 10937 266e 0200     		.2byte	0x2
 10938 2670 70       		.byte	0x70
 10939 2671 06       		.sleb128 6
 10940 2672 14090000 		.4byte	.LVL462
 10941 2676 16090000 		.4byte	.LVL463
 10942 267a 0200     		.2byte	0x2
 10943 267c 74       		.byte	0x74
 10944 267d 06       		.sleb128 6
 10945 267e 00000000 		.4byte	0
 10946 2682 00000000 		.4byte	0
 10947              	.LLST157:
 10948 2686 0E090000 		.4byte	.LVL460
 10949 268a 16090000 		.4byte	.LVL463
 10950 268e 0100     		.2byte	0x1
 10951 2690 52       		.byte	0x52
 10952 2691 00000000 		.4byte	0
 10953 2695 00000000 		.4byte	0
 10954              	.LLST158:
 10955 2699 0E090000 		.4byte	.LVL460
 10956 269d 14090000 		.4byte	.LVL462
 10957 26a1 0100     		.2byte	0x1
 10958 26a3 50       		.byte	0x50
 10959 26a4 14090000 		.4byte	.LVL462
ARM GAS  C:\Users\raytr\AppData\Local\Temp\ccu8NuaS.s 			page 218


 10960 26a8 16090000 		.4byte	.LVL463
 10961 26ac 0100     		.2byte	0x1
 10962 26ae 54       		.byte	0x54
 10963 26af 00000000 		.4byte	0
 10964 26b3 00000000 		.4byte	0
 10965              	.LLST159:
 10966 26b7 26090000 		.4byte	.LVL465
 10967 26bb 28090000 		.4byte	.LVL466
 10968 26bf 0100     		.2byte	0x1
 10969 26c1 50       		.byte	0x50
 10970 26c2 00000000 		.4byte	0
 10971 26c6 00000000 		.4byte	0
 10972              	.LLST160:
 10973 26ca 26090000 		.4byte	.LVL465
 10974 26ce 2E090000 		.4byte	.LVL467
 10975 26d2 0100     		.2byte	0x1
 10976 26d4 55       		.byte	0x55
 10977 26d5 00000000 		.4byte	0
 10978 26d9 00000000 		.4byte	0
 10979              	.LLST161:
 10980 26dd 26090000 		.4byte	.LVL465
 10981 26e1 2E090000 		.4byte	.LVL467
 10982 26e5 0100     		.2byte	0x1
 10983 26e7 54       		.byte	0x54
 10984 26e8 00000000 		.4byte	0
 10985 26ec 00000000 		.4byte	0
 10986              	.LLST162:
 10987 26f0 3A090000 		.4byte	.LVL471
 10988 26f4 3C090000 		.4byte	.LVL472
 10989 26f8 0100     		.2byte	0x1
 10990 26fa 53       		.byte	0x53
 10991 26fb 3C090000 		.4byte	.LVL472
 10992 26ff 40090000 		.4byte	.LVL473
 10993 2703 0200     		.2byte	0x2
 10994 2705 70       		.byte	0x70
 10995 2706 03       		.sleb128 3
 10996 2707 40090000 		.4byte	.LVL473
 10997 270b 42090000 		.4byte	.LVL474
 10998 270f 0200     		.2byte	0x2
 10999 2711 74       		.byte	0x74
 11000 2712 03       		.sleb128 3
 11001 2713 00000000 		.4byte	0
 11002 2717 00000000 		.4byte	0
 11003              	.LLST163:
 11004 271b 3A090000 		.4byte	.LVL471
 11005 271f 42090000 		.4byte	.LVL474
 11006 2723 0100     		.2byte	0x1
 11007 2725 52       		.byte	0x52
 11008 2726 00000000 		.4byte	0
 11009 272a 00000000 		.4byte	0
 11010              	.LLST164:
 11011 272e 3A090000 		.4byte	.LVL471
 11012 2732 40090000 		.4byte	.LVL473
 11013 2736 0100     		.2byte	0x1
 11014 2738 50       		.byte	0x50
 11015 2739 40090000 		.4byte	.LVL473
 11016 273d 42090000 		.4byte	.LVL474
ARM GAS  C:\Users\raytr\AppData\Local\Temp\ccu8NuaS.s 			page 219


 11017 2741 0100     		.2byte	0x1
 11018 2743 54       		.byte	0x54
 11019 2744 00000000 		.4byte	0
 11020 2748 00000000 		.4byte	0
 11021              	.LLST165:
 11022 274c 46090000 		.4byte	.LVL475
 11023 2750 48090000 		.4byte	.LVL476
 11024 2754 0100     		.2byte	0x1
 11025 2756 53       		.byte	0x53
 11026 2757 48090000 		.4byte	.LVL476
 11027 275b 4C090000 		.4byte	.LVL477
 11028 275f 0200     		.2byte	0x2
 11029 2761 70       		.byte	0x70
 11030 2762 02       		.sleb128 2
 11031 2763 4C090000 		.4byte	.LVL477
 11032 2767 4E090000 		.4byte	.LVL478
 11033 276b 0200     		.2byte	0x2
 11034 276d 74       		.byte	0x74
 11035 276e 02       		.sleb128 2
 11036 276f 00000000 		.4byte	0
 11037 2773 00000000 		.4byte	0
 11038              	.LLST166:
 11039 2777 46090000 		.4byte	.LVL475
 11040 277b 4E090000 		.4byte	.LVL478
 11041 277f 0100     		.2byte	0x1
 11042 2781 52       		.byte	0x52
 11043 2782 00000000 		.4byte	0
 11044 2786 00000000 		.4byte	0
 11045              	.LLST167:
 11046 278a 46090000 		.4byte	.LVL475
 11047 278e 4C090000 		.4byte	.LVL477
 11048 2792 0100     		.2byte	0x1
 11049 2794 50       		.byte	0x50
 11050 2795 4C090000 		.4byte	.LVL477
 11051 2799 4E090000 		.4byte	.LVL478
 11052 279d 0100     		.2byte	0x1
 11053 279f 54       		.byte	0x54
 11054 27a0 00000000 		.4byte	0
 11055 27a4 00000000 		.4byte	0
 11056              	.LLST168:
 11057 27a8 52090000 		.4byte	.LVL479
 11058 27ac 54090000 		.4byte	.LVL480
 11059 27b0 0100     		.2byte	0x1
 11060 27b2 53       		.byte	0x53
 11061 27b3 54090000 		.4byte	.LVL480
 11062 27b7 58090000 		.4byte	.LVL481
 11063 27bb 0200     		.2byte	0x2
 11064 27bd 70       		.byte	0x70
 11065 27be 05       		.sleb128 5
 11066 27bf 58090000 		.4byte	.LVL481
 11067 27c3 5A090000 		.4byte	.LVL482
 11068 27c7 0200     		.2byte	0x2
 11069 27c9 74       		.byte	0x74
 11070 27ca 05       		.sleb128 5
 11071 27cb 00000000 		.4byte	0
 11072 27cf 00000000 		.4byte	0
 11073              	.LLST169:
ARM GAS  C:\Users\raytr\AppData\Local\Temp\ccu8NuaS.s 			page 220


 11074 27d3 52090000 		.4byte	.LVL479
 11075 27d7 5A090000 		.4byte	.LVL482
 11076 27db 0100     		.2byte	0x1
 11077 27dd 52       		.byte	0x52
 11078 27de 00000000 		.4byte	0
 11079 27e2 00000000 		.4byte	0
 11080              	.LLST170:
 11081 27e6 52090000 		.4byte	.LVL479
 11082 27ea 58090000 		.4byte	.LVL481
 11083 27ee 0100     		.2byte	0x1
 11084 27f0 50       		.byte	0x50
 11085 27f1 58090000 		.4byte	.LVL481
 11086 27f5 5A090000 		.4byte	.LVL482
 11087 27f9 0100     		.2byte	0x1
 11088 27fb 54       		.byte	0x54
 11089 27fc 00000000 		.4byte	0
 11090 2800 00000000 		.4byte	0
 11091              	.LLST171:
 11092 2804 5E090000 		.4byte	.LVL483
 11093 2808 60090000 		.4byte	.LVL484
 11094 280c 0100     		.2byte	0x1
 11095 280e 53       		.byte	0x53
 11096 280f 60090000 		.4byte	.LVL484
 11097 2813 64090000 		.4byte	.LVL485
 11098 2817 0200     		.2byte	0x2
 11099 2819 70       		.byte	0x70
 11100 281a 04       		.sleb128 4
 11101 281b 64090000 		.4byte	.LVL485
 11102 281f 66090000 		.4byte	.LVL486
 11103 2823 0200     		.2byte	0x2
 11104 2825 74       		.byte	0x74
 11105 2826 04       		.sleb128 4
 11106 2827 00000000 		.4byte	0
 11107 282b 00000000 		.4byte	0
 11108              	.LLST172:
 11109 282f 5E090000 		.4byte	.LVL483
 11110 2833 66090000 		.4byte	.LVL486
 11111 2837 0100     		.2byte	0x1
 11112 2839 52       		.byte	0x52
 11113 283a 00000000 		.4byte	0
 11114 283e 00000000 		.4byte	0
 11115              	.LLST173:
 11116 2842 5E090000 		.4byte	.LVL483
 11117 2846 64090000 		.4byte	.LVL485
 11118 284a 0100     		.2byte	0x1
 11119 284c 50       		.byte	0x50
 11120 284d 64090000 		.4byte	.LVL485
 11121 2851 66090000 		.4byte	.LVL486
 11122 2855 0100     		.2byte	0x1
 11123 2857 54       		.byte	0x54
 11124 2858 00000000 		.4byte	0
 11125 285c 00000000 		.4byte	0
 11126              	.LLST174:
 11127 2860 6A090000 		.4byte	.LVL487
 11128 2864 6C090000 		.4byte	.LVL488
 11129 2868 0100     		.2byte	0x1
 11130 286a 53       		.byte	0x53
ARM GAS  C:\Users\raytr\AppData\Local\Temp\ccu8NuaS.s 			page 221


 11131 286b 6C090000 		.4byte	.LVL488
 11132 286f 70090000 		.4byte	.LVL489
 11133 2873 0200     		.2byte	0x2
 11134 2875 70       		.byte	0x70
 11135 2876 07       		.sleb128 7
 11136 2877 70090000 		.4byte	.LVL489
 11137 287b 72090000 		.4byte	.LVL490
 11138 287f 0200     		.2byte	0x2
 11139 2881 74       		.byte	0x74
 11140 2882 07       		.sleb128 7
 11141 2883 00000000 		.4byte	0
 11142 2887 00000000 		.4byte	0
 11143              	.LLST175:
 11144 288b 6A090000 		.4byte	.LVL487
 11145 288f 72090000 		.4byte	.LVL490
 11146 2893 0100     		.2byte	0x1
 11147 2895 52       		.byte	0x52
 11148 2896 00000000 		.4byte	0
 11149 289a 00000000 		.4byte	0
 11150              	.LLST176:
 11151 289e 6A090000 		.4byte	.LVL487
 11152 28a2 70090000 		.4byte	.LVL489
 11153 28a6 0100     		.2byte	0x1
 11154 28a8 50       		.byte	0x50
 11155 28a9 70090000 		.4byte	.LVL489
 11156 28ad 72090000 		.4byte	.LVL490
 11157 28b1 0100     		.2byte	0x1
 11158 28b3 54       		.byte	0x54
 11159 28b4 00000000 		.4byte	0
 11160 28b8 00000000 		.4byte	0
 11161              	.LLST177:
 11162 28bc 76090000 		.4byte	.LVL491
 11163 28c0 78090000 		.4byte	.LVL492
 11164 28c4 0100     		.2byte	0x1
 11165 28c6 53       		.byte	0x53
 11166 28c7 78090000 		.4byte	.LVL492
 11167 28cb 7C090000 		.4byte	.LVL493
 11168 28cf 0200     		.2byte	0x2
 11169 28d1 70       		.byte	0x70
 11170 28d2 06       		.sleb128 6
 11171 28d3 7C090000 		.4byte	.LVL493
 11172 28d7 7E090000 		.4byte	.LVL494
 11173 28db 0200     		.2byte	0x2
 11174 28dd 74       		.byte	0x74
 11175 28de 06       		.sleb128 6
 11176 28df 00000000 		.4byte	0
 11177 28e3 00000000 		.4byte	0
 11178              	.LLST178:
 11179 28e7 76090000 		.4byte	.LVL491
 11180 28eb 7E090000 		.4byte	.LVL494
 11181 28ef 0100     		.2byte	0x1
 11182 28f1 52       		.byte	0x52
 11183 28f2 00000000 		.4byte	0
 11184 28f6 00000000 		.4byte	0
 11185              	.LLST179:
 11186 28fa 76090000 		.4byte	.LVL491
 11187 28fe 7C090000 		.4byte	.LVL493
ARM GAS  C:\Users\raytr\AppData\Local\Temp\ccu8NuaS.s 			page 222


 11188 2902 0100     		.2byte	0x1
 11189 2904 50       		.byte	0x50
 11190 2905 7C090000 		.4byte	.LVL493
 11191 2909 7E090000 		.4byte	.LVL494
 11192 290d 0100     		.2byte	0x1
 11193 290f 54       		.byte	0x54
 11194 2910 00000000 		.4byte	0
 11195 2914 00000000 		.4byte	0
 11196              	.LLST180:
 11197 2918 8E090000 		.4byte	.LVL496
 11198 291c 90090000 		.4byte	.LVL497
 11199 2920 0100     		.2byte	0x1
 11200 2922 50       		.byte	0x50
 11201 2923 00000000 		.4byte	0
 11202 2927 00000000 		.4byte	0
 11203              	.LLST181:
 11204 292b 8E090000 		.4byte	.LVL496
 11205 292f 96090000 		.4byte	.LVL498
 11206 2933 0100     		.2byte	0x1
 11207 2935 55       		.byte	0x55
 11208 2936 00000000 		.4byte	0
 11209 293a 00000000 		.4byte	0
 11210              	.LLST182:
 11211 293e 8E090000 		.4byte	.LVL496
 11212 2942 96090000 		.4byte	.LVL498
 11213 2946 0100     		.2byte	0x1
 11214 2948 54       		.byte	0x54
 11215 2949 00000000 		.4byte	0
 11216 294d 00000000 		.4byte	0
 11217              	.LLST183:
 11218 2951 EA090000 		.4byte	.LVL519
 11219 2955 EC090000 		.4byte	.LVL520
 11220 2959 0100     		.2byte	0x1
 11221 295b 50       		.byte	0x50
 11222 295c 00000000 		.4byte	0
 11223 2960 00000000 		.4byte	0
 11224              	.LLST184:
 11225 2964 EA090000 		.4byte	.LVL519
 11226 2968 F2090000 		.4byte	.LVL521
 11227 296c 0100     		.2byte	0x1
 11228 296e 55       		.byte	0x55
 11229 296f 00000000 		.4byte	0
 11230 2973 00000000 		.4byte	0
 11231              	.LLST185:
 11232 2977 EA090000 		.4byte	.LVL519
 11233 297b F2090000 		.4byte	.LVL521
 11234 297f 0100     		.2byte	0x1
 11235 2981 54       		.byte	0x54
 11236 2982 00000000 		.4byte	0
 11237 2986 00000000 		.4byte	0
 11238              	.LLST186:
 11239 298a 3C0A0000 		.4byte	.LVL549
 11240 298e 3E0A0000 		.4byte	.LVL550
 11241 2992 0100     		.2byte	0x1
 11242 2994 50       		.byte	0x50
 11243 2995 00000000 		.4byte	0
 11244 2999 00000000 		.4byte	0
ARM GAS  C:\Users\raytr\AppData\Local\Temp\ccu8NuaS.s 			page 223


 11245              	.LLST187:
 11246 299d 3C0A0000 		.4byte	.LVL549
 11247 29a1 440A0000 		.4byte	.LVL551
 11248 29a5 0100     		.2byte	0x1
 11249 29a7 55       		.byte	0x55
 11250 29a8 00000000 		.4byte	0
 11251 29ac 00000000 		.4byte	0
 11252              	.LLST188:
 11253 29b0 3C0A0000 		.4byte	.LVL549
 11254 29b4 440A0000 		.4byte	.LVL551
 11255 29b8 0100     		.2byte	0x1
 11256 29ba 54       		.byte	0x54
 11257 29bb 00000000 		.4byte	0
 11258 29bf 00000000 		.4byte	0
 11259              	.LLST189:
 11260 29c3 720A0000 		.4byte	.LVL565
 11261 29c7 740A0000 		.4byte	.LVL566
 11262 29cb 0100     		.2byte	0x1
 11263 29cd 50       		.byte	0x50
 11264 29ce 00000000 		.4byte	0
 11265 29d2 00000000 		.4byte	0
 11266              	.LLST190:
 11267 29d6 720A0000 		.4byte	.LVL565
 11268 29da 7A0A0000 		.4byte	.LVL567
 11269 29de 0100     		.2byte	0x1
 11270 29e0 55       		.byte	0x55
 11271 29e1 00000000 		.4byte	0
 11272 29e5 00000000 		.4byte	0
 11273              	.LLST191:
 11274 29e9 720A0000 		.4byte	.LVL565
 11275 29ed 7A0A0000 		.4byte	.LVL567
 11276 29f1 0100     		.2byte	0x1
 11277 29f3 54       		.byte	0x54
 11278 29f4 00000000 		.4byte	0
 11279 29f8 00000000 		.4byte	0
 11280              	.LLST192:
 11281 29fc B80A0000 		.4byte	.LVL580
 11282 2a00 BA0A0000 		.4byte	.LVL581
 11283 2a04 0100     		.2byte	0x1
 11284 2a06 50       		.byte	0x50
 11285 2a07 00000000 		.4byte	0
 11286 2a0b 00000000 		.4byte	0
 11287              	.LLST193:
 11288 2a0f B80A0000 		.4byte	.LVL580
 11289 2a13 C00A0000 		.4byte	.LVL582
 11290 2a17 0100     		.2byte	0x1
 11291 2a19 55       		.byte	0x55
 11292 2a1a 00000000 		.4byte	0
 11293 2a1e 00000000 		.4byte	0
 11294              	.LLST194:
 11295 2a22 B80A0000 		.4byte	.LVL580
 11296 2a26 C00A0000 		.4byte	.LVL582
 11297 2a2a 0100     		.2byte	0x1
 11298 2a2c 54       		.byte	0x54
 11299 2a2d 00000000 		.4byte	0
 11300 2a31 00000000 		.4byte	0
 11301              	.LLST195:
ARM GAS  C:\Users\raytr\AppData\Local\Temp\ccu8NuaS.s 			page 224


 11302 2a35 F20A0000 		.4byte	.LVL592
 11303 2a39 F40A0000 		.4byte	.LVL593
 11304 2a3d 0100     		.2byte	0x1
 11305 2a3f 50       		.byte	0x50
 11306 2a40 00000000 		.4byte	0
 11307 2a44 00000000 		.4byte	0
 11308              	.LLST196:
 11309 2a48 F20A0000 		.4byte	.LVL592
 11310 2a4c FA0A0000 		.4byte	.LVL594
 11311 2a50 0100     		.2byte	0x1
 11312 2a52 55       		.byte	0x55
 11313 2a53 00000000 		.4byte	0
 11314 2a57 00000000 		.4byte	0
 11315              	.LLST197:
 11316 2a5b F20A0000 		.4byte	.LVL592
 11317 2a5f FA0A0000 		.4byte	.LVL594
 11318 2a63 0100     		.2byte	0x1
 11319 2a65 54       		.byte	0x54
 11320 2a66 00000000 		.4byte	0
 11321 2a6a 00000000 		.4byte	0
 11322              	.LLST198:
 11323 2a6e 440B0000 		.4byte	.LVL607
 11324 2a72 460B0000 		.4byte	.LVL608
 11325 2a76 0100     		.2byte	0x1
 11326 2a78 50       		.byte	0x50
 11327 2a79 00000000 		.4byte	0
 11328 2a7d 00000000 		.4byte	0
 11329              	.LLST199:
 11330 2a81 440B0000 		.4byte	.LVL607
 11331 2a85 4C0B0000 		.4byte	.LVL609
 11332 2a89 0100     		.2byte	0x1
 11333 2a8b 55       		.byte	0x55
 11334 2a8c 00000000 		.4byte	0
 11335 2a90 00000000 		.4byte	0
 11336              	.LLST200:
 11337 2a94 440B0000 		.4byte	.LVL607
 11338 2a98 4C0B0000 		.4byte	.LVL609
 11339 2a9c 0100     		.2byte	0x1
 11340 2a9e 54       		.byte	0x54
 11341 2a9f 00000000 		.4byte	0
 11342 2aa3 00000000 		.4byte	0
 11343              	.LLST201:
 11344 2aa7 00000000 		.4byte	.LVL633
 11345 2aab 04000000 		.4byte	.LVL634
 11346 2aaf 0100     		.2byte	0x1
 11347 2ab1 50       		.byte	0x50
 11348 2ab2 04000000 		.4byte	.LVL634
 11349 2ab6 06000000 		.4byte	.LVL635
 11350 2aba 0400     		.2byte	0x4
 11351 2abc F3       		.byte	0xf3
 11352 2abd 01       		.uleb128 0x1
 11353 2abe 50       		.byte	0x50
 11354 2abf 9F       		.byte	0x9f
 11355 2ac0 06000000 		.4byte	.LVL635
 11356 2ac4 08000000 		.4byte	.LVL636
 11357 2ac8 0100     		.2byte	0x1
 11358 2aca 50       		.byte	0x50
ARM GAS  C:\Users\raytr\AppData\Local\Temp\ccu8NuaS.s 			page 225


 11359 2acb 08000000 		.4byte	.LVL636
 11360 2acf 0A000000 		.4byte	.LFE17
 11361 2ad3 0400     		.2byte	0x4
 11362 2ad5 F3       		.byte	0xf3
 11363 2ad6 01       		.uleb128 0x1
 11364 2ad7 50       		.byte	0x50
 11365 2ad8 9F       		.byte	0x9f
 11366 2ad9 00000000 		.4byte	0
 11367 2add 00000000 		.4byte	0
 11368              	.LLST202:
 11369 2ae1 00000000 		.4byte	.LVL633
 11370 2ae5 08000000 		.4byte	.LVL636
 11371 2ae9 0200     		.2byte	0x2
 11372 2aeb 30       		.byte	0x30
 11373 2aec 9F       		.byte	0x9f
 11374 2aed 08000000 		.4byte	.LVL636
 11375 2af1 0A000000 		.4byte	.LFE17
 11376 2af5 0100     		.2byte	0x1
 11377 2af7 50       		.byte	0x50
 11378 2af8 00000000 		.4byte	0
 11379 2afc 00000000 		.4byte	0
 11380              	.LLST203:
 11381 2b00 00000000 		.4byte	.LVL637
 11382 2b04 09000000 		.4byte	.LVL638-1
 11383 2b08 0100     		.2byte	0x1
 11384 2b0a 50       		.byte	0x50
 11385 2b0b 09000000 		.4byte	.LVL638-1
 11386 2b0f 3A000000 		.4byte	.LFE18
 11387 2b13 0100     		.2byte	0x1
 11388 2b15 55       		.byte	0x55
 11389 2b16 00000000 		.4byte	0
 11390 2b1a 00000000 		.4byte	0
 11391              	.LLST204:
 11392 2b1e 00000000 		.4byte	.LVL637
 11393 2b22 09000000 		.4byte	.LVL638-1
 11394 2b26 0100     		.2byte	0x1
 11395 2b28 51       		.byte	0x51
 11396 2b29 09000000 		.4byte	.LVL638-1
 11397 2b2d 3A000000 		.4byte	.LFE18
 11398 2b31 0400     		.2byte	0x4
 11399 2b33 F3       		.byte	0xf3
 11400 2b34 01       		.uleb128 0x1
 11401 2b35 51       		.byte	0x51
 11402 2b36 9F       		.byte	0x9f
 11403 2b37 00000000 		.4byte	0
 11404 2b3b 00000000 		.4byte	0
 11405              	.LLST205:
 11406 2b3f 2E000000 		.4byte	.LVL642
 11407 2b43 30000000 		.4byte	.LVL643
 11408 2b47 0100     		.2byte	0x1
 11409 2b49 50       		.byte	0x50
 11410 2b4a 38000000 		.4byte	.LVL644
 11411 2b4e 3A000000 		.4byte	.LFE18
 11412 2b52 0100     		.2byte	0x1
 11413 2b54 50       		.byte	0x50
 11414 2b55 00000000 		.4byte	0
 11415 2b59 00000000 		.4byte	0
ARM GAS  C:\Users\raytr\AppData\Local\Temp\ccu8NuaS.s 			page 226


 11416              	.LLST206:
 11417 2b5d 20000000 		.4byte	.LVL640
 11418 2b61 30000000 		.4byte	.LVL643
 11419 2b65 0100     		.2byte	0x1
 11420 2b67 54       		.byte	0x54
 11421 2b68 00000000 		.4byte	0
 11422 2b6c 00000000 		.4byte	0
 11423              	.LLST207:
 11424 2b70 00000000 		.4byte	.LVL645
 11425 2b74 06000000 		.4byte	.LVL646
 11426 2b78 0100     		.2byte	0x1
 11427 2b7a 50       		.byte	0x50
 11428 2b7b 06000000 		.4byte	.LVL646
 11429 2b7f 1C000000 		.4byte	.LFE19
 11430 2b83 0100     		.2byte	0x1
 11431 2b85 54       		.byte	0x54
 11432 2b86 00000000 		.4byte	0
 11433 2b8a 00000000 		.4byte	0
 11434              	.LLST208:
 11435 2b8e 14000000 		.4byte	.LVL648
 11436 2b92 19000000 		.4byte	.LVL649-1
 11437 2b96 0100     		.2byte	0x1
 11438 2b98 51       		.byte	0x51
 11439 2b99 00000000 		.4byte	0
 11440 2b9d 00000000 		.4byte	0
 11441              		.section	.debug_aranges,"",%progbits
 11442 0000 64000000 		.4byte	0x64
 11443 0004 0200     		.2byte	0x2
 11444 0006 00000000 		.4byte	.Ldebug_info0
 11445 000a 04       		.byte	0x4
 11446 000b 00       		.byte	0
 11447 000c 0000     		.2byte	0
 11448 000e 0000     		.2byte	0
 11449 0010 00000000 		.4byte	.LFB2
 11450 0014 20000000 		.4byte	.LFE2-.LFB2
 11451 0018 00000000 		.4byte	.LFB3
 11452 001c 14000000 		.4byte	.LFE3-.LFB3
 11453 0020 00000000 		.4byte	.LFB4
 11454 0024 1E000000 		.4byte	.LFE4-.LFB4
 11455 0028 00000000 		.4byte	.LFB5
 11456 002c 18000000 		.4byte	.LFE5-.LFB5
 11457 0030 00000000 		.4byte	.LFB0
 11458 0034 04000000 		.4byte	.LFE0-.LFB0
 11459 0038 00000000 		.4byte	.LFB1
 11460 003c 1A000000 		.4byte	.LFE1-.LFB1
 11461 0040 00000000 		.4byte	.LFB16
 11462 0044 B20B0000 		.4byte	.LFE16-.LFB16
 11463 0048 00000000 		.4byte	.LFB17
 11464 004c 0A000000 		.4byte	.LFE17-.LFB17
 11465 0050 00000000 		.4byte	.LFB18
 11466 0054 3A000000 		.4byte	.LFE18-.LFB18
 11467 0058 00000000 		.4byte	.LFB19
 11468 005c 1C000000 		.4byte	.LFE19-.LFB19
 11469 0060 00000000 		.4byte	0
 11470 0064 00000000 		.4byte	0
 11471              		.section	.debug_ranges,"",%progbits
 11472              	.Ldebug_ranges0:
ARM GAS  C:\Users\raytr\AppData\Local\Temp\ccu8NuaS.s 			page 227


 11473 0000 00000000 		.4byte	.LFB2
 11474 0004 20000000 		.4byte	.LFE2
 11475 0008 00000000 		.4byte	.LFB3
 11476 000c 14000000 		.4byte	.LFE3
 11477 0010 00000000 		.4byte	.LFB4
 11478 0014 1E000000 		.4byte	.LFE4
 11479 0018 00000000 		.4byte	.LFB5
 11480 001c 18000000 		.4byte	.LFE5
 11481 0020 00000000 		.4byte	.LFB0
 11482 0024 04000000 		.4byte	.LFE0
 11483 0028 00000000 		.4byte	.LFB1
 11484 002c 1A000000 		.4byte	.LFE1
 11485 0030 00000000 		.4byte	.LFB16
 11486 0034 B20B0000 		.4byte	.LFE16
 11487 0038 00000000 		.4byte	.LFB17
 11488 003c 0A000000 		.4byte	.LFE17
 11489 0040 00000000 		.4byte	.LFB18
 11490 0044 3A000000 		.4byte	.LFE18
 11491 0048 00000000 		.4byte	.LFB19
 11492 004c 1C000000 		.4byte	.LFE19
 11493 0050 00000000 		.4byte	0
 11494 0054 00000000 		.4byte	0
 11495              		.section	.debug_line,"",%progbits
 11496              	.Ldebug_line0:
 11497 0000 72060000 		.section	.debug_str,"MS",%progbits,1
 11497      02004001 
 11497      00000201 
 11497      FB0E0D00 
 11497      01010101 
 11498              	.LASF19:
 11499 0000 52656769 		.ascii	"Registers\000"
 11499      73746572 
 11499      7300
 11500              	.LASF26:
 11501 000a 6164645F 		.ascii	"add_8t\000"
 11501      387400
 11502              	.LASF40:
 11503 0011 75707065 		.ascii	"upper\000"
 11503      7200
 11504              	.LASF12:
 11505 0017 696E7438 		.ascii	"int8_t\000"
 11505      5F7400
 11506              	.LASF62:
 11507 001e 77726974 		.ascii	"write_mem\000"
 11507      655F6D65 
 11507      6D00
 11508              	.LASF4:
 11509 0028 73686F72 		.ascii	"short int\000"
 11509      7420696E 
 11509      7400
 11510              	.LASF17:
 11511 0032 73697A65 		.ascii	"sizetype\000"
 11511      74797065 
 11511      00
 11512              	.LASF24:
 11513 003b 6465635F 		.ascii	"dec_8t\000"
 11513      387400
ARM GAS  C:\Users\raytr\AppData\Local\Temp\ccu8NuaS.s 			page 228


 11514              	.LASF42:
 11515 0042 65786563 		.ascii	"execute_normal\000"
 11515      7574655F 
 11515      6E6F726D 
 11515      616C00
 11516              	.LASF15:
 11517 0051 7772616D 		.ascii	"wram\000"
 11517      00
 11518              	.LASF5:
 11519 0056 5F5F7569 		.ascii	"__uint16_t\000"
 11519      6E743136 
 11519      5F7400
 11520              	.LASF22:
 11521 0061 76616C75 		.ascii	"value\000"
 11521      6500
 11522              	.LASF44:
 11523 0067 6D616368 		.ascii	"machine_cycles_taken\000"
 11523      696E655F 
 11523      6379636C 
 11523      65735F74 
 11523      616B656E 
 11524              	.LASF67:
 11525 007c 2E5C6370 		.ascii	".\\cpu.c\000"
 11525      752E6300 
 11526              	.LASF13:
 11527 0084 75696E74 		.ascii	"uint8_t\000"
 11527      385F7400 
 11528              	.LASF37:
 11529 008c 66657463 		.ascii	"fetch_and_increment_pc_twice\000"
 11529      685F616E 
 11529      645F696E 
 11529      6372656D 
 11529      656E745F 
 11530              	.LASF49:
 11531 00a9 6A726E63 		.ascii	"jrnci8_offset\000"
 11531      69385F6F 
 11531      66667365 
 11531      7400
 11532              	.LASF50:
 11533 00b7 6A726369 		.ascii	"jrci8_offset\000"
 11533      385F6F66 
 11533      66736574 
 11533      00
 11534              	.LASF34:
 11535 00c4 6164645F 		.ascii	"add_to_pc\000"
 11535      746F5F70 
 11535      6300
 11536              	.LASF39:
 11537 00ce 6C6F7765 		.ascii	"lower\000"
 11537      7200
 11538              	.LASF9:
 11539 00d4 6C6F6E67 		.ascii	"long long int\000"
 11539      206C6F6E 
 11539      6720696E 
 11539      7400
 11540              	.LASF65:
 11541 00e2 6765745F 		.ascii	"get_carry_flag\000"
ARM GAS  C:\Users\raytr\AppData\Local\Temp\ccu8NuaS.s 			page 229


 11541      63617272 
 11541      795F666C 
 11541      616700
 11542              	.LASF25:
 11543 00f1 6164645F 		.ascii	"add_16t\000"
 11543      31367400 
 11544              	.LASF7:
 11545 00f9 6C6F6E67 		.ascii	"long int\000"
 11545      20696E74 
 11545      00
 11546              	.LASF28:
 11547 0102 7375625F 		.ascii	"sub_8t\000"
 11547      387400
 11548              	.LASF35:
 11549 0109 6F666673 		.ascii	"offset\000"
 11549      657400
 11550              	.LASF41:
 11551 0110 73616665 		.ascii	"safe_convert\000"
 11551      5F636F6E 
 11551      76657274 
 11551      00
 11552              	.LASF1:
 11553 011d 5F5F7569 		.ascii	"__uint8_t\000"
 11553      6E74385F 
 11553      7400
 11554              	.LASF63:
 11555 0127 66657463 		.ascii	"fetch\000"
 11555      6800
 11556              	.LASF52:
 11557 012d 6A706131 		.ascii	"jpa16_addr\000"
 11557      365F6164 
 11557      647200
 11558              	.LASF70:
 11559 0138 63616C6C 		.ascii	"callnza16_addr\000"
 11559      6E7A6131 
 11559      365F6164 
 11559      647200
 11560              	.LASF47:
 11561 0147 6A726E7A 		.ascii	"jrnz_offset\000"
 11561      5F6F6666 
 11561      73657400 
 11562              	.LASF3:
 11563 0153 756E7369 		.ascii	"unsigned char\000"
 11563      676E6564 
 11563      20636861 
 11563      7200
 11564              	.LASF68:
 11565 0161 443A5C36 		.ascii	"D:\\6115\\6115FP_GBEmulator\\GBEmulator.cydsn\000"
 11565      3131355C 
 11565      36313135 
 11565      46505F47 
 11565      42456D75 
 11566              	.LASF48:
 11567 018c 6A727A69 		.ascii	"jrzi8_offset\000"
 11567      385F6F66 
 11567      66736574 
 11567      00
ARM GAS  C:\Users\raytr\AppData\Local\Temp\ccu8NuaS.s 			page 230


 11568              	.LASF2:
 11569 0199 7369676E 		.ascii	"signed char\000"
 11569      65642063 
 11569      68617200 
 11570              	.LASF18:
 11571 01a5 4D656D6F 		.ascii	"Memory\000"
 11571      727900
 11572              	.LASF10:
 11573 01ac 6C6F6E67 		.ascii	"long long unsigned int\000"
 11573      206C6F6E 
 11573      6720756E 
 11573      7369676E 
 11573      65642069 
 11574              	.LASF54:
 11575 01c3 6A706361 		.ascii	"jpca16_addr\000"
 11575      31365F61 
 11575      64647200 
 11576              	.LASF30:
 11577 01cf 616E645F 		.ascii	"and_8t\000"
 11577      387400
 11578              	.LASF11:
 11579 01d6 756E7369 		.ascii	"unsigned int\000"
 11579      676E6564 
 11579      20696E74 
 11579      00
 11580              	.LASF14:
 11581 01e3 75696E74 		.ascii	"uint16_t\000"
 11581      31365F74 
 11581      00
 11582              	.LASF51:
 11583 01ec 6A706E7A 		.ascii	"jpnza16_addr\000"
 11583      6131365F 
 11583      61646472 
 11583      00
 11584              	.LASF27:
 11585 01f9 6164645F 		.ascii	"add_8t_with_carry\000"
 11585      38745F77 
 11585      6974685F 
 11585      63617272 
 11585      7900
 11586              	.LASF6:
 11587 020b 73686F72 		.ascii	"short unsigned int\000"
 11587      7420756E 
 11587      7369676E 
 11587      65642069 
 11587      6E7400
 11588              	.LASF0:
 11589 021e 5F5F696E 		.ascii	"__int8_t\000"
 11589      74385F74 
 11589      00
 11590              	.LASF60:
 11591 0227 72657365 		.ascii	"reset_memory\000"
 11591      745F6D65 
 11591      6D6F7279 
 11591      00
 11592              	.LASF66:
 11593 0234 474E5520 		.ascii	"GNU C 4.9.3 20150303 (release) [ARM/embedded-4_9-br"
ARM GAS  C:\Users\raytr\AppData\Local\Temp\ccu8NuaS.s 			page 231


 11593      4320342E 
 11593      392E3320 
 11593      32303135 
 11593      30333033 
 11594 0267 616E6368 		.ascii	"anch revision 221220] -mcpu=cortex-m3 -mthumb -g -O"
 11594      20726576 
 11594      6973696F 
 11594      6E203232 
 11594      31323230 
 11595 029a 67202D66 		.ascii	"g -ffunction-sections -ffat-lto-objects\000"
 11595      66756E63 
 11595      74696F6E 
 11595      2D736563 
 11595      74696F6E 
 11596              	.LASF58:
 11597 02c2 63625F69 		.ascii	"cb_instr\000"
 11597      6E737472 
 11597      00
 11598              	.LASF55:
 11599 02cb 65786563 		.ascii	"execute_cb_prefix\000"
 11599      7574655F 
 11599      63625F70 
 11599      72656669 
 11599      7800
 11600              	.LASF21:
 11601 02dd 5F426F6F 		.ascii	"_Bool\000"
 11601      6C00
 11602              	.LASF33:
 11603 02e3 696E6372 		.ascii	"increment_pc\000"
 11603      656D656E 
 11603      745F7063 
 11603      00
 11604              	.LASF38:
 11605 02f0 64617461 		.ascii	"data\000"
 11605      00
 11606              	.LASF20:
 11607 02f5 696E4269 		.ascii	"inBios\000"
 11607      6F7300
 11608              	.LASF23:
 11609 02fc 696E635F 		.ascii	"inc_8t\000"
 11609      387400
 11610              	.LASF8:
 11611 0303 6C6F6E67 		.ascii	"long unsigned int\000"
 11611      20756E73 
 11611      69676E65 
 11611      6420696E 
 11611      7400
 11612              	.LASF64:
 11613 0315 6765745F 		.ascii	"get_zero_flag\000"
 11613      7A65726F 
 11613      5F666C61 
 11613      6700
 11614              	.LASF45:
 11615 0323 6C647531 		.ascii	"ldu16sp_addr\000"
 11615      3673705F 
 11615      61646472 
 11615      00
ARM GAS  C:\Users\raytr\AppData\Local\Temp\ccu8NuaS.s 			page 232


 11616              	.LASF46:
 11617 0330 6A726938 		.ascii	"jri8_offset\000"
 11617      5F6F6666 
 11617      73657400 
 11618              	.LASF36:
 11619 033c 66657463 		.ascii	"fetch_and_increment_pc\000"
 11619      685F616E 
 11619      645F696E 
 11619      6372656D 
 11619      656E745F 
 11620              	.LASF69:
 11621 0353 72657365 		.ascii	"reset_cpu\000"
 11621      745F6370 
 11621      7500
 11622              	.LASF61:
 11623 035d 72657365 		.ascii	"reset_registers\000"
 11623      745F7265 
 11623      67697374 
 11623      65727300 
 11624              	.LASF31:
 11625 036d 786F725F 		.ascii	"xor_8t\000"
 11625      387400
 11626              	.LASF16:
 11627 0374 7672616D 		.ascii	"vram\000"
 11627      00
 11628              	.LASF57:
 11629 0379 65786563 		.ascii	"execute\000"
 11629      75746500 
 11630              	.LASF29:
 11631 0381 7375625F 		.ascii	"sub_8t_with_carry\000"
 11631      38745F77 
 11631      6974685F 
 11631      63617272 
 11631      7900
 11632              	.LASF56:
 11633 0393 6379636C 		.ascii	"cycles_taken\000"
 11633      65735F74 
 11633      616B656E 
 11633      00
 11634              	.LASF32:
 11635 03a0 6F725F38 		.ascii	"or_8t\000"
 11635      7400
 11636              	.LASF43:
 11637 03a6 696E7374 		.ascii	"instruction\000"
 11637      72756374 
 11637      696F6E00 
 11638              	.LASF59:
 11639 03b2 7469636B 		.ascii	"tick\000"
 11639      00
 11640              	.LASF53:
 11641 03b7 6A706E63 		.ascii	"jpnc_addr\000"
 11641      5F616464 
 11641      7200
 11642              		.ident	"GCC: (GNU Tools for ARM Embedded Processors) 4.9.3 20150303 (release) [ARM/embedded-4_9-br
