ARM GAS  C:\Users\raytr\AppData\Local\Temp\cc45h1kf.s 			page 1


   1              		.syntax unified
   2              		.cpu cortex-m3
   3              		.fpu softvfp
   4              		.eabi_attribute 20, 1
   5              		.eabi_attribute 21, 1
   6              		.eabi_attribute 23, 3
   7              		.eabi_attribute 24, 1
   8              		.eabi_attribute 25, 1
   9              		.eabi_attribute 26, 1
  10              		.eabi_attribute 30, 1
  11              		.eabi_attribute 34, 1
  12              		.eabi_attribute 18, 4
  13              		.thumb
  14              		.file	"cpu.c"
  15              		.text
  16              	.Ltext0:
  17              		.cfi_sections	.debug_frame
  18              		.section	.text.increment_pc,"ax",%progbits
  19              		.align	2
  20              		.thumb
  21              		.thumb_func
  22              		.type	increment_pc, %function
  23              	increment_pc:
  24              	.LFB2:
  25              		.file 1 ".\\cpu.c"
   1:.\cpu.c       **** #include "memory.h"
   2:.\cpu.c       **** #include "rom.h"
   3:.\cpu.c       **** #include "registers.h"
   4:.\cpu.c       **** #include "cpu.h"
   5:.\cpu.c       **** 
   6:.\cpu.c       **** int8_t safe_convert(uint8_t x) {
   7:.\cpu.c       ****     return x < 128 ? x : x - 256;
   8:.\cpu.c       **** }
   9:.\cpu.c       **** 
  10:.\cpu.c       **** void reset_cpu(Cpu* cpu) {
  11:.\cpu.c       ****     cpu->inBios = true;
  12:.\cpu.c       ****     reset_memory(&cpu->mem);
  13:.\cpu.c       ****     reset_registers(&cpu->reg);
  14:.\cpu.c       **** }
  15:.\cpu.c       **** 
  16:.\cpu.c       **** static void increment_pc(Cpu* cpu){
  26              		.loc 1 16 0
  27              		.cfi_startproc
  28              		@ args = 0, pretend = 0, frame = 0
  29              		@ frame_needed = 0, uses_anonymous_args = 0
  30              		@ link register save eliminated.
  31              	.LVL0:
  17:.\cpu.c       ****     cpu->reg.pc++;
  32              		.loc 1 17 0
  33 0000 0389     		ldrh	r3, [r0, #8]
  34 0002 0133     		adds	r3, r3, #1
  35 0004 9BB2     		uxth	r3, r3
  36 0006 0381     		strh	r3, [r0, #8]	@ movhi
  18:.\cpu.c       ****     if (cpu->reg.pc == BIOS_SIZE && cpu->inBios) {
  37              		.loc 1 18 0
  38 0008 B3F5807F 		cmp	r3, #256
  39 000c 07D1     		bne	.L1
ARM GAS  C:\Users\raytr\AppData\Local\Temp\cc45h1kf.s 			page 2


  40              		.loc 1 18 0 is_stmt 0 discriminator 1
  41 000e 43F20C03 		movw	r3, #12300
  42 0012 C35C     		ldrb	r3, [r0, r3]	@ zero_extendqisi2
  43 0014 1BB1     		cbz	r3, .L1
  19:.\cpu.c       ****         cpu->inBios = false;
  44              		.loc 1 19 0 is_stmt 1
  45 0016 0022     		movs	r2, #0
  46 0018 43F20C03 		movw	r3, #12300
  47 001c C254     		strb	r2, [r0, r3]
  48              	.L1:
  49 001e 7047     		bx	lr
  50              		.cfi_endproc
  51              	.LFE2:
  52              		.size	increment_pc, .-increment_pc
  53              		.section	.text.add_to_pc,"ax",%progbits
  54              		.align	2
  55              		.thumb
  56              		.thumb_func
  57              		.type	add_to_pc, %function
  58              	add_to_pc:
  59              	.LFB3:
  20:.\cpu.c       ****     }
  21:.\cpu.c       **** }
  22:.\cpu.c       **** 
  23:.\cpu.c       **** static void add_to_pc(Cpu* cpu, int8_t offset){
  60              		.loc 1 23 0
  61              		.cfi_startproc
  62              		@ args = 0, pretend = 0, frame = 0
  63              		@ frame_needed = 0, uses_anonymous_args = 0
  64              		@ link register save eliminated.
  65              	.LVL1:
  24:.\cpu.c       ****     if (offset < 0){
  66              		.loc 1 24 0
  67 0000 0029     		cmp	r1, #0
  68              	.LVL2:
  69 0002 03DA     		bge	.L4
  25:.\cpu.c       ****         cpu->reg.pc -= -offset;
  70              		.loc 1 25 0
  71 0004 0389     		ldrh	r3, [r0, #8]
  72 0006 1944     		add	r1, r1, r3
  73 0008 0181     		strh	r1, [r0, #8]	@ movhi
  74 000a 7047     		bx	lr
  75              	.L4:
  26:.\cpu.c       ****     }else{
  27:.\cpu.c       ****         cpu->reg.pc += offset;
  76              		.loc 1 27 0
  77 000c 0389     		ldrh	r3, [r0, #8]
  78 000e 1944     		add	r1, r1, r3
  79 0010 0181     		strh	r1, [r0, #8]	@ movhi
  80 0012 7047     		bx	lr
  81              		.cfi_endproc
  82              	.LFE3:
  83              		.size	add_to_pc, .-add_to_pc
  84              		.section	.text.fetch_and_increment_pc,"ax",%progbits
  85              		.align	2
  86              		.thumb
  87              		.thumb_func
ARM GAS  C:\Users\raytr\AppData\Local\Temp\cc45h1kf.s 			page 3


  88              		.type	fetch_and_increment_pc, %function
  89              	fetch_and_increment_pc:
  90              	.LFB4:
  28:.\cpu.c       ****     }
  29:.\cpu.c       **** }
  30:.\cpu.c       **** 
  31:.\cpu.c       **** static uint8_t fetch_and_increment_pc(Cpu* cpu){
  91              		.loc 1 31 0
  92              		.cfi_startproc
  93              		@ args = 0, pretend = 0, frame = 0
  94              		@ frame_needed = 0, uses_anonymous_args = 0
  95              	.LVL3:
  96 0000 38B5     		push	{r3, r4, r5, lr}
  97              		.cfi_def_cfa_offset 16
  98              		.cfi_offset 3, -16
  99              		.cfi_offset 4, -12
 100              		.cfi_offset 5, -8
 101              		.cfi_offset 14, -4
 102 0002 0446     		mov	r4, r0
  32:.\cpu.c       ****     uint8_t data = fetch(&cpu->mem, cpu->reg.pc, cpu->inBios);
 103              		.loc 1 32 0
 104 0004 0C30     		adds	r0, r0, #12
 105              	.LVL4:
 106 0006 2189     		ldrh	r1, [r4, #8]
 107 0008 43F20C03 		movw	r3, #12300
 108 000c E25C     		ldrb	r2, [r4, r3]	@ zero_extendqisi2
 109 000e FFF7FEFF 		bl	fetch
 110              	.LVL5:
 111 0012 0546     		mov	r5, r0
 112              	.LVL6:
  33:.\cpu.c       ****     increment_pc(cpu);
 113              		.loc 1 33 0
 114 0014 2046     		mov	r0, r4
 115 0016 FFF7FEFF 		bl	increment_pc
 116              	.LVL7:
  34:.\cpu.c       ****     return data;
  35:.\cpu.c       **** }
 117              		.loc 1 35 0
 118 001a 2846     		mov	r0, r5
 119 001c 38BD     		pop	{r3, r4, r5, pc}
 120              		.cfi_endproc
 121              	.LFE4:
 122              		.size	fetch_and_increment_pc, .-fetch_and_increment_pc
 123 001e 00BF     		.section	.text.safe_convert,"ax",%progbits
 124              		.align	2
 125              		.global	safe_convert
 126              		.thumb
 127              		.thumb_func
 128              		.type	safe_convert, %function
 129              	safe_convert:
 130              	.LFB0:
   6:.\cpu.c       ****     return x < 128 ? x : x - 256;
 131              		.loc 1 6 0
 132              		.cfi_startproc
 133              		@ args = 0, pretend = 0, frame = 0
 134              		@ frame_needed = 0, uses_anonymous_args = 0
 135              		@ link register save eliminated.
ARM GAS  C:\Users\raytr\AppData\Local\Temp\cc45h1kf.s 			page 4


 136              	.LVL8:
   8:.\cpu.c       **** 
 137              		.loc 1 8 0
 138 0000 40B2     		sxtb	r0, r0
 139 0002 7047     		bx	lr
 140              		.cfi_endproc
 141              	.LFE0:
 142              		.size	safe_convert, .-safe_convert
 143              		.section	.text.reset_cpu,"ax",%progbits
 144              		.align	2
 145              		.global	reset_cpu
 146              		.thumb
 147              		.thumb_func
 148              		.type	reset_cpu, %function
 149              	reset_cpu:
 150              	.LFB1:
  10:.\cpu.c       ****     cpu->inBios = true;
 151              		.loc 1 10 0
 152              		.cfi_startproc
 153              		@ args = 0, pretend = 0, frame = 0
 154              		@ frame_needed = 0, uses_anonymous_args = 0
 155              	.LVL9:
 156 0000 10B5     		push	{r4, lr}
 157              		.cfi_def_cfa_offset 8
 158              		.cfi_offset 4, -8
 159              		.cfi_offset 14, -4
 160 0002 0446     		mov	r4, r0
  11:.\cpu.c       ****     reset_memory(&cpu->mem);
 161              		.loc 1 11 0
 162 0004 0122     		movs	r2, #1
 163 0006 43F20C03 		movw	r3, #12300
 164 000a C254     		strb	r2, [r0, r3]
  12:.\cpu.c       ****     reset_registers(&cpu->reg);
 165              		.loc 1 12 0
 166 000c 0C30     		adds	r0, r0, #12
 167              	.LVL10:
 168 000e FFF7FEFF 		bl	reset_memory
 169              	.LVL11:
  13:.\cpu.c       **** }
 170              		.loc 1 13 0
 171 0012 2046     		mov	r0, r4
 172 0014 FFF7FEFF 		bl	reset_registers
 173              	.LVL12:
 174 0018 10BD     		pop	{r4, pc}
 175              		.cfi_endproc
 176              	.LFE1:
 177              		.size	reset_cpu, .-reset_cpu
 178 001a 00BF     		.section	.text.execute_normal,"ax",%progbits
 179              		.align	2
 180              		.global	execute_normal
 181              		.thumb
 182              		.thumb_func
 183              		.type	execute_normal, %function
 184              	execute_normal:
 185              	.LFB8:
  36:.\cpu.c       **** 
  37:.\cpu.c       **** // Returns the incremented value, adjusting flags if applicable
ARM GAS  C:\Users\raytr\AppData\Local\Temp\cc45h1kf.s 			page 5


  38:.\cpu.c       **** static inline uint8_t inc_8t(Cpu* cpu, uint8_t value){
  39:.\cpu.c       ****     return value++;
  40:.\cpu.c       **** }
  41:.\cpu.c       **** static inline uint8_t dec_8t(Cpu* cpu, uint8_t value){
  42:.\cpu.c       ****     return value--;
  43:.\cpu.c       **** }
  44:.\cpu.c       **** 
  45:.\cpu.c       **** static inline uint16_t add_16t(Cpu* cpu, uint16_t a, uint16_t b){
  46:.\cpu.c       ****     return a + b;
  47:.\cpu.c       **** }
  48:.\cpu.c       **** 
  49:.\cpu.c       **** // Assumes that the pc is already incremented to point to the next instr
  50:.\cpu.c       **** int execute_normal(Cpu* cpu, uint8_t instruction){
 186              		.loc 1 50 0
 187              		.cfi_startproc
 188              		@ args = 0, pretend = 0, frame = 0
 189              		@ frame_needed = 0, uses_anonymous_args = 0
 190              	.LVL13:
 191 0000 70B5     		push	{r4, r5, r6, lr}
 192              		.cfi_def_cfa_offset 16
 193              		.cfi_offset 4, -16
 194              		.cfi_offset 5, -12
 195              		.cfi_offset 6, -8
 196              		.cfi_offset 14, -4
 197 0002 0446     		mov	r4, r0
 198              	.LVL14:
  51:.\cpu.c       ****     int machine_cycles_taken = 0;
  52:.\cpu.c       ****     switch (instruction){
 199              		.loc 1 52 0
 200 0004 5F29     		cmp	r1, #95
 201 0006 61D8     		bhi	.L12
 202 0008 DFE811F0 		tbh	[pc, r1, lsl #1]
 203              	.L14:
 204 000c 3302     		.2byte	(.L81-.L14)/2
 205 000e 6200     		.2byte	(.L15-.L14)/2
 206 0010 6B00     		.2byte	(.L16-.L14)/2
 207 0012 7200     		.2byte	(.L17-.L14)/2
 208 0014 3302     		.2byte	(.L81-.L14)/2
 209 0016 3302     		.2byte	(.L81-.L14)/2
 210 0018 7700     		.2byte	(.L18-.L14)/2
 211 001a 6000     		.2byte	(.L12-.L14)/2
 212 001c 7C00     		.2byte	(.L19-.L14)/2
 213 001e 9400     		.2byte	(.L20-.L14)/2
 214 0020 9A00     		.2byte	(.L21-.L14)/2
 215 0022 A400     		.2byte	(.L22-.L14)/2
 216 0024 3302     		.2byte	(.L81-.L14)/2
 217 0026 3302     		.2byte	(.L81-.L14)/2
 218 0028 A900     		.2byte	(.L23-.L14)/2
 219 002a 6000     		.2byte	(.L12-.L14)/2
 220 002c 3302     		.2byte	(.L81-.L14)/2
 221 002e AE00     		.2byte	(.L24-.L14)/2
 222 0030 B700     		.2byte	(.L25-.L14)/2
 223 0032 BE00     		.2byte	(.L26-.L14)/2
 224 0034 3302     		.2byte	(.L81-.L14)/2
 225 0036 3302     		.2byte	(.L81-.L14)/2
 226 0038 C300     		.2byte	(.L27-.L14)/2
 227 003a 6000     		.2byte	(.L12-.L14)/2
ARM GAS  C:\Users\raytr\AppData\Local\Temp\cc45h1kf.s 			page 6


 228 003c C800     		.2byte	(.L28-.L14)/2
 229 003e D200     		.2byte	(.L29-.L14)/2
 230 0040 D800     		.2byte	(.L30-.L14)/2
 231 0042 E200     		.2byte	(.L31-.L14)/2
 232 0044 3302     		.2byte	(.L81-.L14)/2
 233 0046 3302     		.2byte	(.L81-.L14)/2
 234 0048 E700     		.2byte	(.L32-.L14)/2
 235 004a 6000     		.2byte	(.L12-.L14)/2
 236 004c EC00     		.2byte	(.L33-.L14)/2
 237 004e FD00     		.2byte	(.L34-.L14)/2
 238 0050 0601     		.2byte	(.L35-.L14)/2
 239 0052 1001     		.2byte	(.L36-.L14)/2
 240 0054 3302     		.2byte	(.L81-.L14)/2
 241 0056 3302     		.2byte	(.L81-.L14)/2
 242 0058 1501     		.2byte	(.L37-.L14)/2
 243 005a 6000     		.2byte	(.L12-.L14)/2
 244 005c 1A01     		.2byte	(.L38-.L14)/2
 245 005e 2B01     		.2byte	(.L39-.L14)/2
 246 0060 3001     		.2byte	(.L40-.L14)/2
 247 0062 3D01     		.2byte	(.L41-.L14)/2
 248 0064 3302     		.2byte	(.L81-.L14)/2
 249 0066 3302     		.2byte	(.L81-.L14)/2
 250 0068 4201     		.2byte	(.L42-.L14)/2
 251 006a 6000     		.2byte	(.L12-.L14)/2
 252 006c 4701     		.2byte	(.L43-.L14)/2
 253 006e 5801     		.2byte	(.L44-.L14)/2
 254 0070 6301     		.2byte	(.L45-.L14)/2
 255 0072 6D01     		.2byte	(.L46-.L14)/2
 256 0074 6000     		.2byte	(.L12-.L14)/2
 257 0076 6000     		.2byte	(.L12-.L14)/2
 258 0078 7201     		.2byte	(.L47-.L14)/2
 259 007a 6000     		.2byte	(.L12-.L14)/2
 260 007c 7D01     		.2byte	(.L48-.L14)/2
 261 007e 8E01     		.2byte	(.L49-.L14)/2
 262 0080 9401     		.2byte	(.L50-.L14)/2
 263 0082 A101     		.2byte	(.L51-.L14)/2
 264 0084 3302     		.2byte	(.L81-.L14)/2
 265 0086 3302     		.2byte	(.L81-.L14)/2
 266 0088 A601     		.2byte	(.L52-.L14)/2
 267 008a 6000     		.2byte	(.L12-.L14)/2
 268 008c 3302     		.2byte	(.L81-.L14)/2
 269 008e AB01     		.2byte	(.L53-.L14)/2
 270 0090 AF01     		.2byte	(.L54-.L14)/2
 271 0092 B301     		.2byte	(.L55-.L14)/2
 272 0094 B701     		.2byte	(.L56-.L14)/2
 273 0096 BB01     		.2byte	(.L57-.L14)/2
 274 0098 BF01     		.2byte	(.L58-.L14)/2
 275 009a C901     		.2byte	(.L59-.L14)/2
 276 009c CD01     		.2byte	(.L60-.L14)/2
 277 009e 3302     		.2byte	(.L81-.L14)/2
 278 00a0 D101     		.2byte	(.L61-.L14)/2
 279 00a2 D501     		.2byte	(.L62-.L14)/2
 280 00a4 D901     		.2byte	(.L63-.L14)/2
 281 00a6 DD01     		.2byte	(.L64-.L14)/2
 282 00a8 E101     		.2byte	(.L65-.L14)/2
 283 00aa EB01     		.2byte	(.L66-.L14)/2
 284 00ac EF01     		.2byte	(.L67-.L14)/2
ARM GAS  C:\Users\raytr\AppData\Local\Temp\cc45h1kf.s 			page 7


 285 00ae F301     		.2byte	(.L68-.L14)/2
 286 00b0 3302     		.2byte	(.L81-.L14)/2
 287 00b2 F701     		.2byte	(.L69-.L14)/2
 288 00b4 FB01     		.2byte	(.L70-.L14)/2
 289 00b6 FF01     		.2byte	(.L71-.L14)/2
 290 00b8 0302     		.2byte	(.L72-.L14)/2
 291 00ba 0D02     		.2byte	(.L73-.L14)/2
 292 00bc 1102     		.2byte	(.L74-.L14)/2
 293 00be 1502     		.2byte	(.L75-.L14)/2
 294 00c0 1902     		.2byte	(.L76-.L14)/2
 295 00c2 3302     		.2byte	(.L81-.L14)/2
 296 00c4 1D02     		.2byte	(.L77-.L14)/2
 297 00c6 2102     		.2byte	(.L78-.L14)/2
 298 00c8 2502     		.2byte	(.L79-.L14)/2
 299 00ca 2F02     		.2byte	(.L80-.L14)/2
 300              		.p2align 1
 301              	.L12:
  51:.\cpu.c       ****     int machine_cycles_taken = 0;
 302              		.loc 1 51 0
 303 00cc 0020     		movs	r0, #0
 304              	.LVL15:
 305 00ce 70BD     		pop	{r4, r5, r6, pc}
 306              	.LVL16:
 307              	.L15:
 308              	.LBB39:
  53:.\cpu.c       ****         case 0x00:  // NOP
  54:.\cpu.c       ****         machine_cycles_taken = 1;
  55:.\cpu.c       ****         break;
  56:.\cpu.c       ****         case 0x01:  // LD BC,u16
  57:.\cpu.c       ****         machine_cycles_taken = 3;
  58:.\cpu.c       ****         cpu->reg.c = fetch_and_increment_pc(cpu);
 309              		.loc 1 58 0
 310 00d0 FFF7FEFF 		bl	fetch_and_increment_pc
 311              	.LVL17:
 312 00d4 A070     		strb	r0, [r4, #2]
  59:.\cpu.c       ****         cpu->reg.b = fetch_and_increment_pc(cpu);
 313              		.loc 1 59 0
 314 00d6 2046     		mov	r0, r4
 315 00d8 FFF7FEFF 		bl	fetch_and_increment_pc
 316              	.LVL18:
 317 00dc E070     		strb	r0, [r4, #3]
  57:.\cpu.c       ****         cpu->reg.c = fetch_and_increment_pc(cpu);
 318              		.loc 1 57 0
 319 00de 0320     		movs	r0, #3
  60:.\cpu.c       ****         break;
 320              		.loc 1 60 0
 321 00e0 70BD     		pop	{r4, r5, r6, pc}
 322              	.LVL19:
 323              	.L16:
  61:.\cpu.c       ****         case 0x02:  // LD (BC),A 
  62:.\cpu.c       ****         machine_cycles_taken = 2;
  63:.\cpu.c       ****         write_mem(&cpu->mem, cpu->reg.bc, cpu->reg.a);
 324              		.loc 1 63 0
 325 00e2 0C30     		adds	r0, r0, #12
 326              	.LVL20:
 327 00e4 6188     		ldrh	r1, [r4, #2]
 328              	.LVL21:
ARM GAS  C:\Users\raytr\AppData\Local\Temp\cc45h1kf.s 			page 8


 329 00e6 6278     		ldrb	r2, [r4, #1]	@ zero_extendqisi2
 330 00e8 FFF7FEFF 		bl	write_mem
 331              	.LVL22:
  62:.\cpu.c       ****         write_mem(&cpu->mem, cpu->reg.bc, cpu->reg.a);
 332              		.loc 1 62 0
 333 00ec 0220     		movs	r0, #2
  64:.\cpu.c       ****         break;
 334              		.loc 1 64 0
 335 00ee 70BD     		pop	{r4, r5, r6, pc}
 336              	.LVL23:
 337              	.L17:
  65:.\cpu.c       ****         case 0x03:  // INC BC
  66:.\cpu.c       ****         machine_cycles_taken = 2;
  67:.\cpu.c       ****         cpu->reg.bc++;  // note this inc does not set flags
 338              		.loc 1 67 0
 339 00f0 4388     		ldrh	r3, [r0, #2]
 340 00f2 0133     		adds	r3, r3, #1
 341 00f4 4380     		strh	r3, [r0, #2]	@ movhi
  66:.\cpu.c       ****         cpu->reg.bc++;  // note this inc does not set flags
 342              		.loc 1 66 0
 343 00f6 0220     		movs	r0, #2
 344              	.LVL24:
  68:.\cpu.c       ****         break;
 345              		.loc 1 68 0
 346 00f8 70BD     		pop	{r4, r5, r6, pc}
 347              	.LVL25:
 348              	.L18:
  69:.\cpu.c       ****         case 0x04:  // INC B
  70:.\cpu.c       ****         machine_cycles_taken = 1;
  71:.\cpu.c       ****         cpu->reg.b = inc_8t(cpu, cpu->reg.b);
  72:.\cpu.c       ****         break;
  73:.\cpu.c       ****         case 0x05:  // DEC B
  74:.\cpu.c       ****         machine_cycles_taken = 1;
  75:.\cpu.c       ****         cpu->reg.b = dec_8t(cpu, cpu->reg.b);
  76:.\cpu.c       ****         break;
  77:.\cpu.c       ****         case 0x06:  // LD B,u8
  78:.\cpu.c       ****         machine_cycles_taken = 2;
  79:.\cpu.c       ****         cpu->reg.b = fetch_and_increment_pc(cpu);
 349              		.loc 1 79 0
 350 00fa FFF7FEFF 		bl	fetch_and_increment_pc
 351              	.LVL26:
 352 00fe E070     		strb	r0, [r4, #3]
  78:.\cpu.c       ****         cpu->reg.b = fetch_and_increment_pc(cpu);
 353              		.loc 1 78 0
 354 0100 0220     		movs	r0, #2
  80:.\cpu.c       ****         break;
 355              		.loc 1 80 0
 356 0102 70BD     		pop	{r4, r5, r6, pc}
 357              	.LVL27:
 358              	.L19:
  81:.\cpu.c       ****         case 0x07:  // RLCA - 0x07
  82:.\cpu.c       ****         //@@@@@@@@@@@@@@@@@@@@@@@@@@@@@@@@@@@@@@@@@@@@@@@@@@@@@@@ TODO
  83:.\cpu.c       ****         break;
  84:.\cpu.c       ****         case 0x08:  // LD (u16),SP
  85:.\cpu.c       ****         machine_cycles_taken = 5;
  86:.\cpu.c       ****         uint8_t ldu16sp_lower = fetch_and_increment_pc(cpu);
 359              		.loc 1 86 0
ARM GAS  C:\Users\raytr\AppData\Local\Temp\cc45h1kf.s 			page 9


 360 0104 FFF7FEFF 		bl	fetch_and_increment_pc
 361              	.LVL28:
 362 0108 0546     		mov	r5, r0
 363              	.LVL29:
  87:.\cpu.c       ****         uint8_t ldu16sp_upper = fetch_and_increment_pc(cpu);
 364              		.loc 1 87 0
 365 010a 2046     		mov	r0, r4
 366 010c FFF7FEFF 		bl	fetch_and_increment_pc
 367              	.LVL30:
  88:.\cpu.c       ****         uint16_t ldu16sp_addr = (ldu16sp_upper << 8) & ldu16sp_lower;
 368              		.loc 1 88 0
 369 0110 05EA0020 		and	r0, r5, r0, lsl #8
 370              	.LVL31:
 371 0114 85B2     		uxth	r5, r0
 372              	.LVL32:
  89:.\cpu.c       ****         write_mem(&cpu->mem, ldu16sp_addr, cpu->reg.sp & 0x00FF);
 373              		.loc 1 89 0
 374 0116 04F10C06 		add	r6, r4, #12
 375 011a 3046     		mov	r0, r6
 376 011c 2946     		mov	r1, r5
 377 011e A27A     		ldrb	r2, [r4, #10]	@ zero_extendqisi2
 378 0120 FFF7FEFF 		bl	write_mem
 379              	.LVL33:
  90:.\cpu.c       ****         write_mem(&cpu->mem, ldu16sp_addr + 1, cpu->reg.sp & 0xFF00);
 380              		.loc 1 90 0
 381 0124 691C     		adds	r1, r5, #1
 382 0126 3046     		mov	r0, r6
 383 0128 89B2     		uxth	r1, r1
 384 012a 0022     		movs	r2, #0
 385 012c FFF7FEFF 		bl	write_mem
 386              	.LVL34:
  85:.\cpu.c       ****         uint8_t ldu16sp_lower = fetch_and_increment_pc(cpu);
 387              		.loc 1 85 0
 388 0130 0520     		movs	r0, #5
  91:.\cpu.c       ****         break;
 389              		.loc 1 91 0
 390 0132 70BD     		pop	{r4, r5, r6, pc}
 391              	.LVL35:
 392              	.L20:
  92:.\cpu.c       ****         case 0x09: // ADD HL,BC
  93:.\cpu.c       ****         machine_cycles_taken = 2;
  94:.\cpu.c       ****         cpu->reg.hl = add_16t(cpu, cpu->reg.hl, cpu->reg.bc);
 393              		.loc 1 94 0
 394 0134 C288     		ldrh	r2, [r0, #6]
 395 0136 4388     		ldrh	r3, [r0, #2]
 396              	.LVL36:
 397              	.LBB40:
 398              	.LBB41:
  46:.\cpu.c       **** }
 399              		.loc 1 46 0
 400 0138 1344     		add	r3, r3, r2
 401              	.LVL37:
 402              	.LBE41:
 403              	.LBE40:
 404              		.loc 1 94 0
 405 013a C380     		strh	r3, [r0, #6]	@ movhi
  93:.\cpu.c       ****         cpu->reg.hl = add_16t(cpu, cpu->reg.hl, cpu->reg.bc);
ARM GAS  C:\Users\raytr\AppData\Local\Temp\cc45h1kf.s 			page 10


 406              		.loc 1 93 0
 407 013c 0220     		movs	r0, #2
 408              	.LVL38:
  95:.\cpu.c       ****         break;
 409              		.loc 1 95 0
 410 013e 70BD     		pop	{r4, r5, r6, pc}
 411              	.LVL39:
 412              	.L21:
  96:.\cpu.c       ****         case 0x0A: // LD A,(BC)
  97:.\cpu.c       ****         machine_cycles_taken = 2;
  98:.\cpu.c       ****         cpu->reg.a = fetch(&cpu->mem, cpu->reg.bc, cpu->inBios);
 413              		.loc 1 98 0
 414 0140 0C30     		adds	r0, r0, #12
 415              	.LVL40:
 416 0142 6188     		ldrh	r1, [r4, #2]
 417              	.LVL41:
 418 0144 43F20C03 		movw	r3, #12300
 419 0148 E25C     		ldrb	r2, [r4, r3]	@ zero_extendqisi2
 420 014a FFF7FEFF 		bl	fetch
 421              	.LVL42:
 422 014e 6070     		strb	r0, [r4, #1]
  97:.\cpu.c       ****         cpu->reg.a = fetch(&cpu->mem, cpu->reg.bc, cpu->inBios);
 423              		.loc 1 97 0
 424 0150 0220     		movs	r0, #2
  99:.\cpu.c       ****         break;     
 425              		.loc 1 99 0
 426 0152 70BD     		pop	{r4, r5, r6, pc}
 427              	.LVL43:
 428              	.L22:
 100:.\cpu.c       ****         case 0x0B: // DEC BC
 101:.\cpu.c       ****         machine_cycles_taken = 2;
 102:.\cpu.c       ****         cpu->reg.bc--;  
 429              		.loc 1 102 0
 430 0154 4388     		ldrh	r3, [r0, #2]
 431 0156 013B     		subs	r3, r3, #1
 432 0158 4380     		strh	r3, [r0, #2]	@ movhi
 101:.\cpu.c       ****         cpu->reg.bc--;  
 433              		.loc 1 101 0
 434 015a 0220     		movs	r0, #2
 435              	.LVL44:
 103:.\cpu.c       ****         break;
 436              		.loc 1 103 0
 437 015c 70BD     		pop	{r4, r5, r6, pc}
 438              	.LVL45:
 439              	.L23:
 104:.\cpu.c       ****         case 0x0C: // INC C
 105:.\cpu.c       ****         machine_cycles_taken = 1;
 106:.\cpu.c       ****         cpu->reg.c = inc_8t(cpu, cpu->reg.c);
 107:.\cpu.c       ****         break;
 108:.\cpu.c       ****         case 0x0D: // DEC C
 109:.\cpu.c       ****         machine_cycles_taken = 1;
 110:.\cpu.c       ****         cpu->reg.c = dec_8t(cpu, cpu->reg.c);
 111:.\cpu.c       ****         break;
 112:.\cpu.c       ****         case 0x0E: // LD C,u8
 113:.\cpu.c       ****         machine_cycles_taken = 2;
 114:.\cpu.c       ****         cpu->reg.c = fetch_and_increment_pc(cpu);
 440              		.loc 1 114 0
ARM GAS  C:\Users\raytr\AppData\Local\Temp\cc45h1kf.s 			page 11


 441 015e FFF7FEFF 		bl	fetch_and_increment_pc
 442              	.LVL46:
 443 0162 A070     		strb	r0, [r4, #2]
 113:.\cpu.c       ****         cpu->reg.c = fetch_and_increment_pc(cpu);
 444              		.loc 1 113 0
 445 0164 0220     		movs	r0, #2
 115:.\cpu.c       ****         break;
 446              		.loc 1 115 0
 447 0166 70BD     		pop	{r4, r5, r6, pc}
 448              	.LVL47:
 449              	.L24:
 116:.\cpu.c       ****         case 0x0F: //RRCA 
 117:.\cpu.c       ****         //@@@@@@@@@@@@@@@@@@@@@@@@@@@@@@@@@@@@@@@@@@@@@@@@@@@@@@@@@@@@@@@@@@@@
 118:.\cpu.c       ****         break;   
 119:.\cpu.c       ****         case 0x10: //STOP
 120:.\cpu.c       ****         machine_cycles_taken = 1;
 121:.\cpu.c       ****         //don't actually stop..
 122:.\cpu.c       ****         break;
 123:.\cpu.c       ****         case 0x11: //LD DE,u16
 124:.\cpu.c       ****         machine_cycles_taken = 3;
 125:.\cpu.c       ****         cpu->reg.e = fetch_and_increment_pc(cpu);
 450              		.loc 1 125 0
 451 0168 FFF7FEFF 		bl	fetch_and_increment_pc
 452              	.LVL48:
 453 016c 2071     		strb	r0, [r4, #4]
 126:.\cpu.c       ****         cpu->reg.d = fetch_and_increment_pc(cpu); 
 454              		.loc 1 126 0
 455 016e 2046     		mov	r0, r4
 456 0170 FFF7FEFF 		bl	fetch_and_increment_pc
 457              	.LVL49:
 458 0174 6071     		strb	r0, [r4, #5]
 124:.\cpu.c       ****         cpu->reg.e = fetch_and_increment_pc(cpu);
 459              		.loc 1 124 0
 460 0176 0320     		movs	r0, #3
 127:.\cpu.c       ****         break;
 461              		.loc 1 127 0
 462 0178 70BD     		pop	{r4, r5, r6, pc}
 463              	.LVL50:
 464              	.L25:
 128:.\cpu.c       ****         case 0x12:  //LD (DE),A
 129:.\cpu.c       ****         machine_cycles_taken = 2;
 130:.\cpu.c       ****         write_mem(&cpu->mem, cpu->reg.de, cpu->reg.a);
 465              		.loc 1 130 0
 466 017a 0C30     		adds	r0, r0, #12
 467              	.LVL51:
 468 017c A188     		ldrh	r1, [r4, #4]
 469              	.LVL52:
 470 017e 6278     		ldrb	r2, [r4, #1]	@ zero_extendqisi2
 471 0180 FFF7FEFF 		bl	write_mem
 472              	.LVL53:
 129:.\cpu.c       ****         write_mem(&cpu->mem, cpu->reg.de, cpu->reg.a);
 473              		.loc 1 129 0
 474 0184 0220     		movs	r0, #2
 131:.\cpu.c       ****         break;
 475              		.loc 1 131 0
 476 0186 70BD     		pop	{r4, r5, r6, pc}
 477              	.LVL54:
ARM GAS  C:\Users\raytr\AppData\Local\Temp\cc45h1kf.s 			page 12


 478              	.L26:
 132:.\cpu.c       ****         case 0x13:  //INC DE
 133:.\cpu.c       ****         machine_cycles_taken = 2;
 134:.\cpu.c       ****         cpu->reg.de++;
 479              		.loc 1 134 0
 480 0188 8388     		ldrh	r3, [r0, #4]
 481 018a 0133     		adds	r3, r3, #1
 482 018c 8380     		strh	r3, [r0, #4]	@ movhi
 133:.\cpu.c       ****         cpu->reg.de++;
 483              		.loc 1 133 0
 484 018e 0220     		movs	r0, #2
 485              	.LVL55:
 135:.\cpu.c       ****         break;
 486              		.loc 1 135 0
 487 0190 70BD     		pop	{r4, r5, r6, pc}
 488              	.LVL56:
 489              	.L27:
 136:.\cpu.c       ****         case 0x14:  //INC D
 137:.\cpu.c       ****         machine_cycles_taken = 1;
 138:.\cpu.c       ****         cpu->reg.d = inc_8t(cpu, cpu->reg.d);
 139:.\cpu.c       ****         break;
 140:.\cpu.c       ****         case 0x15:  //DEC D
 141:.\cpu.c       ****         machine_cycles_taken = 1;
 142:.\cpu.c       ****         cpu->reg.d = dec_8t(cpu, cpu->reg.d);
 143:.\cpu.c       ****         break;
 144:.\cpu.c       ****         case 0x16:  //LD D, u8
 145:.\cpu.c       ****         machine_cycles_taken = 2;
 146:.\cpu.c       ****         cpu->reg.d = fetch_and_increment_pc(cpu);
 490              		.loc 1 146 0
 491 0192 FFF7FEFF 		bl	fetch_and_increment_pc
 492              	.LVL57:
 493 0196 6071     		strb	r0, [r4, #5]
 145:.\cpu.c       ****         cpu->reg.d = fetch_and_increment_pc(cpu);
 494              		.loc 1 145 0
 495 0198 0220     		movs	r0, #2
 147:.\cpu.c       ****         break;
 496              		.loc 1 147 0
 497 019a 70BD     		pop	{r4, r5, r6, pc}
 498              	.LVL58:
 499              	.L28:
 148:.\cpu.c       ****         case 0x17:  //RLA 
 149:.\cpu.c       ****         //@@@@@@@@@@@@@@@@@@@@@@@@@@@@@@@@@@@@@@@@@@@@@@@@@@@@@@@@
 150:.\cpu.c       ****         break;
 151:.\cpu.c       ****         case 0x18:  //JR i8
 152:.\cpu.c       ****         machine_cycles_taken = 3;
 153:.\cpu.c       ****         int8_t jri8_offset = safe_convert(fetch_and_increment_pc(cpu));
 500              		.loc 1 153 0
 501 019c FFF7FEFF 		bl	fetch_and_increment_pc
 502              	.LVL59:
 503 01a0 FFF7FEFF 		bl	safe_convert
 504              	.LVL60:
 505 01a4 0146     		mov	r1, r0
 506              	.LVL61:
 154:.\cpu.c       ****         add_to_pc(cpu, jri8_offset);
 507              		.loc 1 154 0
 508 01a6 2046     		mov	r0, r4
 509 01a8 FFF7FEFF 		bl	add_to_pc
ARM GAS  C:\Users\raytr\AppData\Local\Temp\cc45h1kf.s 			page 13


 510              	.LVL62:
 152:.\cpu.c       ****         int8_t jri8_offset = safe_convert(fetch_and_increment_pc(cpu));
 511              		.loc 1 152 0
 512 01ac 0320     		movs	r0, #3
 155:.\cpu.c       ****         break;
 513              		.loc 1 155 0
 514 01ae 70BD     		pop	{r4, r5, r6, pc}
 515              	.LVL63:
 516              	.L29:
 156:.\cpu.c       ****         case 0x19:  //ADD HL,DE
 157:.\cpu.c       ****         machine_cycles_taken = 2;
 158:.\cpu.c       ****         cpu->reg.hl = add_16t(cpu, cpu->reg.hl, cpu->reg.de);
 517              		.loc 1 158 0
 518 01b0 C288     		ldrh	r2, [r0, #6]
 519 01b2 8388     		ldrh	r3, [r0, #4]
 520              	.LVL64:
 521              	.LBB42:
 522              	.LBB43:
  46:.\cpu.c       **** }
 523              		.loc 1 46 0
 524 01b4 1344     		add	r3, r3, r2
 525              	.LVL65:
 526              	.LBE43:
 527              	.LBE42:
 528              		.loc 1 158 0
 529 01b6 C380     		strh	r3, [r0, #6]	@ movhi
 157:.\cpu.c       ****         cpu->reg.hl = add_16t(cpu, cpu->reg.hl, cpu->reg.de);
 530              		.loc 1 157 0
 531 01b8 0220     		movs	r0, #2
 532              	.LVL66:
 159:.\cpu.c       ****         break;
 533              		.loc 1 159 0
 534 01ba 70BD     		pop	{r4, r5, r6, pc}
 535              	.LVL67:
 536              	.L30:
 160:.\cpu.c       ****         case 0x1A:  //LD A,(DE)
 161:.\cpu.c       ****         machine_cycles_taken = 2;
 162:.\cpu.c       ****         cpu->reg.a = fetch(&cpu->mem, cpu->reg.de, cpu->inBios);
 537              		.loc 1 162 0
 538 01bc 0C30     		adds	r0, r0, #12
 539              	.LVL68:
 540 01be A188     		ldrh	r1, [r4, #4]
 541              	.LVL69:
 542 01c0 43F20C03 		movw	r3, #12300
 543 01c4 E25C     		ldrb	r2, [r4, r3]	@ zero_extendqisi2
 544 01c6 FFF7FEFF 		bl	fetch
 545              	.LVL70:
 546 01ca 6070     		strb	r0, [r4, #1]
 161:.\cpu.c       ****         cpu->reg.a = fetch(&cpu->mem, cpu->reg.de, cpu->inBios);
 547              		.loc 1 161 0
 548 01cc 0220     		movs	r0, #2
 163:.\cpu.c       ****         break;
 549              		.loc 1 163 0
 550 01ce 70BD     		pop	{r4, r5, r6, pc}
 551              	.LVL71:
 552              	.L31:
 164:.\cpu.c       ****         case 0x1B:  //DEC DE
ARM GAS  C:\Users\raytr\AppData\Local\Temp\cc45h1kf.s 			page 14


 165:.\cpu.c       ****         machine_cycles_taken = 2;
 166:.\cpu.c       ****         cpu->reg.de--;
 553              		.loc 1 166 0
 554 01d0 8388     		ldrh	r3, [r0, #4]
 555 01d2 013B     		subs	r3, r3, #1
 556 01d4 8380     		strh	r3, [r0, #4]	@ movhi
 165:.\cpu.c       ****         cpu->reg.de--;
 557              		.loc 1 165 0
 558 01d6 0220     		movs	r0, #2
 559              	.LVL72:
 167:.\cpu.c       ****         break;
 560              		.loc 1 167 0
 561 01d8 70BD     		pop	{r4, r5, r6, pc}
 562              	.LVL73:
 563              	.L32:
 168:.\cpu.c       ****         case 0x1C:  //INC E
 169:.\cpu.c       ****         machine_cycles_taken = 1;
 170:.\cpu.c       ****         cpu->reg.e = inc_8t(cpu, cpu->reg.e);
 171:.\cpu.c       ****         break;
 172:.\cpu.c       ****         case 0x1D:  //DEC E
 173:.\cpu.c       ****         machine_cycles_taken = 1;
 174:.\cpu.c       ****         cpu->reg.e = dec_8t(cpu, cpu->reg.e);
 175:.\cpu.c       ****         break;
 176:.\cpu.c       ****         case 0x1E:  //LD E,u8
 177:.\cpu.c       ****         machine_cycles_taken = 2;
 178:.\cpu.c       ****         cpu->reg.e = fetch_and_increment_pc(cpu);
 564              		.loc 1 178 0
 565 01da FFF7FEFF 		bl	fetch_and_increment_pc
 566              	.LVL74:
 567 01de 2071     		strb	r0, [r4, #4]
 177:.\cpu.c       ****         cpu->reg.e = fetch_and_increment_pc(cpu);
 568              		.loc 1 177 0
 569 01e0 0220     		movs	r0, #2
 179:.\cpu.c       ****         break;
 570              		.loc 1 179 0
 571 01e2 70BD     		pop	{r4, r5, r6, pc}
 572              	.LVL75:
 573              	.L33:
 180:.\cpu.c       ****         case 0x1F:  //RRA
 181:.\cpu.c       ****         //@@@@@@@@@@@@@@@@@@@@@@@@@@@@@@@@@@@@@@@@@@@@@@@@@@@@@@@@@@@@@@@@@@
 182:.\cpu.c       ****         break;
 183:.\cpu.c       ****         case 0x20:  //JR NZ,i8
 184:.\cpu.c       ****         machine_cycles_taken = 2;
 185:.\cpu.c       ****         int8_t jrnz_offset = safe_convert(fetch_and_increment_pc(cpu));
 574              		.loc 1 185 0
 575 01e4 FFF7FEFF 		bl	fetch_and_increment_pc
 576              	.LVL76:
 577 01e8 FFF7FEFF 		bl	safe_convert
 578              	.LVL77:
 579 01ec 0546     		mov	r5, r0
 580              	.LVL78:
 186:.\cpu.c       ****         if (get_zero_flag(&cpu->reg)){
 581              		.loc 1 186 0
 582 01ee 2046     		mov	r0, r4
 583 01f0 FFF7FEFF 		bl	get_zero_flag
 584              	.LVL79:
 585 01f4 0028     		cmp	r0, #0
ARM GAS  C:\Users\raytr\AppData\Local\Temp\cc45h1kf.s 			page 15


 586 01f6 00F03E81 		beq	.L82
 587              	.LVL80:
 187:.\cpu.c       ****             machine_cycles_taken = 3;
 188:.\cpu.c       ****             add_to_pc(cpu, jrnz_offset);
 588              		.loc 1 188 0
 589 01fa 2046     		mov	r0, r4
 590 01fc 2946     		mov	r1, r5
 591 01fe FFF7FEFF 		bl	add_to_pc
 592              	.LVL81:
 187:.\cpu.c       ****             machine_cycles_taken = 3;
 593              		.loc 1 187 0
 594 0202 0320     		movs	r0, #3
 595 0204 70BD     		pop	{r4, r5, r6, pc}
 596              	.LVL82:
 597              	.L34:
 189:.\cpu.c       ****         }
 190:.\cpu.c       ****         break;
 191:.\cpu.c       ****         case 0x21:  //LD HL,u16
 192:.\cpu.c       ****         machine_cycles_taken = 3;
 193:.\cpu.c       ****         cpu->reg.l = fetch_and_increment_pc(cpu);
 598              		.loc 1 193 0
 599 0206 FFF7FEFF 		bl	fetch_and_increment_pc
 600              	.LVL83:
 601 020a A071     		strb	r0, [r4, #6]
 194:.\cpu.c       ****         cpu->reg.h = fetch_and_increment_pc(cpu);
 602              		.loc 1 194 0
 603 020c 2046     		mov	r0, r4
 604 020e FFF7FEFF 		bl	fetch_and_increment_pc
 605              	.LVL84:
 606 0212 E071     		strb	r0, [r4, #7]
 192:.\cpu.c       ****         cpu->reg.l = fetch_and_increment_pc(cpu);
 607              		.loc 1 192 0
 608 0214 0320     		movs	r0, #3
 195:.\cpu.c       ****         break;
 609              		.loc 1 195 0
 610 0216 70BD     		pop	{r4, r5, r6, pc}
 611              	.LVL85:
 612              	.L35:
 196:.\cpu.c       ****         case 0x22:  //LD (HL+),A
 197:.\cpu.c       ****         machine_cycles_taken = 2;
 198:.\cpu.c       ****         write_mem(&cpu->mem, cpu->reg.hl, cpu->reg.a);
 613              		.loc 1 198 0
 614 0218 0C30     		adds	r0, r0, #12
 615              	.LVL86:
 616 021a E188     		ldrh	r1, [r4, #6]
 617              	.LVL87:
 618 021c 6278     		ldrb	r2, [r4, #1]	@ zero_extendqisi2
 619 021e FFF7FEFF 		bl	write_mem
 620              	.LVL88:
 199:.\cpu.c       ****         cpu->reg.hl++;
 621              		.loc 1 199 0
 622 0222 E388     		ldrh	r3, [r4, #6]
 623 0224 0133     		adds	r3, r3, #1
 624 0226 E380     		strh	r3, [r4, #6]	@ movhi
 197:.\cpu.c       ****         write_mem(&cpu->mem, cpu->reg.hl, cpu->reg.a);
 625              		.loc 1 197 0
 626 0228 0220     		movs	r0, #2
ARM GAS  C:\Users\raytr\AppData\Local\Temp\cc45h1kf.s 			page 16


 200:.\cpu.c       ****         break;
 627              		.loc 1 200 0
 628 022a 70BD     		pop	{r4, r5, r6, pc}
 629              	.LVL89:
 630              	.L36:
 201:.\cpu.c       ****         case 0x23:  //INC HL
 202:.\cpu.c       ****         machine_cycles_taken = 2;
 203:.\cpu.c       ****         cpu->reg.hl++;
 631              		.loc 1 203 0
 632 022c C388     		ldrh	r3, [r0, #6]
 633 022e 0133     		adds	r3, r3, #1
 634 0230 C380     		strh	r3, [r0, #6]	@ movhi
 202:.\cpu.c       ****         cpu->reg.hl++;
 635              		.loc 1 202 0
 636 0232 0220     		movs	r0, #2
 637              	.LVL90:
 204:.\cpu.c       ****         break;
 638              		.loc 1 204 0
 639 0234 70BD     		pop	{r4, r5, r6, pc}
 640              	.LVL91:
 641              	.L37:
 205:.\cpu.c       ****         case 0x24:  //INC H
 206:.\cpu.c       ****         machine_cycles_taken = 1;
 207:.\cpu.c       ****         cpu->reg.h = inc_8t(cpu, cpu->reg.h);
 208:.\cpu.c       ****         break;
 209:.\cpu.c       ****         case 0x25:  //DEC H
 210:.\cpu.c       ****         machine_cycles_taken = 1;
 211:.\cpu.c       ****         cpu->reg.h = dec_8t(cpu, cpu->reg.h);
 212:.\cpu.c       ****         break;
 213:.\cpu.c       ****         case 0x26:  //LD H,u8
 214:.\cpu.c       ****         machine_cycles_taken = 2;
 215:.\cpu.c       ****         cpu->reg.h = fetch_and_increment_pc(cpu);
 642              		.loc 1 215 0
 643 0236 FFF7FEFF 		bl	fetch_and_increment_pc
 644              	.LVL92:
 645 023a E071     		strb	r0, [r4, #7]
 214:.\cpu.c       ****         cpu->reg.h = fetch_and_increment_pc(cpu);
 646              		.loc 1 214 0
 647 023c 0220     		movs	r0, #2
 216:.\cpu.c       ****         break;
 648              		.loc 1 216 0
 649 023e 70BD     		pop	{r4, r5, r6, pc}
 650              	.LVL93:
 651              	.L38:
 217:.\cpu.c       ****         case 0x27:  //DAA
 218:.\cpu.c       ****         //@@@@@@@@@@@@@@@@@@@@@@@@@@@@@@@@@@@@@@@@@@@@@@@@@@@@@@@@@@@@
 219:.\cpu.c       ****         break;
 220:.\cpu.c       ****         case 0x28:  //JR Z,i8
 221:.\cpu.c       ****         machine_cycles_taken = 2;
 222:.\cpu.c       ****         int8_t jrzi8_offset = safe_convert(fetch_and_increment_pc(cpu));
 652              		.loc 1 222 0
 653 0240 FFF7FEFF 		bl	fetch_and_increment_pc
 654              	.LVL94:
 655 0244 FFF7FEFF 		bl	safe_convert
 656              	.LVL95:
 657 0248 0546     		mov	r5, r0
 658              	.LVL96:
ARM GAS  C:\Users\raytr\AppData\Local\Temp\cc45h1kf.s 			page 17


 223:.\cpu.c       ****         if (get_zero_flag(&cpu->reg)){
 659              		.loc 1 223 0
 660 024a 2046     		mov	r0, r4
 661 024c FFF7FEFF 		bl	get_zero_flag
 662              	.LVL97:
 663 0250 0028     		cmp	r0, #0
 664 0252 00F01281 		beq	.L83
 665              	.LVL98:
 224:.\cpu.c       ****             machine_cycles_taken = 3;
 225:.\cpu.c       ****             add_to_pc(cpu, jrzi8_offset);
 666              		.loc 1 225 0
 667 0256 2046     		mov	r0, r4
 668 0258 2946     		mov	r1, r5
 669 025a FFF7FEFF 		bl	add_to_pc
 670              	.LVL99:
 224:.\cpu.c       ****             machine_cycles_taken = 3;
 671              		.loc 1 224 0
 672 025e 0320     		movs	r0, #3
 673 0260 70BD     		pop	{r4, r5, r6, pc}
 674              	.LVL100:
 675              	.L39:
 226:.\cpu.c       ****         }
 227:.\cpu.c       ****         break;
 228:.\cpu.c       ****         case 0x29:  //ADD HL,HL 
 229:.\cpu.c       ****         machine_cycles_taken = 2;
 230:.\cpu.c       ****         cpu->reg.hl = add_16t(cpu, cpu->reg.hl, cpu->reg.hl);
 676              		.loc 1 230 0
 677 0262 C388     		ldrh	r3, [r0, #6]
 678              	.LVL101:
 679              	.LBB44:
 680              	.LBB45:
  46:.\cpu.c       **** }
 681              		.loc 1 46 0
 682 0264 5B00     		lsls	r3, r3, #1
 683              	.LVL102:
 684              	.LBE45:
 685              	.LBE44:
 686              		.loc 1 230 0
 687 0266 C380     		strh	r3, [r0, #6]	@ movhi
 688              	.LVL103:
 229:.\cpu.c       ****         cpu->reg.hl = add_16t(cpu, cpu->reg.hl, cpu->reg.hl);
 689              		.loc 1 229 0
 690 0268 0220     		movs	r0, #2
 691              	.LVL104:
 231:.\cpu.c       ****         break;
 692              		.loc 1 231 0
 693 026a 70BD     		pop	{r4, r5, r6, pc}
 694              	.LVL105:
 695              	.L40:
 232:.\cpu.c       ****         case 0x2A:  //LD A,(HL+)
 233:.\cpu.c       ****         machine_cycles_taken = 2;
 234:.\cpu.c       ****         cpu->reg.a = fetch(&cpu->mem, cpu->reg.hl, cpu->inBios);
 696              		.loc 1 234 0
 697 026c 0C30     		adds	r0, r0, #12
 698              	.LVL106:
 699 026e E188     		ldrh	r1, [r4, #6]
 700              	.LVL107:
ARM GAS  C:\Users\raytr\AppData\Local\Temp\cc45h1kf.s 			page 18


 701 0270 43F20C03 		movw	r3, #12300
 702 0274 E25C     		ldrb	r2, [r4, r3]	@ zero_extendqisi2
 703 0276 FFF7FEFF 		bl	fetch
 704              	.LVL108:
 705 027a 6070     		strb	r0, [r4, #1]
 235:.\cpu.c       ****         cpu->reg.hl++;
 706              		.loc 1 235 0
 707 027c E388     		ldrh	r3, [r4, #6]
 708 027e 0133     		adds	r3, r3, #1
 709 0280 E380     		strh	r3, [r4, #6]	@ movhi
 233:.\cpu.c       ****         cpu->reg.a = fetch(&cpu->mem, cpu->reg.hl, cpu->inBios);
 710              		.loc 1 233 0
 711 0282 0220     		movs	r0, #2
 236:.\cpu.c       ****         break;
 712              		.loc 1 236 0
 713 0284 70BD     		pop	{r4, r5, r6, pc}
 714              	.LVL109:
 715              	.L41:
 237:.\cpu.c       ****         case 0x2B:  //DEC HL
 238:.\cpu.c       ****         machine_cycles_taken = 2;
 239:.\cpu.c       ****         cpu->reg.hl--;
 716              		.loc 1 239 0
 717 0286 C388     		ldrh	r3, [r0, #6]
 718 0288 013B     		subs	r3, r3, #1
 719 028a C380     		strh	r3, [r0, #6]	@ movhi
 238:.\cpu.c       ****         cpu->reg.hl--;
 720              		.loc 1 238 0
 721 028c 0220     		movs	r0, #2
 722              	.LVL110:
 240:.\cpu.c       ****         break;
 723              		.loc 1 240 0
 724 028e 70BD     		pop	{r4, r5, r6, pc}
 725              	.LVL111:
 726              	.L42:
 241:.\cpu.c       ****         case 0x2C:  //INC L
 242:.\cpu.c       ****         machine_cycles_taken = 1;
 243:.\cpu.c       ****         cpu->reg.l = inc_8t(cpu, cpu->reg.l);
 244:.\cpu.c       ****         break;
 245:.\cpu.c       ****         case 0x2D:  //DEC L
 246:.\cpu.c       ****         machine_cycles_taken = 1;
 247:.\cpu.c       ****         cpu->reg.l = dec_8t(cpu, cpu->reg.l);
 248:.\cpu.c       ****         break;
 249:.\cpu.c       ****         case 0x2E:  //LD L,u8
 250:.\cpu.c       ****         machine_cycles_taken = 2;
 251:.\cpu.c       ****         cpu->reg.l = fetch_and_increment_pc(cpu);
 727              		.loc 1 251 0
 728 0290 FFF7FEFF 		bl	fetch_and_increment_pc
 729              	.LVL112:
 730 0294 A071     		strb	r0, [r4, #6]
 250:.\cpu.c       ****         cpu->reg.l = fetch_and_increment_pc(cpu);
 731              		.loc 1 250 0
 732 0296 0220     		movs	r0, #2
 252:.\cpu.c       ****         break;
 733              		.loc 1 252 0
 734 0298 70BD     		pop	{r4, r5, r6, pc}
 735              	.LVL113:
 736              	.L43:
ARM GAS  C:\Users\raytr\AppData\Local\Temp\cc45h1kf.s 			page 19


 253:.\cpu.c       ****         case 0x2F:  //CPL 
 254:.\cpu.c       ****         ///@@@@@@@@@@@@@@@@@@@@@@@@@@@@@@@@@@@@@@@@@@@@@@@@@@@@@@@@@@@@@
 255:.\cpu.c       ****         break;
 256:.\cpu.c       ****         case 0x30:  //JR NC,i8
 257:.\cpu.c       ****         machine_cycles_taken = 2;
 258:.\cpu.c       ****         int8_t jrnci8_offset = safe_convert(fetch_and_increment_pc(cpu));
 737              		.loc 1 258 0
 738 029a FFF7FEFF 		bl	fetch_and_increment_pc
 739              	.LVL114:
 740 029e FFF7FEFF 		bl	safe_convert
 741              	.LVL115:
 742 02a2 0546     		mov	r5, r0
 743              	.LVL116:
 259:.\cpu.c       ****         if (get_zero_flag(&cpu->reg)){
 744              		.loc 1 259 0
 745 02a4 2046     		mov	r0, r4
 746 02a6 FFF7FEFF 		bl	get_zero_flag
 747              	.LVL117:
 748 02aa 0028     		cmp	r0, #0
 749 02ac 00F0E780 		beq	.L84
 750              	.LVL118:
 260:.\cpu.c       ****             machine_cycles_taken = 3;
 261:.\cpu.c       ****             add_to_pc(cpu, jrnci8_offset);
 751              		.loc 1 261 0
 752 02b0 2046     		mov	r0, r4
 753 02b2 2946     		mov	r1, r5
 754 02b4 FFF7FEFF 		bl	add_to_pc
 755              	.LVL119:
 260:.\cpu.c       ****             machine_cycles_taken = 3;
 756              		.loc 1 260 0
 757 02b8 0320     		movs	r0, #3
 758 02ba 70BD     		pop	{r4, r5, r6, pc}
 759              	.LVL120:
 760              	.L44:
 262:.\cpu.c       ****         }
 263:.\cpu.c       ****         break;
 264:.\cpu.c       ****         case 0x31:  // LD SP,u16 
 265:.\cpu.c       ****         machine_cycles_taken = 3;
 266:.\cpu.c       ****         uint8_t ldspu16_lower = fetch_and_increment_pc(cpu);
 761              		.loc 1 266 0
 762 02bc FFF7FEFF 		bl	fetch_and_increment_pc
 763              	.LVL121:
 764 02c0 0546     		mov	r5, r0
 765              	.LVL122:
 267:.\cpu.c       ****         uint8_t ldspu16_upper = fetch_and_increment_pc(cpu);
 766              		.loc 1 267 0
 767 02c2 2046     		mov	r0, r4
 768 02c4 FFF7FEFF 		bl	fetch_and_increment_pc
 769              	.LVL123:
 268:.\cpu.c       ****         cpu->reg.sp = (ldspu16_upper << 8) ^ ldspu16_lower;
 770              		.loc 1 268 0
 771 02c8 85EA0020 		eor	r0, r5, r0, lsl #8
 772              	.LVL124:
 773 02cc 6081     		strh	r0, [r4, #10]	@ movhi
 265:.\cpu.c       ****         uint8_t ldspu16_lower = fetch_and_increment_pc(cpu);
 774              		.loc 1 265 0
 775 02ce 0320     		movs	r0, #3
ARM GAS  C:\Users\raytr\AppData\Local\Temp\cc45h1kf.s 			page 20


 269:.\cpu.c       ****         break;
 776              		.loc 1 269 0
 777 02d0 70BD     		pop	{r4, r5, r6, pc}
 778              	.LVL125:
 779              	.L45:
 270:.\cpu.c       ****         case 0x32:  //LD (HL-),A
 271:.\cpu.c       ****         machine_cycles_taken = 2;
 272:.\cpu.c       ****         write_mem(&cpu->mem, cpu->reg.hl, cpu->reg.a);
 780              		.loc 1 272 0
 781 02d2 0C30     		adds	r0, r0, #12
 782              	.LVL126:
 783 02d4 E188     		ldrh	r1, [r4, #6]
 784              	.LVL127:
 785 02d6 6278     		ldrb	r2, [r4, #1]	@ zero_extendqisi2
 786 02d8 FFF7FEFF 		bl	write_mem
 787              	.LVL128:
 273:.\cpu.c       ****         cpu->reg.hl--;
 788              		.loc 1 273 0
 789 02dc E388     		ldrh	r3, [r4, #6]
 790 02de 013B     		subs	r3, r3, #1
 791 02e0 E380     		strh	r3, [r4, #6]	@ movhi
 271:.\cpu.c       ****         write_mem(&cpu->mem, cpu->reg.hl, cpu->reg.a);
 792              		.loc 1 271 0
 793 02e2 0220     		movs	r0, #2
 274:.\cpu.c       ****         break;
 794              		.loc 1 274 0
 795 02e4 70BD     		pop	{r4, r5, r6, pc}
 796              	.LVL129:
 797              	.L46:
 275:.\cpu.c       ****         case 0x33:  //INC SP
 276:.\cpu.c       ****         machine_cycles_taken = 2;
 277:.\cpu.c       ****         cpu->reg.sp++;
 798              		.loc 1 277 0
 799 02e6 4389     		ldrh	r3, [r0, #10]
 800 02e8 0133     		adds	r3, r3, #1
 801 02ea 4381     		strh	r3, [r0, #10]	@ movhi
 276:.\cpu.c       ****         cpu->reg.sp++;
 802              		.loc 1 276 0
 803 02ec 0220     		movs	r0, #2
 804              	.LVL130:
 278:.\cpu.c       ****         break;
 805              		.loc 1 278 0
 806 02ee 70BD     		pop	{r4, r5, r6, pc}
 807              	.LVL131:
 808              	.L47:
 279:.\cpu.c       ****         case 0x34:  //INC (HL)
 280:.\cpu.c       ****         //@@@@@@@@@@@@@@@@@@@@@@@@@@@@@@@@@@@@@@@@@@@@@@@@@@@@@@@@@@
 281:.\cpu.c       ****         break;
 282:.\cpu.c       ****         case 0x35:  //DEC (HL)
 283:.\cpu.c       ****         //@@@@@@@@@@@@@@@@@@@@@@@@@@@@@@@@@@@@@@@@@@@@@@@@@@@@@@@@
 284:.\cpu.c       ****         break;
 285:.\cpu.c       ****         case 0x36:  //LD (HL),u8
 286:.\cpu.c       ****         machine_cycles_taken = 3;
 287:.\cpu.c       ****         write_mem(&cpu->mem, cpu->reg.hl, fetch_and_increment_pc(cpu));
 809              		.loc 1 287 0
 810 02f0 C588     		ldrh	r5, [r0, #6]
 811 02f2 FFF7FEFF 		bl	fetch_and_increment_pc
ARM GAS  C:\Users\raytr\AppData\Local\Temp\cc45h1kf.s 			page 21


 812              	.LVL132:
 813 02f6 0246     		mov	r2, r0
 814 02f8 04F10C00 		add	r0, r4, #12
 815 02fc 2946     		mov	r1, r5
 816 02fe FFF7FEFF 		bl	write_mem
 817              	.LVL133:
 286:.\cpu.c       ****         write_mem(&cpu->mem, cpu->reg.hl, fetch_and_increment_pc(cpu));
 818              		.loc 1 286 0
 819 0302 0320     		movs	r0, #3
 288:.\cpu.c       ****         break;
 820              		.loc 1 288 0
 821 0304 70BD     		pop	{r4, r5, r6, pc}
 822              	.LVL134:
 823              	.L48:
 289:.\cpu.c       ****         case 0x37:  //SCF 
 290:.\cpu.c       ****         //@@@@@@@@@@@@@@@@@@@@@@@@@@@@@@@@@@@@@@@@@@@@@@@@@@@@@@@@@@@@
 291:.\cpu.c       ****         break;
 292:.\cpu.c       ****         case 0x38:  //JR C,i8
 293:.\cpu.c       ****         machine_cycles_taken = 2;
 294:.\cpu.c       ****         int8_t jrci8_offset = safe_convert(fetch_and_increment_pc(cpu));
 824              		.loc 1 294 0
 825 0306 FFF7FEFF 		bl	fetch_and_increment_pc
 826              	.LVL135:
 827 030a FFF7FEFF 		bl	safe_convert
 828              	.LVL136:
 829 030e 0546     		mov	r5, r0
 830              	.LVL137:
 295:.\cpu.c       ****         if (get_carry_flag(&cpu->reg)){
 831              		.loc 1 295 0
 832 0310 2046     		mov	r0, r4
 833 0312 FFF7FEFF 		bl	get_carry_flag
 834              	.LVL138:
 835 0316 0028     		cmp	r0, #0
 836 0318 00F0B380 		beq	.L85
 837              	.LVL139:
 296:.\cpu.c       ****             machine_cycles_taken = 3;
 297:.\cpu.c       ****             add_to_pc(cpu, jrci8_offset);
 838              		.loc 1 297 0
 839 031c 2046     		mov	r0, r4
 840 031e 2946     		mov	r1, r5
 841 0320 FFF7FEFF 		bl	add_to_pc
 842              	.LVL140:
 296:.\cpu.c       ****             machine_cycles_taken = 3;
 843              		.loc 1 296 0
 844 0324 0320     		movs	r0, #3
 845 0326 70BD     		pop	{r4, r5, r6, pc}
 846              	.LVL141:
 847              	.L49:
 298:.\cpu.c       ****         }
 299:.\cpu.c       ****         break;
 300:.\cpu.c       ****         case 0x39:  //ADD HL,SP
 301:.\cpu.c       ****         machine_cycles_taken = 2;
 302:.\cpu.c       ****         cpu->reg.hl = add_16t(cpu, cpu->reg.hl, cpu->reg.sp);
 848              		.loc 1 302 0
 849 0328 C288     		ldrh	r2, [r0, #6]
 850 032a 4389     		ldrh	r3, [r0, #10]
 851              	.LVL142:
ARM GAS  C:\Users\raytr\AppData\Local\Temp\cc45h1kf.s 			page 22


 852              	.LBB46:
 853              	.LBB47:
  46:.\cpu.c       **** }
 854              		.loc 1 46 0
 855 032c 1344     		add	r3, r3, r2
 856              	.LVL143:
 857              	.LBE47:
 858              	.LBE46:
 859              		.loc 1 302 0
 860 032e C380     		strh	r3, [r0, #6]	@ movhi
 301:.\cpu.c       ****         cpu->reg.hl = add_16t(cpu, cpu->reg.hl, cpu->reg.sp);
 861              		.loc 1 301 0
 862 0330 0220     		movs	r0, #2
 863              	.LVL144:
 303:.\cpu.c       ****         break;
 864              		.loc 1 303 0
 865 0332 70BD     		pop	{r4, r5, r6, pc}
 866              	.LVL145:
 867              	.L50:
 304:.\cpu.c       ****         case 0x3A:  //LD A,(HL-)
 305:.\cpu.c       ****         machine_cycles_taken = 2;
 306:.\cpu.c       ****         cpu->reg.a = fetch(&cpu->mem, cpu->reg.hl, cpu->inBios);
 868              		.loc 1 306 0
 869 0334 0C30     		adds	r0, r0, #12
 870              	.LVL146:
 871 0336 E188     		ldrh	r1, [r4, #6]
 872              	.LVL147:
 873 0338 43F20C03 		movw	r3, #12300
 874 033c E25C     		ldrb	r2, [r4, r3]	@ zero_extendqisi2
 875 033e FFF7FEFF 		bl	fetch
 876              	.LVL148:
 877 0342 6070     		strb	r0, [r4, #1]
 307:.\cpu.c       ****         cpu->reg.hl--;
 878              		.loc 1 307 0
 879 0344 E388     		ldrh	r3, [r4, #6]
 880 0346 013B     		subs	r3, r3, #1
 881 0348 E380     		strh	r3, [r4, #6]	@ movhi
 305:.\cpu.c       ****         cpu->reg.a = fetch(&cpu->mem, cpu->reg.hl, cpu->inBios);
 882              		.loc 1 305 0
 883 034a 0220     		movs	r0, #2
 308:.\cpu.c       ****         break;
 884              		.loc 1 308 0
 885 034c 70BD     		pop	{r4, r5, r6, pc}
 886              	.LVL149:
 887              	.L51:
 309:.\cpu.c       ****         case 0x3B:  //DEC SP
 310:.\cpu.c       ****         machine_cycles_taken = 2;
 311:.\cpu.c       ****         cpu->reg.sp--;
 888              		.loc 1 311 0
 889 034e 4389     		ldrh	r3, [r0, #10]
 890 0350 013B     		subs	r3, r3, #1
 891 0352 4381     		strh	r3, [r0, #10]	@ movhi
 310:.\cpu.c       ****         cpu->reg.sp--;
 892              		.loc 1 310 0
 893 0354 0220     		movs	r0, #2
 894              	.LVL150:
 312:.\cpu.c       ****         break;
ARM GAS  C:\Users\raytr\AppData\Local\Temp\cc45h1kf.s 			page 23


 895              		.loc 1 312 0
 896 0356 70BD     		pop	{r4, r5, r6, pc}
 897              	.LVL151:
 898              	.L52:
 313:.\cpu.c       ****         case 0x3C:  //INC A
 314:.\cpu.c       ****         machine_cycles_taken = 1;
 315:.\cpu.c       ****         cpu->reg.a = inc_8t(cpu, cpu->reg.a);
 316:.\cpu.c       ****         break;
 317:.\cpu.c       ****         case 0x3D:  //DEC A
 318:.\cpu.c       ****         machine_cycles_taken = 1;
 319:.\cpu.c       ****         cpu->reg.a = dec_8t(cpu, cpu->reg.a);
 320:.\cpu.c       ****         break;
 321:.\cpu.c       ****         case 0x3E:  //LD A,u8
 322:.\cpu.c       ****         machine_cycles_taken = 2;
 323:.\cpu.c       ****         cpu->reg.a = fetch_and_increment_pc(cpu);
 899              		.loc 1 323 0
 900 0358 FFF7FEFF 		bl	fetch_and_increment_pc
 901              	.LVL152:
 902 035c 6070     		strb	r0, [r4, #1]
 322:.\cpu.c       ****         cpu->reg.a = fetch_and_increment_pc(cpu);
 903              		.loc 1 322 0
 904 035e 0220     		movs	r0, #2
 324:.\cpu.c       ****         break;
 905              		.loc 1 324 0
 906 0360 70BD     		pop	{r4, r5, r6, pc}
 907              	.LVL153:
 908              	.L53:
 325:.\cpu.c       ****         case 0x3F:  //CCF
 326:.\cpu.c       ****         ///@@@@@@@@@@@@@@@@@@@@@@@@@@@@@@@@@@@@@@@@@@@@@@@@@@@@@
 327:.\cpu.c       ****         break;
 328:.\cpu.c       ****         case 0x40:  //LD B,B
 329:.\cpu.c       ****         machine_cycles_taken = 1;
 330:.\cpu.c       ****         break;
 331:.\cpu.c       ****         case 0x41:  //LD B,C
 332:.\cpu.c       ****         machine_cycles_taken = 1;
 333:.\cpu.c       ****         cpu->reg.b = cpu->reg.c;
 909              		.loc 1 333 0
 910 0362 8378     		ldrb	r3, [r0, #2]	@ zero_extendqisi2
 911 0364 C370     		strb	r3, [r0, #3]
 332:.\cpu.c       ****         cpu->reg.b = cpu->reg.c;
 912              		.loc 1 332 0
 913 0366 0120     		movs	r0, #1
 914              	.LVL154:
 334:.\cpu.c       ****         break;
 915              		.loc 1 334 0
 916 0368 70BD     		pop	{r4, r5, r6, pc}
 917              	.LVL155:
 918              	.L54:
 335:.\cpu.c       ****         case 0x42:  //LD B,D 
 336:.\cpu.c       ****         machine_cycles_taken = 1;
 337:.\cpu.c       ****         cpu->reg.b = cpu->reg.d;
 919              		.loc 1 337 0
 920 036a 4379     		ldrb	r3, [r0, #5]	@ zero_extendqisi2
 921 036c C370     		strb	r3, [r0, #3]
 336:.\cpu.c       ****         cpu->reg.b = cpu->reg.d;
 922              		.loc 1 336 0
 923 036e 0120     		movs	r0, #1
ARM GAS  C:\Users\raytr\AppData\Local\Temp\cc45h1kf.s 			page 24


 924              	.LVL156:
 338:.\cpu.c       ****         break;
 925              		.loc 1 338 0
 926 0370 70BD     		pop	{r4, r5, r6, pc}
 927              	.LVL157:
 928              	.L55:
 339:.\cpu.c       ****         case 0x43:  //LD B,E
 340:.\cpu.c       ****         machine_cycles_taken = 1;
 341:.\cpu.c       ****         cpu->reg.b = cpu->reg.e;
 929              		.loc 1 341 0
 930 0372 0379     		ldrb	r3, [r0, #4]	@ zero_extendqisi2
 931 0374 C370     		strb	r3, [r0, #3]
 340:.\cpu.c       ****         cpu->reg.b = cpu->reg.e;
 932              		.loc 1 340 0
 933 0376 0120     		movs	r0, #1
 934              	.LVL158:
 342:.\cpu.c       ****         break;
 935              		.loc 1 342 0
 936 0378 70BD     		pop	{r4, r5, r6, pc}
 937              	.LVL159:
 938              	.L56:
 343:.\cpu.c       ****         case 0x44:  //LD B,H
 344:.\cpu.c       ****         machine_cycles_taken = 1;
 345:.\cpu.c       ****         cpu->reg.b = cpu->reg.h;
 939              		.loc 1 345 0
 940 037a C379     		ldrb	r3, [r0, #7]	@ zero_extendqisi2
 941 037c C370     		strb	r3, [r0, #3]
 344:.\cpu.c       ****         cpu->reg.b = cpu->reg.h;
 942              		.loc 1 344 0
 943 037e 0120     		movs	r0, #1
 944              	.LVL160:
 346:.\cpu.c       ****         break;
 945              		.loc 1 346 0
 946 0380 70BD     		pop	{r4, r5, r6, pc}
 947              	.LVL161:
 948              	.L57:
 347:.\cpu.c       ****         case 0x45:  //LD B,L
 348:.\cpu.c       ****         machine_cycles_taken = 1;
 349:.\cpu.c       ****         cpu->reg.b = cpu->reg.l;
 949              		.loc 1 349 0
 950 0382 8379     		ldrb	r3, [r0, #6]	@ zero_extendqisi2
 951 0384 C370     		strb	r3, [r0, #3]
 348:.\cpu.c       ****         cpu->reg.b = cpu->reg.l;
 952              		.loc 1 348 0
 953 0386 0120     		movs	r0, #1
 954              	.LVL162:
 350:.\cpu.c       ****         break;
 955              		.loc 1 350 0
 956 0388 70BD     		pop	{r4, r5, r6, pc}
 957              	.LVL163:
 958              	.L58:
 351:.\cpu.c       ****         case 0x46:  //LD B,(HL)
 352:.\cpu.c       ****         machine_cycles_taken = 2;
 353:.\cpu.c       ****         cpu->reg.b = fetch(&cpu->mem, cpu->reg.hl, cpu->inBios);
 959              		.loc 1 353 0
 960 038a 0C30     		adds	r0, r0, #12
 961              	.LVL164:
ARM GAS  C:\Users\raytr\AppData\Local\Temp\cc45h1kf.s 			page 25


 962 038c E188     		ldrh	r1, [r4, #6]
 963              	.LVL165:
 964 038e 43F20C03 		movw	r3, #12300
 965 0392 E25C     		ldrb	r2, [r4, r3]	@ zero_extendqisi2
 966 0394 FFF7FEFF 		bl	fetch
 967              	.LVL166:
 968 0398 E070     		strb	r0, [r4, #3]
 352:.\cpu.c       ****         cpu->reg.b = fetch(&cpu->mem, cpu->reg.hl, cpu->inBios);
 969              		.loc 1 352 0
 970 039a 0220     		movs	r0, #2
 354:.\cpu.c       ****         break;
 971              		.loc 1 354 0
 972 039c 70BD     		pop	{r4, r5, r6, pc}
 973              	.LVL167:
 974              	.L59:
 355:.\cpu.c       ****         case 0x47:  //LD B,A
 356:.\cpu.c       ****         machine_cycles_taken = 1;
 357:.\cpu.c       ****         cpu->reg.b = cpu->reg.a;
 975              		.loc 1 357 0
 976 039e 4378     		ldrb	r3, [r0, #1]	@ zero_extendqisi2
 977 03a0 C370     		strb	r3, [r0, #3]
 356:.\cpu.c       ****         cpu->reg.b = cpu->reg.a;
 978              		.loc 1 356 0
 979 03a2 0120     		movs	r0, #1
 980              	.LVL168:
 358:.\cpu.c       ****         break;
 981              		.loc 1 358 0
 982 03a4 70BD     		pop	{r4, r5, r6, pc}
 983              	.LVL169:
 984              	.L60:
 359:.\cpu.c       ****         case 0x48:  //LD C,B
 360:.\cpu.c       ****         machine_cycles_taken = 1;
 361:.\cpu.c       ****         cpu->reg.c = cpu->reg.b;
 985              		.loc 1 361 0
 986 03a6 C378     		ldrb	r3, [r0, #3]	@ zero_extendqisi2
 987 03a8 8370     		strb	r3, [r0, #2]
 360:.\cpu.c       ****         cpu->reg.c = cpu->reg.b;
 988              		.loc 1 360 0
 989 03aa 0120     		movs	r0, #1
 990              	.LVL170:
 362:.\cpu.c       ****         break;
 991              		.loc 1 362 0
 992 03ac 70BD     		pop	{r4, r5, r6, pc}
 993              	.LVL171:
 994              	.L61:
 363:.\cpu.c       ****         case 0x49:  //LD C,C 
 364:.\cpu.c       ****         machine_cycles_taken = 1;
 365:.\cpu.c       ****         break;
 366:.\cpu.c       ****         case 0x4A:  //LD C,D
 367:.\cpu.c       ****         machine_cycles_taken = 1;
 368:.\cpu.c       ****         cpu->reg.c = cpu->reg.d;
 995              		.loc 1 368 0
 996 03ae 4379     		ldrb	r3, [r0, #5]	@ zero_extendqisi2
 997 03b0 8370     		strb	r3, [r0, #2]
 367:.\cpu.c       ****         cpu->reg.c = cpu->reg.d;
 998              		.loc 1 367 0
 999 03b2 0120     		movs	r0, #1
ARM GAS  C:\Users\raytr\AppData\Local\Temp\cc45h1kf.s 			page 26


 1000              	.LVL172:
 369:.\cpu.c       ****         break;
 1001              		.loc 1 369 0
 1002 03b4 70BD     		pop	{r4, r5, r6, pc}
 1003              	.LVL173:
 1004              	.L62:
 370:.\cpu.c       ****         case 0x4B:  //LD C,E
 371:.\cpu.c       ****         machine_cycles_taken = 1;
 372:.\cpu.c       ****         cpu->reg.c = cpu->reg.e;
 1005              		.loc 1 372 0
 1006 03b6 0379     		ldrb	r3, [r0, #4]	@ zero_extendqisi2
 1007 03b8 8370     		strb	r3, [r0, #2]
 371:.\cpu.c       ****         cpu->reg.c = cpu->reg.e;
 1008              		.loc 1 371 0
 1009 03ba 0120     		movs	r0, #1
 1010              	.LVL174:
 373:.\cpu.c       ****         break;
 1011              		.loc 1 373 0
 1012 03bc 70BD     		pop	{r4, r5, r6, pc}
 1013              	.LVL175:
 1014              	.L63:
 374:.\cpu.c       ****         case 0x4C:  //LD C,H 
 375:.\cpu.c       ****         machine_cycles_taken = 1;
 376:.\cpu.c       ****         cpu->reg.c = cpu->reg.h;
 1015              		.loc 1 376 0
 1016 03be C379     		ldrb	r3, [r0, #7]	@ zero_extendqisi2
 1017 03c0 8370     		strb	r3, [r0, #2]
 375:.\cpu.c       ****         cpu->reg.c = cpu->reg.h;
 1018              		.loc 1 375 0
 1019 03c2 0120     		movs	r0, #1
 1020              	.LVL176:
 377:.\cpu.c       ****         break;
 1021              		.loc 1 377 0
 1022 03c4 70BD     		pop	{r4, r5, r6, pc}
 1023              	.LVL177:
 1024              	.L64:
 378:.\cpu.c       ****         case 0x4D:  //LD C,L
 379:.\cpu.c       ****         machine_cycles_taken = 1;
 380:.\cpu.c       ****         cpu->reg.c = cpu->reg.l;
 1025              		.loc 1 380 0
 1026 03c6 8379     		ldrb	r3, [r0, #6]	@ zero_extendqisi2
 1027 03c8 8370     		strb	r3, [r0, #2]
 379:.\cpu.c       ****         cpu->reg.c = cpu->reg.l;
 1028              		.loc 1 379 0
 1029 03ca 0120     		movs	r0, #1
 1030              	.LVL178:
 381:.\cpu.c       ****         break;
 1031              		.loc 1 381 0
 1032 03cc 70BD     		pop	{r4, r5, r6, pc}
 1033              	.LVL179:
 1034              	.L65:
 382:.\cpu.c       ****         case 0x4E:  //LD C,(HL)
 383:.\cpu.c       ****         machine_cycles_taken = 2;
 384:.\cpu.c       ****         cpu->reg.c = fetch(&cpu->mem, cpu->reg.hl, cpu->inBios);
 1035              		.loc 1 384 0
 1036 03ce 0C30     		adds	r0, r0, #12
 1037              	.LVL180:
ARM GAS  C:\Users\raytr\AppData\Local\Temp\cc45h1kf.s 			page 27


 1038 03d0 E188     		ldrh	r1, [r4, #6]
 1039              	.LVL181:
 1040 03d2 43F20C03 		movw	r3, #12300
 1041 03d6 E25C     		ldrb	r2, [r4, r3]	@ zero_extendqisi2
 1042 03d8 FFF7FEFF 		bl	fetch
 1043              	.LVL182:
 1044 03dc A070     		strb	r0, [r4, #2]
 383:.\cpu.c       ****         cpu->reg.c = fetch(&cpu->mem, cpu->reg.hl, cpu->inBios);
 1045              		.loc 1 383 0
 1046 03de 0220     		movs	r0, #2
 385:.\cpu.c       ****         break;
 1047              		.loc 1 385 0
 1048 03e0 70BD     		pop	{r4, r5, r6, pc}
 1049              	.LVL183:
 1050              	.L66:
 386:.\cpu.c       ****         case 0x4F:  //LD C,A
 387:.\cpu.c       ****         machine_cycles_taken = 1;
 388:.\cpu.c       ****         cpu->reg.c = cpu->reg.a;
 1051              		.loc 1 388 0
 1052 03e2 4378     		ldrb	r3, [r0, #1]	@ zero_extendqisi2
 1053 03e4 8370     		strb	r3, [r0, #2]
 387:.\cpu.c       ****         cpu->reg.c = cpu->reg.a;
 1054              		.loc 1 387 0
 1055 03e6 0120     		movs	r0, #1
 1056              	.LVL184:
 389:.\cpu.c       ****         break;
 1057              		.loc 1 389 0
 1058 03e8 70BD     		pop	{r4, r5, r6, pc}
 1059              	.LVL185:
 1060              	.L67:
 390:.\cpu.c       ****         case 0x50:  //LD D,B
 391:.\cpu.c       ****         machine_cycles_taken = 1;
 392:.\cpu.c       ****         cpu->reg.d = cpu->reg.b;
 1061              		.loc 1 392 0
 1062 03ea C378     		ldrb	r3, [r0, #3]	@ zero_extendqisi2
 1063 03ec 4371     		strb	r3, [r0, #5]
 391:.\cpu.c       ****         cpu->reg.d = cpu->reg.b;
 1064              		.loc 1 391 0
 1065 03ee 0120     		movs	r0, #1
 1066              	.LVL186:
 393:.\cpu.c       ****         break;
 1067              		.loc 1 393 0
 1068 03f0 70BD     		pop	{r4, r5, r6, pc}
 1069              	.LVL187:
 1070              	.L68:
 394:.\cpu.c       ****         case 0x51:  //LD D,C
 395:.\cpu.c       ****         machine_cycles_taken = 1;
 396:.\cpu.c       ****         cpu->reg.d = cpu->reg.c;
 1071              		.loc 1 396 0
 1072 03f2 8378     		ldrb	r3, [r0, #2]	@ zero_extendqisi2
 1073 03f4 4371     		strb	r3, [r0, #5]
 395:.\cpu.c       ****         cpu->reg.d = cpu->reg.c;
 1074              		.loc 1 395 0
 1075 03f6 0120     		movs	r0, #1
 1076              	.LVL188:
 397:.\cpu.c       ****         break;
 1077              		.loc 1 397 0
ARM GAS  C:\Users\raytr\AppData\Local\Temp\cc45h1kf.s 			page 28


 1078 03f8 70BD     		pop	{r4, r5, r6, pc}
 1079              	.LVL189:
 1080              	.L69:
 398:.\cpu.c       ****         case 0x52:  //LD D,D
 399:.\cpu.c       ****         machine_cycles_taken = 1;
 400:.\cpu.c       ****         break;
 401:.\cpu.c       ****         case 0x53:  //LD D,E
 402:.\cpu.c       ****         machine_cycles_taken = 1;
 403:.\cpu.c       ****         cpu->reg.d = cpu->reg.e;
 1081              		.loc 1 403 0
 1082 03fa 0379     		ldrb	r3, [r0, #4]	@ zero_extendqisi2
 1083 03fc 4371     		strb	r3, [r0, #5]
 402:.\cpu.c       ****         cpu->reg.d = cpu->reg.e;
 1084              		.loc 1 402 0
 1085 03fe 0120     		movs	r0, #1
 1086              	.LVL190:
 404:.\cpu.c       ****         break;
 1087              		.loc 1 404 0
 1088 0400 70BD     		pop	{r4, r5, r6, pc}
 1089              	.LVL191:
 1090              	.L70:
 405:.\cpu.c       ****         case 0x54:  //LD D,H
 406:.\cpu.c       ****         machine_cycles_taken = 1;
 407:.\cpu.c       ****         cpu->reg.d = cpu->reg.h;
 1091              		.loc 1 407 0
 1092 0402 C379     		ldrb	r3, [r0, #7]	@ zero_extendqisi2
 1093 0404 4371     		strb	r3, [r0, #5]
 406:.\cpu.c       ****         cpu->reg.d = cpu->reg.h;
 1094              		.loc 1 406 0
 1095 0406 0120     		movs	r0, #1
 1096              	.LVL192:
 408:.\cpu.c       ****         break;
 1097              		.loc 1 408 0
 1098 0408 70BD     		pop	{r4, r5, r6, pc}
 1099              	.LVL193:
 1100              	.L71:
 409:.\cpu.c       ****         case 0x55:  //LD D,L
 410:.\cpu.c       ****         machine_cycles_taken = 1;
 411:.\cpu.c       ****         cpu->reg.d = cpu->reg.l;
 1101              		.loc 1 411 0
 1102 040a 8379     		ldrb	r3, [r0, #6]	@ zero_extendqisi2
 1103 040c 4371     		strb	r3, [r0, #5]
 410:.\cpu.c       ****         cpu->reg.d = cpu->reg.l;
 1104              		.loc 1 410 0
 1105 040e 0120     		movs	r0, #1
 1106              	.LVL194:
 412:.\cpu.c       ****         break;
 1107              		.loc 1 412 0
 1108 0410 70BD     		pop	{r4, r5, r6, pc}
 1109              	.LVL195:
 1110              	.L72:
 413:.\cpu.c       ****         case 0x56:  //LD D,(HL) 
 414:.\cpu.c       ****         machine_cycles_taken = 2;
 415:.\cpu.c       ****         cpu->reg.d = fetch(&cpu->mem, cpu->reg.hl, cpu->inBios);
 1111              		.loc 1 415 0
 1112 0412 0C30     		adds	r0, r0, #12
 1113              	.LVL196:
ARM GAS  C:\Users\raytr\AppData\Local\Temp\cc45h1kf.s 			page 29


 1114 0414 E188     		ldrh	r1, [r4, #6]
 1115              	.LVL197:
 1116 0416 43F20C03 		movw	r3, #12300
 1117 041a E25C     		ldrb	r2, [r4, r3]	@ zero_extendqisi2
 1118 041c FFF7FEFF 		bl	fetch
 1119              	.LVL198:
 1120 0420 6071     		strb	r0, [r4, #5]
 414:.\cpu.c       ****         cpu->reg.d = fetch(&cpu->mem, cpu->reg.hl, cpu->inBios);
 1121              		.loc 1 414 0
 1122 0422 0220     		movs	r0, #2
 416:.\cpu.c       ****         break;
 1123              		.loc 1 416 0
 1124 0424 70BD     		pop	{r4, r5, r6, pc}
 1125              	.LVL199:
 1126              	.L73:
 417:.\cpu.c       ****         case 0x57:  //LD D,A
 418:.\cpu.c       ****         machine_cycles_taken = 1;
 419:.\cpu.c       ****         cpu->reg.d = cpu->reg.a;
 1127              		.loc 1 419 0
 1128 0426 4378     		ldrb	r3, [r0, #1]	@ zero_extendqisi2
 1129 0428 4371     		strb	r3, [r0, #5]
 418:.\cpu.c       ****         cpu->reg.d = cpu->reg.a;
 1130              		.loc 1 418 0
 1131 042a 0120     		movs	r0, #1
 1132              	.LVL200:
 420:.\cpu.c       ****         break;
 1133              		.loc 1 420 0
 1134 042c 70BD     		pop	{r4, r5, r6, pc}
 1135              	.LVL201:
 1136              	.L74:
 421:.\cpu.c       ****         case 0x58:  //LD E,B
 422:.\cpu.c       ****         machine_cycles_taken = 1;
 423:.\cpu.c       ****         cpu->reg.e = cpu->reg.b;
 1137              		.loc 1 423 0
 1138 042e C378     		ldrb	r3, [r0, #3]	@ zero_extendqisi2
 1139 0430 0371     		strb	r3, [r0, #4]
 422:.\cpu.c       ****         cpu->reg.e = cpu->reg.b;
 1140              		.loc 1 422 0
 1141 0432 0120     		movs	r0, #1
 1142              	.LVL202:
 424:.\cpu.c       ****         break;
 1143              		.loc 1 424 0
 1144 0434 70BD     		pop	{r4, r5, r6, pc}
 1145              	.LVL203:
 1146              	.L75:
 425:.\cpu.c       ****         case 0x59:  //LD E,C
 426:.\cpu.c       ****         machine_cycles_taken = 1;
 427:.\cpu.c       ****         cpu->reg.e = cpu->reg.c;
 1147              		.loc 1 427 0
 1148 0436 8378     		ldrb	r3, [r0, #2]	@ zero_extendqisi2
 1149 0438 0371     		strb	r3, [r0, #4]
 426:.\cpu.c       ****         cpu->reg.e = cpu->reg.c;
 1150              		.loc 1 426 0
 1151 043a 0120     		movs	r0, #1
 1152              	.LVL204:
 428:.\cpu.c       ****         break;
 1153              		.loc 1 428 0
ARM GAS  C:\Users\raytr\AppData\Local\Temp\cc45h1kf.s 			page 30


 1154 043c 70BD     		pop	{r4, r5, r6, pc}
 1155              	.LVL205:
 1156              	.L76:
 429:.\cpu.c       ****         case 0x5A:  //LD E,D
 430:.\cpu.c       ****         machine_cycles_taken = 1;
 431:.\cpu.c       ****         cpu->reg.e = cpu->reg.d;
 1157              		.loc 1 431 0
 1158 043e 4379     		ldrb	r3, [r0, #5]	@ zero_extendqisi2
 1159 0440 0371     		strb	r3, [r0, #4]
 430:.\cpu.c       ****         cpu->reg.e = cpu->reg.d;
 1160              		.loc 1 430 0
 1161 0442 0120     		movs	r0, #1
 1162              	.LVL206:
 432:.\cpu.c       ****         break;
 1163              		.loc 1 432 0
 1164 0444 70BD     		pop	{r4, r5, r6, pc}
 1165              	.LVL207:
 1166              	.L77:
 433:.\cpu.c       ****         case 0x5B:  //LD E,E
 434:.\cpu.c       ****         machine_cycles_taken = 1;
 435:.\cpu.c       ****         break;
 436:.\cpu.c       ****         case 0x5C:  //LD E,H
 437:.\cpu.c       ****         machine_cycles_taken = 1;
 438:.\cpu.c       ****         cpu->reg.e = cpu->reg.h;
 1167              		.loc 1 438 0
 1168 0446 C379     		ldrb	r3, [r0, #7]	@ zero_extendqisi2
 1169 0448 0371     		strb	r3, [r0, #4]
 437:.\cpu.c       ****         cpu->reg.e = cpu->reg.h;
 1170              		.loc 1 437 0
 1171 044a 0120     		movs	r0, #1
 1172              	.LVL208:
 439:.\cpu.c       ****         break;
 1173              		.loc 1 439 0
 1174 044c 70BD     		pop	{r4, r5, r6, pc}
 1175              	.LVL209:
 1176              	.L78:
 440:.\cpu.c       ****         case 0x5D:  //LD E,L
 441:.\cpu.c       ****         machine_cycles_taken = 1;
 442:.\cpu.c       ****         cpu->reg.e = cpu->reg.l;
 1177              		.loc 1 442 0
 1178 044e 8379     		ldrb	r3, [r0, #6]	@ zero_extendqisi2
 1179 0450 0371     		strb	r3, [r0, #4]
 441:.\cpu.c       ****         cpu->reg.e = cpu->reg.l;
 1180              		.loc 1 441 0
 1181 0452 0120     		movs	r0, #1
 1182              	.LVL210:
 443:.\cpu.c       ****         break;
 1183              		.loc 1 443 0
 1184 0454 70BD     		pop	{r4, r5, r6, pc}
 1185              	.LVL211:
 1186              	.L79:
 444:.\cpu.c       ****         case 0x5E:  //LD E,(HL)
 445:.\cpu.c       ****         machine_cycles_taken = 2;
 446:.\cpu.c       ****         cpu->reg.e = fetch(&cpu->mem, cpu->reg.hl, cpu->inBios);
 1187              		.loc 1 446 0
 1188 0456 0C30     		adds	r0, r0, #12
 1189              	.LVL212:
ARM GAS  C:\Users\raytr\AppData\Local\Temp\cc45h1kf.s 			page 31


 1190 0458 E188     		ldrh	r1, [r4, #6]
 1191              	.LVL213:
 1192 045a 43F20C03 		movw	r3, #12300
 1193 045e E25C     		ldrb	r2, [r4, r3]	@ zero_extendqisi2
 1194 0460 FFF7FEFF 		bl	fetch
 1195              	.LVL214:
 1196 0464 2071     		strb	r0, [r4, #4]
 445:.\cpu.c       ****         cpu->reg.e = fetch(&cpu->mem, cpu->reg.hl, cpu->inBios);
 1197              		.loc 1 445 0
 1198 0466 0220     		movs	r0, #2
 447:.\cpu.c       ****         break;
 1199              		.loc 1 447 0
 1200 0468 70BD     		pop	{r4, r5, r6, pc}
 1201              	.LVL215:
 1202              	.L80:
 448:.\cpu.c       ****         case 0x5F:  //LD E,A
 449:.\cpu.c       ****         machine_cycles_taken = 1;
 450:.\cpu.c       ****         cpu->reg.e = cpu->reg.a;
 1203              		.loc 1 450 0
 1204 046a 4378     		ldrb	r3, [r0, #1]	@ zero_extendqisi2
 1205 046c 0371     		strb	r3, [r0, #4]
 449:.\cpu.c       ****         cpu->reg.e = cpu->reg.a;
 1206              		.loc 1 449 0
 1207 046e 0120     		movs	r0, #1
 1208              	.LVL216:
 451:.\cpu.c       ****         break;
 1209              		.loc 1 451 0
 1210 0470 70BD     		pop	{r4, r5, r6, pc}
 1211              	.LVL217:
 1212              	.L81:
  54:.\cpu.c       ****         break;
 1213              		.loc 1 54 0
 1214 0472 0120     		movs	r0, #1
 1215              	.LVL218:
 1216 0474 70BD     		pop	{r4, r5, r6, pc}
 1217              	.LVL219:
 1218              	.L82:
 184:.\cpu.c       ****         int8_t jrnz_offset = safe_convert(fetch_and_increment_pc(cpu));
 1219              		.loc 1 184 0
 1220 0476 0220     		movs	r0, #2
 1221 0478 70BD     		pop	{r4, r5, r6, pc}
 1222              	.LVL220:
 1223              	.L83:
 221:.\cpu.c       ****         int8_t jrzi8_offset = safe_convert(fetch_and_increment_pc(cpu));
 1224              		.loc 1 221 0
 1225 047a 0220     		movs	r0, #2
 1226 047c 70BD     		pop	{r4, r5, r6, pc}
 1227              	.LVL221:
 1228              	.L84:
 257:.\cpu.c       ****         int8_t jrnci8_offset = safe_convert(fetch_and_increment_pc(cpu));
 1229              		.loc 1 257 0
 1230 047e 0220     		movs	r0, #2
 1231 0480 70BD     		pop	{r4, r5, r6, pc}
 1232              	.LVL222:
 1233              	.L85:
 293:.\cpu.c       ****         int8_t jrci8_offset = safe_convert(fetch_and_increment_pc(cpu));
 1234              		.loc 1 293 0
ARM GAS  C:\Users\raytr\AppData\Local\Temp\cc45h1kf.s 			page 32


 1235 0482 0220     		movs	r0, #2
 1236              	.LVL223:
 1237              	.LBE39:
 452:.\cpu.c       ****         
 453:.\cpu.c       ****         
 454:.\cpu.c       ****         
 455:.\cpu.c       ****         
 456:.\cpu.c       ****     }
 457:.\cpu.c       ****     return machine_cycles_taken;
 458:.\cpu.c       **** }
 1238              		.loc 1 458 0
 1239 0484 70BD     		pop	{r4, r5, r6, pc}
 1240              		.cfi_endproc
 1241              	.LFE8:
 1242              		.size	execute_normal, .-execute_normal
 1243 0486 00BF     		.section	.text.execute_cb_prefix,"ax",%progbits
 1244              		.align	2
 1245              		.global	execute_cb_prefix
 1246              		.thumb
 1247              		.thumb_func
 1248              		.type	execute_cb_prefix, %function
 1249              	execute_cb_prefix:
 1250              	.LFB9:
 459:.\cpu.c       **** 
 460:.\cpu.c       **** int execute_cb_prefix(Cpu* cpu, uint8_t instruction){
 1251              		.loc 1 460 0
 1252              		.cfi_startproc
 1253              		@ args = 0, pretend = 0, frame = 0
 1254              		@ frame_needed = 0, uses_anonymous_args = 0
 1255              		@ link register save eliminated.
 1256              	.LVL224:
 461:.\cpu.c       ****     int cycles_taken = 0;
 462:.\cpu.c       ****     switch (instruction){
 1257              		.loc 1 462 0
 1258 0000 09B1     		cbz	r1, .L90
 461:.\cpu.c       ****     int cycles_taken = 0;
 1259              		.loc 1 461 0
 1260 0002 0020     		movs	r0, #0
 1261              	.LVL225:
 1262 0004 7047     		bx	lr
 1263              	.LVL226:
 1264              	.L90:
 463:.\cpu.c       ****         case 0x0:
 464:.\cpu.c       ****         cycles_taken = 2;
 1265              		.loc 1 464 0
 1266 0006 0220     		movs	r0, #2
 1267              	.LVL227:
 465:.\cpu.c       ****         break;
 466:.\cpu.c       ****         case 0x01:
 467:.\cpu.c       ****         break;
 468:.\cpu.c       ****         
 469:.\cpu.c       ****     }
 470:.\cpu.c       ****     return cycles_taken;
 471:.\cpu.c       **** }
 1268              		.loc 1 471 0
 1269 0008 7047     		bx	lr
 1270              		.cfi_endproc
ARM GAS  C:\Users\raytr\AppData\Local\Temp\cc45h1kf.s 			page 33


 1271              	.LFE9:
 1272              		.size	execute_cb_prefix, .-execute_cb_prefix
 1273 000a 00BF     		.section	.text.execute,"ax",%progbits
 1274              		.align	2
 1275              		.global	execute
 1276              		.thumb
 1277              		.thumb_func
 1278              		.type	execute, %function
 1279              	execute:
 1280              	.LFB10:
 472:.\cpu.c       **** 
 473:.\cpu.c       **** // Executes an instruction
 474:.\cpu.c       **** // Returns the number of machine cycles the instruction took
 475:.\cpu.c       **** int execute(Cpu* cpu, uint8_t instruction){
 1281              		.loc 1 475 0
 1282              		.cfi_startproc
 1283              		@ args = 0, pretend = 0, frame = 0
 1284              		@ frame_needed = 0, uses_anonymous_args = 0
 1285              	.LVL228:
 1286 0000 38B5     		push	{r3, r4, r5, lr}
 1287              		.cfi_def_cfa_offset 16
 1288              		.cfi_offset 3, -16
 1289              		.cfi_offset 4, -12
 1290              		.cfi_offset 5, -8
 1291              		.cfi_offset 14, -4
 1292 0002 0546     		mov	r5, r0
 1293 0004 0C46     		mov	r4, r1
 476:.\cpu.c       ****     int cycles_taken;
 477:.\cpu.c       ****     // Handle the pc for most instructions
 478:.\cpu.c       ****     increment_pc(cpu);
 1294              		.loc 1 478 0
 1295 0006 FFF7FEFF 		bl	increment_pc
 1296              	.LVL229:
 479:.\cpu.c       ****     // Check for CB-prefixed instructions
 480:.\cpu.c       ****     if (instruction == 0xCB) {
 1297              		.loc 1 480 0
 1298 000a CB2C     		cmp	r4, #203
 1299 000c 10D1     		bne	.L92
 1300              	.LBB48:
 481:.\cpu.c       ****         // This is a CB-prefixed instruction! 
 482:.\cpu.c       ****         // Have to read the next one
 483:.\cpu.c       ****         uint8_t cb_instr = fetch(&cpu->mem, cpu->reg.pc, cpu->inBios);
 1301              		.loc 1 483 0
 1302 000e 05F10C00 		add	r0, r5, #12
 1303 0012 2989     		ldrh	r1, [r5, #8]
 1304 0014 43F20C03 		movw	r3, #12300
 1305 0018 EA5C     		ldrb	r2, [r5, r3]	@ zero_extendqisi2
 1306 001a FFF7FEFF 		bl	fetch
 1307              	.LVL230:
 1308 001e 0446     		mov	r4, r0
 1309              	.LVL231:
 484:.\cpu.c       ****         increment_pc(cpu);
 1310              		.loc 1 484 0
 1311 0020 2846     		mov	r0, r5
 1312 0022 FFF7FEFF 		bl	increment_pc
 1313              	.LVL232:
 485:.\cpu.c       ****         cycles_taken = execute_cb_prefix(cpu, cb_instr);
ARM GAS  C:\Users\raytr\AppData\Local\Temp\cc45h1kf.s 			page 34


 1314              		.loc 1 485 0
 1315 0026 2846     		mov	r0, r5
 1316 0028 2146     		mov	r1, r4
 1317 002a FFF7FEFF 		bl	execute_cb_prefix
 1318              	.LVL233:
 1319              	.LBE48:
 1320 002e 38BD     		pop	{r3, r4, r5, pc}
 1321              	.LVL234:
 1322              	.L92:
 486:.\cpu.c       ****     } else {
 487:.\cpu.c       ****         cycles_taken = execute_normal(cpu, instruction);
 1323              		.loc 1 487 0
 1324 0030 2846     		mov	r0, r5
 1325 0032 2146     		mov	r1, r4
 1326 0034 FFF7FEFF 		bl	execute_normal
 1327              	.LVL235:
 488:.\cpu.c       ****     }
 489:.\cpu.c       ****     return cycles_taken;
 490:.\cpu.c       **** }
 1328              		.loc 1 490 0
 1329 0038 38BD     		pop	{r3, r4, r5, pc}
 1330              		.cfi_endproc
 1331              	.LFE10:
 1332              		.size	execute, .-execute
 1333 003a 00BF     		.section	.text.tick,"ax",%progbits
 1334              		.align	2
 1335              		.global	tick
 1336              		.thumb
 1337              		.thumb_func
 1338              		.type	tick, %function
 1339              	tick:
 1340              	.LFB11:
 491:.\cpu.c       **** 
 492:.\cpu.c       **** int tick(Cpu* cpu){
 1341              		.loc 1 492 0
 1342              		.cfi_startproc
 1343              		@ args = 0, pretend = 0, frame = 0
 1344              		@ frame_needed = 0, uses_anonymous_args = 0
 1345              	.LVL236:
 1346 0000 10B5     		push	{r4, lr}
 1347              		.cfi_def_cfa_offset 8
 1348              		.cfi_offset 4, -8
 1349              		.cfi_offset 14, -4
 1350 0002 0446     		mov	r4, r0
 493:.\cpu.c       ****     // Fetch
 494:.\cpu.c       ****     uint8_t instruction = fetch(&cpu->mem, cpu->reg.pc, cpu->inBios);
 1351              		.loc 1 494 0
 1352 0004 0C30     		adds	r0, r0, #12
 1353              	.LVL237:
 1354 0006 2189     		ldrh	r1, [r4, #8]
 1355 0008 43F20C03 		movw	r3, #12300
 1356 000c E25C     		ldrb	r2, [r4, r3]	@ zero_extendqisi2
 1357 000e FFF7FEFF 		bl	fetch
 1358              	.LVL238:
 1359 0012 0146     		mov	r1, r0
 1360              	.LVL239:
 495:.\cpu.c       ****     
ARM GAS  C:\Users\raytr\AppData\Local\Temp\cc45h1kf.s 			page 35


 496:.\cpu.c       ****     // Decode/Execute and return # of clock cycles
 497:.\cpu.c       ****     return execute(cpu, instruction);
 1361              		.loc 1 497 0
 1362 0014 2046     		mov	r0, r4
 1363 0016 FFF7FEFF 		bl	execute
 1364              	.LVL240:
 498:.\cpu.c       **** }
 1365              		.loc 1 498 0
 1366 001a 10BD     		pop	{r4, pc}
 1367              		.cfi_endproc
 1368              	.LFE11:
 1369              		.size	tick, .-tick
 1370              		.text
 1371              	.Letext0:
 1372              		.file 2 "c:\\program files (x86)\\cypress\\psoc creator\\3.3\\psoc creator\\import\\gnu\\arm\\4.9.
 1373              		.file 3 "c:\\program files (x86)\\cypress\\psoc creator\\3.3\\psoc creator\\import\\gnu\\arm\\4.9.
 1374              		.file 4 ".\\memory.h"
 1375              		.file 5 ".\\registers.h"
 1376              		.file 6 ".\\cpu.h"