ARM GAS  C:\Users\raytr\AppData\Local\Temp\ccxm5P3J.s 			page 1


   1              		.syntax unified
   2              		.cpu cortex-m3
   3              		.fpu softvfp
   4              		.eabi_attribute 20, 1
   5              		.eabi_attribute 21, 1
   6              		.eabi_attribute 23, 3
   7              		.eabi_attribute 24, 1
   8              		.eabi_attribute 25, 1
   9              		.eabi_attribute 26, 1
  10              		.eabi_attribute 30, 1
  11              		.eabi_attribute 34, 1
  12              		.eabi_attribute 18, 4
  13              		.thumb
  14              		.file	"registers.c"
  15              		.text
  16              	.Ltext0:
  17              		.cfi_sections	.debug_frame
  18              		.section	.text.reset_registers,"ax",%progbits
  19              		.align	2
  20              		.global	reset_registers
  21              		.thumb
  22              		.thumb_func
  23              		.type	reset_registers, %function
  24              	reset_registers:
  25              	.LFB0:
  26              		.file 1 ".\\registers.c"
   1:.\registers.c **** #include "registers.h"
   2:.\registers.c **** 
   3:.\registers.c **** 
   4:.\registers.c **** void reset_registers(Registers *regs){
  27              		.loc 1 4 0
  28              		.cfi_startproc
  29              		@ args = 0, pretend = 0, frame = 0
  30              		@ frame_needed = 0, uses_anonymous_args = 0
  31              		@ link register save eliminated.
  32              	.LVL0:
   5:.\registers.c ****     regs->af = 0;
  33              		.loc 1 5 0
  34 0000 0023     		movs	r3, #0
  35 0002 0380     		strh	r3, [r0]	@ movhi
   6:.\registers.c ****     regs->bc = 0;
  36              		.loc 1 6 0
  37 0004 4380     		strh	r3, [r0, #2]	@ movhi
   7:.\registers.c ****     regs->de = 0;
  38              		.loc 1 7 0
  39 0006 8380     		strh	r3, [r0, #4]	@ movhi
   8:.\registers.c ****     regs->hl = 0;
  40              		.loc 1 8 0
  41 0008 C380     		strh	r3, [r0, #6]	@ movhi
   9:.\registers.c ****     regs->pc = 0;
  42              		.loc 1 9 0
  43 000a 0381     		strh	r3, [r0, #8]	@ movhi
  10:.\registers.c ****     regs->sp = 0;
  44              		.loc 1 10 0
  45 000c 4381     		strh	r3, [r0, #10]	@ movhi
  46 000e 7047     		bx	lr
  47              		.cfi_endproc
ARM GAS  C:\Users\raytr\AppData\Local\Temp\ccxm5P3J.s 			page 2


  48              	.LFE0:
  49              		.size	reset_registers, .-reset_registers
  50              		.section	.text.get_zero_flag,"ax",%progbits
  51              		.align	2
  52              		.global	get_zero_flag
  53              		.thumb
  54              		.thumb_func
  55              		.type	get_zero_flag, %function
  56              	get_zero_flag:
  57              	.LFB1:
  11:.\registers.c **** }
  12:.\registers.c **** 
  13:.\registers.c **** bool get_zero_flag(Registers* regs){
  58              		.loc 1 13 0
  59              		.cfi_startproc
  60              		@ args = 0, pretend = 0, frame = 0
  61              		@ frame_needed = 0, uses_anonymous_args = 0
  62              		@ link register save eliminated.
  63              	.LVL1:
  14:.\registers.c ****     return regs->f & 0b10000000;
  64              		.loc 1 14 0
  65 0000 0078     		ldrb	r0, [r0]	@ zero_extendqisi2
  66              	.LVL2:
  15:.\registers.c **** }
  67              		.loc 1 15 0
  68 0002 C009     		lsrs	r0, r0, #7
  69 0004 7047     		bx	lr
  70              		.cfi_endproc
  71              	.LFE1:
  72              		.size	get_zero_flag, .-get_zero_flag
  73 0006 00BF     		.section	.text.get_subtraction_flag,"ax",%progbits
  74              		.align	2
  75              		.global	get_subtraction_flag
  76              		.thumb
  77              		.thumb_func
  78              		.type	get_subtraction_flag, %function
  79              	get_subtraction_flag:
  80              	.LFB2:
  16:.\registers.c **** bool get_subtraction_flag(Registers* regs){
  81              		.loc 1 16 0
  82              		.cfi_startproc
  83              		@ args = 0, pretend = 0, frame = 0
  84              		@ frame_needed = 0, uses_anonymous_args = 0
  85              		@ link register save eliminated.
  86              	.LVL3:
  17:.\registers.c ****     return regs->f & 0b01000000;
  87              		.loc 1 17 0
  88 0000 0078     		ldrb	r0, [r0]	@ zero_extendqisi2
  89              	.LVL4:
  18:.\registers.c **** }
  90              		.loc 1 18 0
  91 0002 C0F38010 		ubfx	r0, r0, #6, #1
  92 0006 7047     		bx	lr
  93              		.cfi_endproc
  94              	.LFE2:
  95              		.size	get_subtraction_flag, .-get_subtraction_flag
  96              		.section	.text.get_half_carry_flag,"ax",%progbits
ARM GAS  C:\Users\raytr\AppData\Local\Temp\ccxm5P3J.s 			page 3


  97              		.align	2
  98              		.global	get_half_carry_flag
  99              		.thumb
 100              		.thumb_func
 101              		.type	get_half_carry_flag, %function
 102              	get_half_carry_flag:
 103              	.LFB3:
  19:.\registers.c **** bool get_half_carry_flag(Registers* regs){
 104              		.loc 1 19 0
 105              		.cfi_startproc
 106              		@ args = 0, pretend = 0, frame = 0
 107              		@ frame_needed = 0, uses_anonymous_args = 0
 108              		@ link register save eliminated.
 109              	.LVL5:
  20:.\registers.c ****     return regs->f & 0b00100000;
 110              		.loc 1 20 0
 111 0000 0078     		ldrb	r0, [r0]	@ zero_extendqisi2
 112              	.LVL6:
  21:.\registers.c **** }
 113              		.loc 1 21 0
 114 0002 C0F34010 		ubfx	r0, r0, #5, #1
 115 0006 7047     		bx	lr
 116              		.cfi_endproc
 117              	.LFE3:
 118              		.size	get_half_carry_flag, .-get_half_carry_flag
 119              		.section	.text.get_carry_flag,"ax",%progbits
 120              		.align	2
 121              		.global	get_carry_flag
 122              		.thumb
 123              		.thumb_func
 124              		.type	get_carry_flag, %function
 125              	get_carry_flag:
 126              	.LFB4:
  22:.\registers.c **** bool get_carry_flag(Registers* regs){
 127              		.loc 1 22 0
 128              		.cfi_startproc
 129              		@ args = 0, pretend = 0, frame = 0
 130              		@ frame_needed = 0, uses_anonymous_args = 0
 131              		@ link register save eliminated.
 132              	.LVL7:
  23:.\registers.c ****     return regs->f & 0b00010000;
 133              		.loc 1 23 0
 134 0000 0078     		ldrb	r0, [r0]	@ zero_extendqisi2
 135              	.LVL8:
  24:.\registers.c **** }
 136              		.loc 1 24 0
 137 0002 C0F30010 		ubfx	r0, r0, #4, #1
 138 0006 7047     		bx	lr
 139              		.cfi_endproc
 140              	.LFE4:
 141              		.size	get_carry_flag, .-get_carry_flag
 142              		.section	.text.set_zero_flag,"ax",%progbits
 143              		.align	2
 144              		.global	set_zero_flag
 145              		.thumb
 146              		.thumb_func
 147              		.type	set_zero_flag, %function
ARM GAS  C:\Users\raytr\AppData\Local\Temp\ccxm5P3J.s 			page 4


 148              	set_zero_flag:
 149              	.LFB5:
  25:.\registers.c **** void set_zero_flag(Registers* regs, bool value){
 150              		.loc 1 25 0
 151              		.cfi_startproc
 152              		@ args = 0, pretend = 0, frame = 0
 153              		@ frame_needed = 0, uses_anonymous_args = 0
 154              		@ link register save eliminated.
 155              	.LVL9:
  26:.\registers.c ****     regs->f = (regs->f & ~(1 << 7)) ^ (value << 7);
 156              		.loc 1 26 0
 157 0000 0378     		ldrb	r3, [r0]	@ zero_extendqisi2
 158 0002 03F07F03 		and	r3, r3, #127
 159 0006 43EAC111 		orr	r1, r3, r1, lsl #7
 160              	.LVL10:
 161 000a 0170     		strb	r1, [r0]
 162 000c 7047     		bx	lr
 163              		.cfi_endproc
 164              	.LFE5:
 165              		.size	set_zero_flag, .-set_zero_flag
 166 000e 00BF     		.section	.text.set_subtraction_flag,"ax",%progbits
 167              		.align	2
 168              		.global	set_subtraction_flag
 169              		.thumb
 170              		.thumb_func
 171              		.type	set_subtraction_flag, %function
 172              	set_subtraction_flag:
 173              	.LFB6:
  27:.\registers.c **** }
  28:.\registers.c **** void set_subtraction_flag(Registers* regs, bool value){
 174              		.loc 1 28 0
 175              		.cfi_startproc
 176              		@ args = 0, pretend = 0, frame = 0
 177              		@ frame_needed = 0, uses_anonymous_args = 0
 178              		@ link register save eliminated.
 179              	.LVL11:
  29:.\registers.c ****     regs->f = (regs->f & ~(1 << 6)) ^ (value << 6);
 180              		.loc 1 29 0
 181 0000 0378     		ldrb	r3, [r0]	@ zero_extendqisi2
 182 0002 23F04003 		bic	r3, r3, #64
 183 0006 83EA8111 		eor	r1, r3, r1, lsl #6
 184              	.LVL12:
 185 000a 0170     		strb	r1, [r0]
 186 000c 7047     		bx	lr
 187              		.cfi_endproc
 188              	.LFE6:
 189              		.size	set_subtraction_flag, .-set_subtraction_flag
 190 000e 00BF     		.section	.text.set_half_carry_flag,"ax",%progbits
 191              		.align	2
 192              		.global	set_half_carry_flag
 193              		.thumb
 194              		.thumb_func
 195              		.type	set_half_carry_flag, %function
 196              	set_half_carry_flag:
 197              	.LFB7:
  30:.\registers.c **** }
  31:.\registers.c **** void set_half_carry_flag(Registers* regs, bool value){
ARM GAS  C:\Users\raytr\AppData\Local\Temp\ccxm5P3J.s 			page 5


 198              		.loc 1 31 0
 199              		.cfi_startproc
 200              		@ args = 0, pretend = 0, frame = 0
 201              		@ frame_needed = 0, uses_anonymous_args = 0
 202              		@ link register save eliminated.
 203              	.LVL13:
  32:.\registers.c ****     regs->f = (regs->f & ~(1 << 5)) ^ (value << 5);
 204              		.loc 1 32 0
 205 0000 0378     		ldrb	r3, [r0]	@ zero_extendqisi2
 206 0002 23F02003 		bic	r3, r3, #32
 207 0006 83EA4111 		eor	r1, r3, r1, lsl #5
 208              	.LVL14:
 209 000a 0170     		strb	r1, [r0]
 210 000c 7047     		bx	lr
 211              		.cfi_endproc
 212              	.LFE7:
 213              		.size	set_half_carry_flag, .-set_half_carry_flag
 214 000e 00BF     		.section	.text.set_carry_flag,"ax",%progbits
 215              		.align	2
 216              		.global	set_carry_flag
 217              		.thumb
 218              		.thumb_func
 219              		.type	set_carry_flag, %function
 220              	set_carry_flag:
 221              	.LFB8:
  33:.\registers.c **** }
  34:.\registers.c **** void set_carry_flag(Registers* regs, bool value){
 222              		.loc 1 34 0
 223              		.cfi_startproc
 224              		@ args = 0, pretend = 0, frame = 0
 225              		@ frame_needed = 0, uses_anonymous_args = 0
 226              		@ link register save eliminated.
 227              	.LVL15:
  35:.\registers.c ****     regs->f = (regs->f & ~(1 << 4)) ^ (value << 4);
 228              		.loc 1 35 0
 229 0000 0378     		ldrb	r3, [r0]	@ zero_extendqisi2
 230 0002 23F01003 		bic	r3, r3, #16
 231 0006 83EA0111 		eor	r1, r3, r1, lsl #4
 232              	.LVL16:
 233 000a 0170     		strb	r1, [r0]
 234 000c 7047     		bx	lr
 235              		.cfi_endproc
 236              	.LFE8:
 237              		.size	set_carry_flag, .-set_carry_flag
 238 000e 00BF     		.text
 239              	.Letext0:
 240              		.file 2 "c:\\program files (x86)\\cypress\\psoc creator\\3.3\\psoc creator\\import\\gnu\\arm\\4.9.
 241              		.file 3 "c:\\program files (x86)\\cypress\\psoc creator\\3.3\\psoc creator\\import\\gnu\\arm\\4.9.
 242              		.file 4 ".\\registers.h"